
rsort.riscv:     file format elf64-littleriscv


Disassembly of section .text.init:

0000000080000000 <_start>:
    80000000:	4081                	li	ra,0
    80000002:	4101                	li	sp,0
    80000004:	4181                	li	gp,0
    80000006:	4201                	li	tp,0
    80000008:	4281                	li	t0,0
    8000000a:	4301                	li	t1,0
    8000000c:	4381                	li	t2,0
    8000000e:	4401                	li	s0,0
    80000010:	4481                	li	s1,0
    80000012:	4501                	li	a0,0
    80000014:	4581                	li	a1,0
    80000016:	4601                	li	a2,0
    80000018:	4681                	li	a3,0
    8000001a:	4701                	li	a4,0
    8000001c:	4781                	li	a5,0
    8000001e:	4801                	li	a6,0
    80000020:	4881                	li	a7,0
    80000022:	4901                	li	s2,0
    80000024:	4981                	li	s3,0
    80000026:	4a01                	li	s4,0
    80000028:	4a81                	li	s5,0
    8000002a:	4b01                	li	s6,0
    8000002c:	4b81                	li	s7,0
    8000002e:	4c01                	li	s8,0
    80000030:	4c81                	li	s9,0
    80000032:	4d01                	li	s10,0
    80000034:	4d81                	li	s11,0
    80000036:	4e01                	li	t3,0
    80000038:	4e81                	li	t4,0
    8000003a:	4f01                	li	t5,0
    8000003c:	4f81                	li	t6,0
    8000003e:	62f9                	lui	t0,0x1e
    80000040:	3002a073          	csrs	mstatus,t0
    80000044:	4285                	li	t0,1
    80000046:	02fe                	slli	t0,t0,0x1f
    80000048:	0002d863          	bgez	t0,80000058 <_start+0x58>
    8000004c:	4505                	li	a0,1
    8000004e:	00001297          	auipc	t0,0x1
    80000052:	faa2a923          	sw	a0,-78(t0) # 80001000 <tohost>
    80000056:	bfdd                	j	8000004c <_start+0x4c>
    80000058:	00000297          	auipc	t0,0x0
    8000005c:	09028293          	addi	t0,t0,144 # 800000e8 <_start+0xe8>
    80000060:	30529073          	csrw	mtvec,t0
    80000064:	00301073          	fscsr	zero
    80000068:	f0000053          	fmv.w.x	ft0,zero
    8000006c:	f00000d3          	fmv.w.x	ft1,zero
    80000070:	f0000153          	fmv.w.x	ft2,zero
    80000074:	f00001d3          	fmv.w.x	ft3,zero
    80000078:	f0000253          	fmv.w.x	ft4,zero
    8000007c:	f00002d3          	fmv.w.x	ft5,zero
    80000080:	f0000353          	fmv.w.x	ft6,zero
    80000084:	f00003d3          	fmv.w.x	ft7,zero
    80000088:	f0000453          	fmv.w.x	fs0,zero
    8000008c:	f00004d3          	fmv.w.x	fs1,zero
    80000090:	f0000553          	fmv.w.x	fa0,zero
    80000094:	f00005d3          	fmv.w.x	fa1,zero
    80000098:	f0000653          	fmv.w.x	fa2,zero
    8000009c:	f00006d3          	fmv.w.x	fa3,zero
    800000a0:	f0000753          	fmv.w.x	fa4,zero
    800000a4:	f00007d3          	fmv.w.x	fa5,zero
    800000a8:	f0000853          	fmv.w.x	fa6,zero
    800000ac:	f00008d3          	fmv.w.x	fa7,zero
    800000b0:	f0000953          	fmv.w.x	fs2,zero
    800000b4:	f00009d3          	fmv.w.x	fs3,zero
    800000b8:	f0000a53          	fmv.w.x	fs4,zero
    800000bc:	f0000ad3          	fmv.w.x	fs5,zero
    800000c0:	f0000b53          	fmv.w.x	fs6,zero
    800000c4:	f0000bd3          	fmv.w.x	fs7,zero
    800000c8:	f0000c53          	fmv.w.x	fs8,zero
    800000cc:	f0000cd3          	fmv.w.x	fs9,zero
    800000d0:	f0000d53          	fmv.w.x	fs10,zero
    800000d4:	f0000dd3          	fmv.w.x	fs11,zero
    800000d8:	f0000e53          	fmv.w.x	ft8,zero
    800000dc:	f0000ed3          	fmv.w.x	ft9,zero
    800000e0:	f0000f53          	fmv.w.x	ft10,zero
    800000e4:	f0000fd3          	fmv.w.x	ft11,zero
    800000e8:	00000297          	auipc	t0,0x0
    800000ec:	03c28293          	addi	t0,t0,60 # 80000124 <trap_entry>
    800000f0:	30529073          	csrw	mtvec,t0
    800000f4:	00007197          	auipc	gp,0x7
    800000f8:	2d418193          	addi	gp,gp,724 # 800073c8 <__global_pointer$>
    800000fc:	00009217          	auipc	tp,0x9
    80000100:	b4320213          	addi	tp,tp,-1213 # 80008c3f <_end+0x3f>
    80000104:	fc027213          	andi	tp,tp,-64
    80000108:	f1402573          	csrr	a0,mhartid
    8000010c:	4585                	li	a1,1
    8000010e:	00b57063          	bgeu	a0,a1,8000010e <_start+0x10e>
    80000112:	00150113          	addi	sp,a0,1
    80000116:	0146                	slli	sp,sp,0x11
    80000118:	9112                	add	sp,sp,tp
    8000011a:	01151613          	slli	a2,a0,0x11
    8000011e:	9232                	add	tp,tp,a2
    80000120:	6e20206f          	j	80002802 <_init>

0000000080000124 <trap_entry>:
    80000124:	716d                	addi	sp,sp,-272
    80000126:	e406                	sd	ra,8(sp)
    80000128:	e80a                	sd	sp,16(sp)
    8000012a:	ec0e                	sd	gp,24(sp)
    8000012c:	f012                	sd	tp,32(sp)
    8000012e:	f416                	sd	t0,40(sp)
    80000130:	f81a                	sd	t1,48(sp)
    80000132:	fc1e                	sd	t2,56(sp)
    80000134:	e0a2                	sd	s0,64(sp)
    80000136:	e4a6                	sd	s1,72(sp)
    80000138:	e8aa                	sd	a0,80(sp)
    8000013a:	ecae                	sd	a1,88(sp)
    8000013c:	f0b2                	sd	a2,96(sp)
    8000013e:	f4b6                	sd	a3,104(sp)
    80000140:	f8ba                	sd	a4,112(sp)
    80000142:	fcbe                	sd	a5,120(sp)
    80000144:	e142                	sd	a6,128(sp)
    80000146:	e546                	sd	a7,136(sp)
    80000148:	e94a                	sd	s2,144(sp)
    8000014a:	ed4e                	sd	s3,152(sp)
    8000014c:	f152                	sd	s4,160(sp)
    8000014e:	f556                	sd	s5,168(sp)
    80000150:	f95a                	sd	s6,176(sp)
    80000152:	fd5e                	sd	s7,184(sp)
    80000154:	e1e2                	sd	s8,192(sp)
    80000156:	e5e6                	sd	s9,200(sp)
    80000158:	e9ea                	sd	s10,208(sp)
    8000015a:	edee                	sd	s11,216(sp)
    8000015c:	f1f2                	sd	t3,224(sp)
    8000015e:	f5f6                	sd	t4,232(sp)
    80000160:	f9fa                	sd	t5,240(sp)
    80000162:	fdfe                	sd	t6,248(sp)
    80000164:	34202573          	csrr	a0,mcause
    80000168:	341025f3          	csrr	a1,mepc
    8000016c:	860a                	mv	a2,sp
    8000016e:	4c0020ef          	jal	ra,8000262e <handle_trap>
    80000172:	34151073          	csrw	mepc,a0
    80000176:	6289                	lui	t0,0x2
    80000178:	8002829b          	addiw	t0,t0,-2048 # 1800 <buflen.0+0x17c0>
    8000017c:	3002a073          	csrs	mstatus,t0
    80000180:	60a2                	ld	ra,8(sp)
    80000182:	6142                	ld	sp,16(sp)
    80000184:	61e2                	ld	gp,24(sp)
    80000186:	7202                	ld	tp,32(sp)
    80000188:	72a2                	ld	t0,40(sp)
    8000018a:	7342                	ld	t1,48(sp)
    8000018c:	73e2                	ld	t2,56(sp)
    8000018e:	6406                	ld	s0,64(sp)
    80000190:	64a6                	ld	s1,72(sp)
    80000192:	6546                	ld	a0,80(sp)
    80000194:	65e6                	ld	a1,88(sp)
    80000196:	7606                	ld	a2,96(sp)
    80000198:	76a6                	ld	a3,104(sp)
    8000019a:	7746                	ld	a4,112(sp)
    8000019c:	77e6                	ld	a5,120(sp)
    8000019e:	680a                	ld	a6,128(sp)
    800001a0:	68aa                	ld	a7,136(sp)
    800001a2:	694a                	ld	s2,144(sp)
    800001a4:	69ea                	ld	s3,152(sp)
    800001a6:	7a0a                	ld	s4,160(sp)
    800001a8:	7aaa                	ld	s5,168(sp)
    800001aa:	7b4a                	ld	s6,176(sp)
    800001ac:	7bea                	ld	s7,184(sp)
    800001ae:	6c0e                	ld	s8,192(sp)
    800001b0:	6cae                	ld	s9,200(sp)
    800001b2:	6d4e                	ld	s10,208(sp)
    800001b4:	6dee                	ld	s11,216(sp)
    800001b6:	7e0e                	ld	t3,224(sp)
    800001b8:	7eae                	ld	t4,232(sp)
    800001ba:	7f4e                	ld	t5,240(sp)
    800001bc:	7fee                	ld	t6,248(sp)
    800001be:	6151                	addi	sp,sp,272
    800001c0:	30200073          	mret
    800001c4:	0000                	unimp

Disassembly of section .text:

0000000080002000 <verify.constprop.0>:
    80002000:	87aa                	mv	a5,a0
    80002002:	00003717          	auipc	a4,0x3
    80002006:	bc670713          	addi	a4,a4,-1082 # 80004bc8 <input_data>
    8000200a:	4501                	li	a0,0
    8000200c:	430c                	lw	a1,0(a4)
    8000200e:	0007a803          	lw	a6,0(a5)
    80002012:	4354                	lw	a3,4(a4)
    80002014:	0025061b          	addiw	a2,a0,2
    80002018:	0047a883          	lw	a7,4(a5)
    8000201c:	8006031b          	addiw	t1,a2,-2048
    80002020:	2681                	sext.w	a3,a3
    80002022:	00b81c63          	bne	a6,a1,8000203a <verify.constprop.0+0x3a>
    80002026:	0006051b          	sext.w	a0,a2
    8000202a:	01169763          	bne	a3,a7,80002038 <verify.constprop.0+0x38>
    8000202e:	0721                	addi	a4,a4,8
    80002030:	07a1                	addi	a5,a5,8
    80002032:	fc031de3          	bnez	t1,8000200c <verify.constprop.0+0xc>
    80002036:	4501                	li	a0,0
    80002038:	8082                	ret
    8000203a:	2505                	addiw	a0,a0,1
    8000203c:	8082                	ret

000000008000203e <sort>:
    8000203e:	7159                	addi	sp,sp,-112
    80002040:	e86a                	sd	s10,16(sp)
    80002042:	00251d13          	slli	s10,a0,0x2
    80002046:	f062                	sd	s8,32(sp)
    80002048:	ff3d0713          	addi	a4,s10,-13
    8000204c:	ff0d0793          	addi	a5,s10,-16
    80002050:	6c05                	lui	s8,0x1
    80002052:	f0a2                	sd	s0,96(sp)
    80002054:	eca6                	sd	s1,88(sp)
    80002056:	e8ca                	sd	s2,80(sp)
    80002058:	e4ce                	sd	s3,72(sp)
    8000205a:	e0d2                	sd	s4,64(sp)
    8000205c:	fc56                	sd	s5,56(sp)
    8000205e:	f85a                	sd	s6,48(sp)
    80002060:	f45e                	sd	s7,40(sp)
    80002062:	ec66                	sd	s9,24(sp)
    80002064:	f486                	sd	ra,104(sp)
    80002066:	8311                	srli	a4,a4,0x4
    80002068:	81010113          	addi	sp,sp,-2032
    8000206c:	fff7c793          	not	a5,a5
    80002070:	800c0c13          	addi	s8,s8,-2048 # 800 <buflen.0+0x7c0>
    80002074:	868a                	mv	a3,sp
    80002076:	8aae                	mv	s5,a1
    80002078:	8b32                	mv	s6,a2
    8000207a:	ff4d0a13          	addi	s4,s10,-12
    8000207e:	ffcd0993          	addi	s3,s10,-4
    80002082:	01068913          	addi	s2,a3,16
    80002086:	9c36                	add	s8,s8,a3
    80002088:	8bae                	mv	s7,a1
    8000208a:	4c81                	li	s9,0
    8000208c:	00170493          	addi	s1,a4,1
    80002090:	ff07f413          	andi	s0,a5,-16
    80002094:	6605                	lui	a2,0x1
    80002096:	4581                	li	a1,0
    80002098:	8536                	mv	a0,a3
    8000209a:	80060613          	addi	a2,a2,-2048 # 800 <buflen.0+0x7c0>
    8000209e:	708000ef          	jal	ra,800027a6 <memset>
    800020a2:	014b8833          	add	a6,s7,s4
    800020a6:	86aa                	mv	a3,a0
    800020a8:	85de                	mv	a1,s7
    800020aa:	000c851b          	sext.w	a0,s9
    800020ae:	875e                	mv	a4,s7
    800020b0:	070bf563          	bgeu	s7,a6,8000211a <sort+0xdc>
    800020b4:	0005a883          	lw	a7,0(a1)
    800020b8:	41d0                	lw	a2,4(a1)
    800020ba:	4598                	lw	a4,8(a1)
    800020bc:	00a8d8bb          	srlw	a7,a7,a0
    800020c0:	0ff8f893          	zext.b	a7,a7
    800020c4:	088e                	slli	a7,a7,0x3
    800020c6:	98b6                	add	a7,a7,a3
    800020c8:	0008b303          	ld	t1,0(a7)
    800020cc:	00a6563b          	srlw	a2,a2,a0
    800020d0:	0ff67613          	zext.b	a2,a2
    800020d4:	0305                	addi	t1,t1,1
    800020d6:	060e                	slli	a2,a2,0x3
    800020d8:	45dc                	lw	a5,12(a1)
    800020da:	9636                	add	a2,a2,a3
    800020dc:	0068b023          	sd	t1,0(a7)
    800020e0:	00063883          	ld	a7,0(a2)
    800020e4:	00a7573b          	srlw	a4,a4,a0
    800020e8:	0ff77713          	zext.b	a4,a4
    800020ec:	0885                	addi	a7,a7,1
    800020ee:	070e                	slli	a4,a4,0x3
    800020f0:	01163023          	sd	a7,0(a2)
    800020f4:	9736                	add	a4,a4,a3
    800020f6:	6310                	ld	a2,0(a4)
    800020f8:	00a7d7bb          	srlw	a5,a5,a0
    800020fc:	0ff7f793          	zext.b	a5,a5
    80002100:	0605                	addi	a2,a2,1
    80002102:	078e                	slli	a5,a5,0x3
    80002104:	e310                	sd	a2,0(a4)
    80002106:	97b6                	add	a5,a5,a3
    80002108:	6398                	ld	a4,0(a5)
    8000210a:	05c1                	addi	a1,a1,16
    8000210c:	0705                	addi	a4,a4,1
    8000210e:	e398                	sd	a4,0(a5)
    80002110:	fb05e2e3          	bltu	a1,a6,800020b4 <sort+0x76>
    80002114:	00449713          	slli	a4,s1,0x4
    80002118:	975e                	add	a4,a4,s7
    8000211a:	01ab85b3          	add	a1,s7,s10
    8000211e:	000c851b          	sext.w	a0,s9
    80002122:	00b77f63          	bgeu	a4,a1,80002140 <sort+0x102>
    80002126:	431c                	lw	a5,0(a4)
    80002128:	0711                	addi	a4,a4,4
    8000212a:	00a7d7bb          	srlw	a5,a5,a0
    8000212e:	0ff7f793          	zext.b	a5,a5
    80002132:	078e                	slli	a5,a5,0x3
    80002134:	97b6                	add	a5,a5,a3
    80002136:	6390                	ld	a2,0(a5)
    80002138:	0605                	addi	a2,a2,1
    8000213a:	e390                	sd	a2,0(a5)
    8000213c:	feb765e3          	bltu	a4,a1,80002126 <sort+0xe8>
    80002140:	6690                	ld	a2,8(a3)
    80002142:	6298                	ld	a4,0(a3)
    80002144:	87ca                	mv	a5,s2
    80002146:	963a                	add	a2,a2,a4
    80002148:	e690                	sd	a2,8(a3)
    8000214a:	6398                	ld	a4,0(a5)
    8000214c:	678c                	ld	a1,8(a5)
    8000214e:	07c1                	addi	a5,a5,16
    80002150:	9732                	add	a4,a4,a2
    80002152:	00b70633          	add	a2,a4,a1
    80002156:	fee7b823          	sd	a4,-16(a5)
    8000215a:	fec7bc23          	sd	a2,-8(a5)
    8000215e:	ff8796e3          	bne	a5,s8,8000214a <sort+0x10c>
    80002162:	013b8833          	add	a6,s7,s3
    80002166:	00cb8893          	addi	a7,s7,12
    8000216a:	0b186063          	bltu	a6,a7,8000220a <sort+0x1cc>
    8000216e:	000c859b          	sext.w	a1,s9
    80002172:	8642                	mv	a2,a6
    80002174:	00062e03          	lw	t3,0(a2)
    80002178:	ffc62303          	lw	t1,-4(a2)
    8000217c:	ff862503          	lw	a0,-8(a2)
    80002180:	00be573b          	srlw	a4,t3,a1
    80002184:	0ff77713          	zext.b	a4,a4
    80002188:	070e                	slli	a4,a4,0x3
    8000218a:	9736                	add	a4,a4,a3
    8000218c:	00073f83          	ld	t6,0(a4)
    80002190:	00b357bb          	srlw	a5,t1,a1
    80002194:	0ff7f793          	zext.b	a5,a5
    80002198:	ffff8f13          	addi	t5,t6,-1
    8000219c:	078e                	slli	a5,a5,0x3
    8000219e:	ff462e83          	lw	t4,-12(a2)
    800021a2:	97b6                	add	a5,a5,a3
    800021a4:	01e73023          	sd	t5,0(a4)
    800021a8:	0007b283          	ld	t0,0(a5)
    800021ac:	00b5573b          	srlw	a4,a0,a1
    800021b0:	0ff77713          	zext.b	a4,a4
    800021b4:	fff28f13          	addi	t5,t0,-1
    800021b8:	070e                	slli	a4,a4,0x3
    800021ba:	01e7b023          	sd	t5,0(a5)
    800021be:	9736                	add	a4,a4,a3
    800021c0:	00073f03          	ld	t5,0(a4)
    800021c4:	00bed7bb          	srlw	a5,t4,a1
    800021c8:	0ff7f793          	zext.b	a5,a5
    800021cc:	ffff0393          	addi	t2,t5,-1
    800021d0:	078e                	slli	a5,a5,0x3
    800021d2:	00773023          	sd	t2,0(a4)
    800021d6:	97b6                	add	a5,a5,a3
    800021d8:	6398                	ld	a4,0(a5)
    800021da:	0f8a                	slli	t6,t6,0x2
    800021dc:	9fda                	add	t6,t6,s6
    800021de:	fff70393          	addi	t2,a4,-1
    800021e2:	0077b023          	sd	t2,0(a5)
    800021e6:	028a                	slli	t0,t0,0x2
    800021e8:	ffcfae23          	sw	t3,-4(t6)
    800021ec:	92da                	add	t0,t0,s6
    800021ee:	0f0a                	slli	t5,t5,0x2
    800021f0:	fe62ae23          	sw	t1,-4(t0)
    800021f4:	9f5a                	add	t5,t5,s6
    800021f6:	070a                	slli	a4,a4,0x2
    800021f8:	feaf2e23          	sw	a0,-4(t5)
    800021fc:	975a                	add	a4,a4,s6
    800021fe:	ffd72e23          	sw	t4,-4(a4)
    80002202:	1641                	addi	a2,a2,-16
    80002204:	f71678e3          	bgeu	a2,a7,80002174 <sort+0x136>
    80002208:	9822                	add	a6,a6,s0
    8000220a:	000c851b          	sext.w	a0,s9
    8000220e:	03786563          	bltu	a6,s7,80002238 <sort+0x1fa>
    80002212:	00082583          	lw	a1,0(a6)
    80002216:	1871                	addi	a6,a6,-4
    80002218:	00a5d7bb          	srlw	a5,a1,a0
    8000221c:	0ff7f793          	zext.b	a5,a5
    80002220:	078e                	slli	a5,a5,0x3
    80002222:	97b6                	add	a5,a5,a3
    80002224:	6398                	ld	a4,0(a5)
    80002226:	177d                	addi	a4,a4,-1
    80002228:	00271613          	slli	a2,a4,0x2
    8000222c:	e398                	sd	a4,0(a5)
    8000222e:	00cb07b3          	add	a5,s6,a2
    80002232:	c38c                	sw	a1,0(a5)
    80002234:	fd787fe3          	bgeu	a6,s7,80002212 <sort+0x1d4>
    80002238:	0ca1                	addi	s9,s9,8
    8000223a:	02000793          	li	a5,32
    8000223e:	00fc8663          	beq	s9,a5,8000224a <sort+0x20c>
    80002242:	87de                	mv	a5,s7
    80002244:	8bda                	mv	s7,s6
    80002246:	8b3e                	mv	s6,a5
    80002248:	b5b1                	j	80002094 <sort+0x56>
    8000224a:	036a8563          	beq	s5,s6,80002274 <sort+0x236>
    8000224e:	7f010113          	addi	sp,sp,2032
    80002252:	70a6                	ld	ra,104(sp)
    80002254:	7406                	ld	s0,96(sp)
    80002256:	64e6                	ld	s1,88(sp)
    80002258:	6946                	ld	s2,80(sp)
    8000225a:	69a6                	ld	s3,72(sp)
    8000225c:	6a06                	ld	s4,64(sp)
    8000225e:	7ae2                	ld	s5,56(sp)
    80002260:	7c02                	ld	s8,32(sp)
    80002262:	6ce2                	ld	s9,24(sp)
    80002264:	866a                	mv	a2,s10
    80002266:	85de                	mv	a1,s7
    80002268:	6d42                	ld	s10,16(sp)
    8000226a:	7ba2                	ld	s7,40(sp)
    8000226c:	855a                	mv	a0,s6
    8000226e:	7b42                	ld	s6,48(sp)
    80002270:	6165                	addi	sp,sp,112
    80002272:	a9d5                	j	80002766 <memcpy>
    80002274:	7f010113          	addi	sp,sp,2032
    80002278:	70a6                	ld	ra,104(sp)
    8000227a:	7406                	ld	s0,96(sp)
    8000227c:	64e6                	ld	s1,88(sp)
    8000227e:	6946                	ld	s2,80(sp)
    80002280:	69a6                	ld	s3,72(sp)
    80002282:	6a06                	ld	s4,64(sp)
    80002284:	7ae2                	ld	s5,56(sp)
    80002286:	7b42                	ld	s6,48(sp)
    80002288:	7ba2                	ld	s7,40(sp)
    8000228a:	7c02                	ld	s8,32(sp)
    8000228c:	6ce2                	ld	s9,24(sp)
    8000228e:	6d42                	ld	s10,16(sp)
    80002290:	6165                	addi	sp,sp,112
    80002292:	8082                	ret

0000000080002294 <vprintfmt>:
    80002294:	710d                	addi	sp,sp,-352
    80002296:	eaa2                	sd	s0,336(sp)
    80002298:	e6a6                	sd	s1,328(sp)
    8000229a:	e2ca                	sd	s2,320(sp)
    8000229c:	f656                	sd	s5,296(sp)
    8000229e:	f25a                	sd	s6,288(sp)
    800022a0:	ee5e                	sd	s7,280(sp)
    800022a2:	ee86                	sd	ra,344(sp)
    800022a4:	fe4e                	sd	s3,312(sp)
    800022a6:	fa52                	sd	s4,304(sp)
    800022a8:	ea62                	sd	s8,272(sp)
    800022aa:	e666                	sd	s9,264(sp)
    800022ac:	e26a                	sd	s10,256(sp)
    800022ae:	892a                	mv	s2,a0
    800022b0:	84ae                	mv	s1,a1
    800022b2:	8432                	mv	s0,a2
    800022b4:	8b36                	mv	s6,a3
    800022b6:	02500a93          	li	s5,37
    800022ba:	00000b97          	auipc	s7,0x0
    800022be:	7b2b8b93          	addi	s7,s7,1970 # 80002a6c <main+0xce>
    800022c2:	a029                	j	800022cc <vprintfmt+0x38>
    800022c4:	c131                	beqz	a0,80002308 <vprintfmt+0x74>
    800022c6:	85a6                	mv	a1,s1
    800022c8:	0405                	addi	s0,s0,1
    800022ca:	9902                	jalr	s2
    800022cc:	00044503          	lbu	a0,0(s0)
    800022d0:	ff551ae3          	bne	a0,s5,800022c4 <vprintfmt+0x30>
    800022d4:	00144683          	lbu	a3,1(s0)
    800022d8:	00140a13          	addi	s4,s0,1
    800022dc:	8752                	mv	a4,s4
    800022de:	02000c93          	li	s9,32
    800022e2:	59fd                	li	s3,-1
    800022e4:	5d7d                	li	s10,-1
    800022e6:	4501                	li	a0,0
    800022e8:	05500613          	li	a2,85
    800022ec:	45a5                	li	a1,9
    800022ee:	fdd6879b          	addiw	a5,a3,-35
    800022f2:	0ff7f793          	zext.b	a5,a5
    800022f6:	00170413          	addi	s0,a4,1
    800022fa:	04f66163          	bltu	a2,a5,8000233c <vprintfmt+0xa8>
    800022fe:	078a                	slli	a5,a5,0x2
    80002300:	97de                	add	a5,a5,s7
    80002302:	439c                	lw	a5,0(a5)
    80002304:	97de                	add	a5,a5,s7
    80002306:	8782                	jr	a5
    80002308:	60f6                	ld	ra,344(sp)
    8000230a:	6456                	ld	s0,336(sp)
    8000230c:	64b6                	ld	s1,328(sp)
    8000230e:	6916                	ld	s2,320(sp)
    80002310:	79f2                	ld	s3,312(sp)
    80002312:	7a52                	ld	s4,304(sp)
    80002314:	7ab2                	ld	s5,296(sp)
    80002316:	7b12                	ld	s6,288(sp)
    80002318:	6bf2                	ld	s7,280(sp)
    8000231a:	6c52                	ld	s8,272(sp)
    8000231c:	6cb2                	ld	s9,264(sp)
    8000231e:	6d12                	ld	s10,256(sp)
    80002320:	6135                	addi	sp,sp,352
    80002322:	8082                	ret
    80002324:	8cb6                	mv	s9,a3
    80002326:	00174683          	lbu	a3,1(a4)
    8000232a:	8722                	mv	a4,s0
    8000232c:	00170413          	addi	s0,a4,1
    80002330:	fdd6879b          	addiw	a5,a3,-35
    80002334:	0ff7f793          	zext.b	a5,a5
    80002338:	fcf673e3          	bgeu	a2,a5,800022fe <vprintfmt+0x6a>
    8000233c:	85a6                	mv	a1,s1
    8000233e:	02500513          	li	a0,37
    80002342:	9902                	jalr	s2
    80002344:	8452                	mv	s0,s4
    80002346:	b759                	j	800022cc <vprintfmt+0x38>
    80002348:	fd06899b          	addiw	s3,a3,-48
    8000234c:	00174683          	lbu	a3,1(a4)
    80002350:	8722                	mv	a4,s0
    80002352:	fd06879b          	addiw	a5,a3,-48
    80002356:	0006881b          	sext.w	a6,a3
    8000235a:	02f5e563          	bltu	a1,a5,80002384 <vprintfmt+0xf0>
    8000235e:	00174683          	lbu	a3,1(a4)
    80002362:	0029979b          	slliw	a5,s3,0x2
    80002366:	013787bb          	addw	a5,a5,s3
    8000236a:	0017979b          	slliw	a5,a5,0x1
    8000236e:	010787bb          	addw	a5,a5,a6
    80002372:	fd06889b          	addiw	a7,a3,-48
    80002376:	0705                	addi	a4,a4,1
    80002378:	fd07899b          	addiw	s3,a5,-48
    8000237c:	0006881b          	sext.w	a6,a3
    80002380:	fd15ffe3          	bgeu	a1,a7,8000235e <vprintfmt+0xca>
    80002384:	f60d55e3          	bgez	s10,800022ee <vprintfmt+0x5a>
    80002388:	8d4e                	mv	s10,s3
    8000238a:	59fd                	li	s3,-1
    8000238c:	b78d                	j	800022ee <vprintfmt+0x5a>
    8000238e:	00174683          	lbu	a3,1(a4)
    80002392:	8722                	mv	a4,s0
    80002394:	bfa9                	j	800022ee <vprintfmt+0x5a>
    80002396:	85a6                	mv	a1,s1
    80002398:	02500513          	li	a0,37
    8000239c:	9902                	jalr	s2
    8000239e:	b73d                	j	800022cc <vprintfmt+0x38>
    800023a0:	000b2983          	lw	s3,0(s6)
    800023a4:	00174683          	lbu	a3,1(a4)
    800023a8:	0b21                	addi	s6,s6,8
    800023aa:	8722                	mv	a4,s0
    800023ac:	bfe1                	j	80002384 <vprintfmt+0xf0>
    800023ae:	03000513          	li	a0,48
    800023b2:	85a6                	mv	a1,s1
    800023b4:	9902                	jalr	s2
    800023b6:	85a6                	mv	a1,s1
    800023b8:	07800513          	li	a0,120
    800023bc:	9902                	jalr	s2
    800023be:	4741                	li	a4,16
    800023c0:	008b0693          	addi	a3,s6,8
    800023c4:	000b3783          	ld	a5,0(s6)
    800023c8:	8b36                	mv	s6,a3
    800023ca:	02e7f9b3          	remu	s3,a5,a4
    800023ce:	2c81                	sext.w	s9,s9
    800023d0:	0054                	addi	a3,sp,4
    800023d2:	4c05                	li	s8,1
    800023d4:	c04e                	sw	s3,0(sp)
    800023d6:	14e7e463          	bltu	a5,a4,8000251e <vprintfmt+0x28a>
    800023da:	02e7d7b3          	divu	a5,a5,a4
    800023de:	0691                	addi	a3,a3,4
    800023e0:	8a62                	mv	s4,s8
    800023e2:	2c05                	addiw	s8,s8,1
    800023e4:	02e7f9b3          	remu	s3,a5,a4
    800023e8:	ff36ae23          	sw	s3,-4(a3)
    800023ec:	fee7f7e3          	bgeu	a5,a4,800023da <vprintfmt+0x146>
    800023f0:	01ac5963          	bge	s8,s10,80002402 <vprintfmt+0x16e>
    800023f4:	2d01                	sext.w	s10,s10
    800023f6:	3d7d                	addiw	s10,s10,-1
    800023f8:	85a6                	mv	a1,s1
    800023fa:	8566                	mv	a0,s9
    800023fc:	9902                	jalr	s2
    800023fe:	ffac4ce3          	blt	s8,s10,800023f6 <vprintfmt+0x162>
    80002402:	0a0a                	slli	s4,s4,0x2
    80002404:	9a0a                	add	s4,s4,sp
    80002406:	8c8a                	mv	s9,sp
    80002408:	4c25                	li	s8,9
    8000240a:	a021                	j	80002412 <vprintfmt+0x17e>
    8000240c:	ffca2983          	lw	s3,-4(s4)
    80002410:	1a71                	addi	s4,s4,-4
    80002412:	05700513          	li	a0,87
    80002416:	013c6463          	bltu	s8,s3,8000241e <vprintfmt+0x18a>
    8000241a:	03000513          	li	a0,48
    8000241e:	85a6                	mv	a1,s1
    80002420:	0135053b          	addw	a0,a0,s3
    80002424:	9902                	jalr	s2
    80002426:	ff9a13e3          	bne	s4,s9,8000240c <vprintfmt+0x178>
    8000242a:	b54d                	j	800022cc <vprintfmt+0x38>
    8000242c:	4785                	li	a5,1
    8000242e:	008b0a13          	addi	s4,s6,8
    80002432:	00a7c363          	blt	a5,a0,80002438 <vprintfmt+0x1a4>
    80002436:	c965                	beqz	a0,80002526 <vprintfmt+0x292>
    80002438:	000b3983          	ld	s3,0(s6)
    8000243c:	0e09cc63          	bltz	s3,80002534 <vprintfmt+0x2a0>
    80002440:	87ce                	mv	a5,s3
    80002442:	8b52                	mv	s6,s4
    80002444:	4729                	li	a4,10
    80002446:	b751                	j	800023ca <vprintfmt+0x136>
    80002448:	00174683          	lbu	a3,1(a4)
    8000244c:	2505                	addiw	a0,a0,1
    8000244e:	8722                	mv	a4,s0
    80002450:	bd79                	j	800022ee <vprintfmt+0x5a>
    80002452:	4741                	li	a4,16
    80002454:	4785                	li	a5,1
    80002456:	008b0693          	addi	a3,s6,8
    8000245a:	f6a7c5e3          	blt	a5,a0,800023c4 <vprintfmt+0x130>
    8000245e:	f13d                	bnez	a0,800023c4 <vprintfmt+0x130>
    80002460:	000b6783          	lwu	a5,0(s6)
    80002464:	8b36                	mv	s6,a3
    80002466:	b795                	j	800023ca <vprintfmt+0x136>
    80002468:	000b3a03          	ld	s4,0(s6)
    8000246c:	0b21                	addi	s6,s6,8
    8000246e:	0c0a0c63          	beqz	s4,80002546 <vprintfmt+0x2b2>
    80002472:	07a05f63          	blez	s10,800024f0 <vprintfmt+0x25c>
    80002476:	02d00793          	li	a5,45
    8000247a:	04fc9063          	bne	s9,a5,800024ba <vprintfmt+0x226>
    8000247e:	000a4503          	lbu	a0,0(s4)
    80002482:	c105                	beqz	a0,800024a2 <vprintfmt+0x20e>
    80002484:	5c7d                	li	s8,-1
    80002486:	0009c563          	bltz	s3,80002490 <vprintfmt+0x1fc>
    8000248a:	39fd                	addiw	s3,s3,-1
    8000248c:	01898963          	beq	s3,s8,8000249e <vprintfmt+0x20a>
    80002490:	85a6                	mv	a1,s1
    80002492:	0a05                	addi	s4,s4,1
    80002494:	9902                	jalr	s2
    80002496:	000a4503          	lbu	a0,0(s4)
    8000249a:	3d7d                	addiw	s10,s10,-1
    8000249c:	f56d                	bnez	a0,80002486 <vprintfmt+0x1f2>
    8000249e:	e3a057e3          	blez	s10,800022cc <vprintfmt+0x38>
    800024a2:	3d7d                	addiw	s10,s10,-1
    800024a4:	85a6                	mv	a1,s1
    800024a6:	02000513          	li	a0,32
    800024aa:	9902                	jalr	s2
    800024ac:	fe0d1be3          	bnez	s10,800024a2 <vprintfmt+0x20e>
    800024b0:	bd31                	j	800022cc <vprintfmt+0x38>
    800024b2:	00000a17          	auipc	s4,0x0
    800024b6:	576a0a13          	addi	s4,s4,1398 # 80002a28 <main+0x8a>
    800024ba:	000d061b          	sext.w	a2,s10
    800024be:	87d2                	mv	a5,s4
    800024c0:	013a06b3          	add	a3,s4,s3
    800024c4:	00099663          	bnez	s3,800024d0 <vprintfmt+0x23c>
    800024c8:	a829                	j	800024e2 <vprintfmt+0x24e>
    800024ca:	0785                	addi	a5,a5,1
    800024cc:	00d78563          	beq	a5,a3,800024d6 <vprintfmt+0x242>
    800024d0:	0007c703          	lbu	a4,0(a5)
    800024d4:	fb7d                	bnez	a4,800024ca <vprintfmt+0x236>
    800024d6:	414787b3          	sub	a5,a5,s4
    800024da:	40f60d3b          	subw	s10,a2,a5
    800024de:	01a05963          	blez	s10,800024f0 <vprintfmt+0x25c>
    800024e2:	2c81                	sext.w	s9,s9
    800024e4:	3d7d                	addiw	s10,s10,-1
    800024e6:	85a6                	mv	a1,s1
    800024e8:	8566                	mv	a0,s9
    800024ea:	9902                	jalr	s2
    800024ec:	fe0d1ce3          	bnez	s10,800024e4 <vprintfmt+0x250>
    800024f0:	000a4503          	lbu	a0,0(s4)
    800024f4:	dc050ce3          	beqz	a0,800022cc <vprintfmt+0x38>
    800024f8:	5c7d                	li	s8,-1
    800024fa:	b771                	j	80002486 <vprintfmt+0x1f2>
    800024fc:	fffd4793          	not	a5,s10
    80002500:	97fd                	srai	a5,a5,0x3f
    80002502:	00fd77b3          	and	a5,s10,a5
    80002506:	00174683          	lbu	a3,1(a4)
    8000250a:	00078d1b          	sext.w	s10,a5
    8000250e:	8722                	mv	a4,s0
    80002510:	bbf9                	j	800022ee <vprintfmt+0x5a>
    80002512:	000b2503          	lw	a0,0(s6)
    80002516:	85a6                	mv	a1,s1
    80002518:	0b21                	addi	s6,s6,8
    8000251a:	9902                	jalr	s2
    8000251c:	bb45                	j	800022cc <vprintfmt+0x38>
    8000251e:	4a01                	li	s4,0
    80002520:	edac4ae3          	blt	s8,s10,800023f4 <vprintfmt+0x160>
    80002524:	bdf9                	j	80002402 <vprintfmt+0x16e>
    80002526:	000b2983          	lw	s3,0(s6)
    8000252a:	bf09                	j	8000243c <vprintfmt+0x1a8>
    8000252c:	4721                	li	a4,8
    8000252e:	b71d                	j	80002454 <vprintfmt+0x1c0>
    80002530:	4729                	li	a4,10
    80002532:	b70d                	j	80002454 <vprintfmt+0x1c0>
    80002534:	85a6                	mv	a1,s1
    80002536:	02d00513          	li	a0,45
    8000253a:	9902                	jalr	s2
    8000253c:	8b52                	mv	s6,s4
    8000253e:	413007b3          	neg	a5,s3
    80002542:	4729                	li	a4,10
    80002544:	b559                	j	800023ca <vprintfmt+0x136>
    80002546:	01a05663          	blez	s10,80002552 <vprintfmt+0x2be>
    8000254a:	02d00793          	li	a5,45
    8000254e:	f6fc92e3          	bne	s9,a5,800024b2 <vprintfmt+0x21e>
    80002552:	00000a17          	auipc	s4,0x0
    80002556:	4d6a0a13          	addi	s4,s4,1238 # 80002a28 <main+0x8a>
    8000255a:	02800513          	li	a0,40
    8000255e:	5c7d                	li	s8,-1
    80002560:	b71d                	j	80002486 <vprintfmt+0x1f2>

0000000080002562 <sprintf_putch>:
    80002562:	619c                	ld	a5,0(a1)
    80002564:	00a78023          	sb	a0,0(a5)
    80002568:	619c                	ld	a5,0(a1)
    8000256a:	0785                	addi	a5,a5,1
    8000256c:	e19c                	sd	a5,0(a1)
    8000256e:	8082                	ret

0000000080002570 <putchar>:
    80002570:	04022803          	lw	a6,64(tp) # 40 <buflen.0>
    80002574:	00020793          	mv	a5,tp
    80002578:	97c2                	add	a5,a5,a6
    8000257a:	7159                	addi	sp,sp,-112
    8000257c:	0018069b          	addiw	a3,a6,1
    80002580:	04d22023          	sw	a3,64(tp) # 40 <buflen.0>
    80002584:	00a78023          	sb	a0,0(a5)
    80002588:	03f10713          	addi	a4,sp,63
    8000258c:	47a9                	li	a5,10
    8000258e:	fc077713          	andi	a4,a4,-64
    80002592:	00f50963          	beq	a0,a5,800025a4 <putchar+0x34>
    80002596:	04000793          	li	a5,64
    8000259a:	00f68563          	beq	a3,a5,800025a4 <putchar+0x34>
    8000259e:	4501                	li	a0,0
    800025a0:	6165                	addi	sp,sp,112
    800025a2:	8082                	ret
    800025a4:	04000793          	li	a5,64
    800025a8:	e31c                	sd	a5,0(a4)
    800025aa:	4785                	li	a5,1
    800025ac:	e71c                	sd	a5,8(a4)
    800025ae:	00020613          	mv	a2,tp
    800025b2:	eb10                	sd	a2,16(a4)
    800025b4:	ef14                	sd	a3,24(a4)
    800025b6:	0ff0000f          	fence
    800025ba:	fffff697          	auipc	a3,0xfffff
    800025be:	a8668693          	addi	a3,a3,-1402 # 80001040 <fromhost>
    800025c2:	fffff797          	auipc	a5,0xfffff
    800025c6:	a2e7bf23          	sd	a4,-1474(a5) # 80001000 <tohost>
    800025ca:	629c                	ld	a5,0(a3)
    800025cc:	dffd                	beqz	a5,800025ca <putchar+0x5a>
    800025ce:	fffff797          	auipc	a5,0xfffff
    800025d2:	a607b923          	sd	zero,-1422(a5) # 80001040 <fromhost>
    800025d6:	0ff0000f          	fence
    800025da:	04022023          	sw	zero,64(tp) # 40 <buflen.0>
    800025de:	631c                	ld	a5,0(a4)
    800025e0:	4501                	li	a0,0
    800025e2:	6165                	addi	sp,sp,112
    800025e4:	8082                	ret

00000000800025e6 <setStats>:
    800025e6:	b0002773          	csrr	a4,mcycle
    800025ea:	00006797          	auipc	a5,0x6
    800025ee:	5de78793          	addi	a5,a5,1502 # 80008bc8 <counters>
    800025f2:	e901                	bnez	a0,80002602 <setStats+0x1c>
    800025f4:	6394                	ld	a3,0(a5)
    800025f6:	00000617          	auipc	a2,0x0
    800025fa:	43a60613          	addi	a2,a2,1082 # 80002a30 <main+0x92>
    800025fe:	eb90                	sd	a2,16(a5)
    80002600:	8f15                	sub	a4,a4,a3
    80002602:	e398                	sd	a4,0(a5)
    80002604:	b0202773          	csrr	a4,minstret
    80002608:	e901                	bnez	a0,80002618 <setStats+0x32>
    8000260a:	6794                	ld	a3,8(a5)
    8000260c:	00000617          	auipc	a2,0x0
    80002610:	42c60613          	addi	a2,a2,1068 # 80002a38 <main+0x9a>
    80002614:	ef90                	sd	a2,24(a5)
    80002616:	8f15                	sub	a4,a4,a3
    80002618:	e798                	sd	a4,8(a5)
    8000261a:	8082                	ret

000000008000261c <tohost_exit>:
    8000261c:	00151793          	slli	a5,a0,0x1
    80002620:	0017e793          	ori	a5,a5,1
    80002624:	fffff717          	auipc	a4,0xfffff
    80002628:	9cf73e23          	sd	a5,-1572(a4) # 80001000 <tohost>
    8000262c:	a001                	j	8000262c <tohost_exit+0x10>

000000008000262e <handle_trap>:
    8000262e:	6785                	lui	a5,0x1
    80002630:	a7378793          	addi	a5,a5,-1421 # a73 <buflen.0+0xa33>
    80002634:	fffff717          	auipc	a4,0xfffff
    80002638:	9cf73623          	sd	a5,-1588(a4) # 80001000 <tohost>
    8000263c:	a001                	j	8000263c <handle_trap+0xe>

000000008000263e <exit>:
    8000263e:	1141                	addi	sp,sp,-16
    80002640:	e406                	sd	ra,8(sp)
    80002642:	fdbff0ef          	jal	ra,8000261c <tohost_exit>

0000000080002646 <abort>:
    80002646:	10d00793          	li	a5,269
    8000264a:	fffff717          	auipc	a4,0xfffff
    8000264e:	9af73b23          	sd	a5,-1610(a4) # 80001000 <tohost>
    80002652:	a001                	j	80002652 <abort+0xc>

0000000080002654 <printstr>:
    80002654:	00054783          	lbu	a5,0(a0)
    80002658:	7159                	addi	sp,sp,-112
    8000265a:	03f10693          	addi	a3,sp,63
    8000265e:	fc06f693          	andi	a3,a3,-64
    80002662:	c3b9                	beqz	a5,800026a8 <printstr+0x54>
    80002664:	87aa                	mv	a5,a0
    80002666:	0017c703          	lbu	a4,1(a5)
    8000266a:	0785                	addi	a5,a5,1
    8000266c:	ff6d                	bnez	a4,80002666 <printstr+0x12>
    8000266e:	8f89                	sub	a5,a5,a0
    80002670:	04000713          	li	a4,64
    80002674:	e298                	sd	a4,0(a3)
    80002676:	4705                	li	a4,1
    80002678:	e698                	sd	a4,8(a3)
    8000267a:	ea88                	sd	a0,16(a3)
    8000267c:	ee9c                	sd	a5,24(a3)
    8000267e:	0ff0000f          	fence
    80002682:	fffff717          	auipc	a4,0xfffff
    80002686:	9be70713          	addi	a4,a4,-1602 # 80001040 <fromhost>
    8000268a:	fffff797          	auipc	a5,0xfffff
    8000268e:	96d7bb23          	sd	a3,-1674(a5) # 80001000 <tohost>
    80002692:	631c                	ld	a5,0(a4)
    80002694:	dffd                	beqz	a5,80002692 <printstr+0x3e>
    80002696:	fffff797          	auipc	a5,0xfffff
    8000269a:	9a07b523          	sd	zero,-1622(a5) # 80001040 <fromhost>
    8000269e:	0ff0000f          	fence
    800026a2:	629c                	ld	a5,0(a3)
    800026a4:	6165                	addi	sp,sp,112
    800026a6:	8082                	ret
    800026a8:	4781                	li	a5,0
    800026aa:	b7d9                	j	80002670 <printstr+0x1c>

00000000800026ac <thread_entry>:
    800026ac:	e101                	bnez	a0,800026ac <thread_entry>
    800026ae:	8082                	ret

00000000800026b0 <printhex>:
    800026b0:	7179                	addi	sp,sp,-48
    800026b2:	87aa                	mv	a5,a0
    800026b4:	f406                	sd	ra,40(sp)
    800026b6:	0028                	addi	a0,sp,8
    800026b8:	01710613          	addi	a2,sp,23
    800026bc:	4825                	li	a6,9
    800026be:	a011                	j	800026c2 <printhex+0x12>
    800026c0:	863a                	mv	a2,a4
    800026c2:	00f7f693          	andi	a3,a5,15
    800026c6:	8736                	mv	a4,a3
    800026c8:	03000593          	li	a1,48
    800026cc:	00d87463          	bgeu	a6,a3,800026d4 <printhex+0x24>
    800026d0:	05700593          	li	a1,87
    800026d4:	9f2d                	addw	a4,a4,a1
    800026d6:	00e60023          	sb	a4,0(a2)
    800026da:	8391                	srli	a5,a5,0x4
    800026dc:	fff60713          	addi	a4,a2,-1
    800026e0:	fec510e3          	bne	a0,a2,800026c0 <printhex+0x10>
    800026e4:	00010c23          	sb	zero,24(sp)
    800026e8:	f6dff0ef          	jal	ra,80002654 <printstr>
    800026ec:	70a2                	ld	ra,40(sp)
    800026ee:	6145                	addi	sp,sp,48
    800026f0:	8082                	ret

00000000800026f2 <printf>:
    800026f2:	711d                	addi	sp,sp,-96
    800026f4:	02810313          	addi	t1,sp,40
    800026f8:	8e2a                	mv	t3,a0
    800026fa:	f42e                	sd	a1,40(sp)
    800026fc:	f832                	sd	a2,48(sp)
    800026fe:	fc36                	sd	a3,56(sp)
    80002700:	00000517          	auipc	a0,0x0
    80002704:	e7050513          	addi	a0,a0,-400 # 80002570 <putchar>
    80002708:	869a                	mv	a3,t1
    8000270a:	8672                	mv	a2,t3
    8000270c:	4581                	li	a1,0
    8000270e:	ec06                	sd	ra,24(sp)
    80002710:	e0ba                	sd	a4,64(sp)
    80002712:	e4be                	sd	a5,72(sp)
    80002714:	e8c2                	sd	a6,80(sp)
    80002716:	ecc6                	sd	a7,88(sp)
    80002718:	e41a                	sd	t1,8(sp)
    8000271a:	b7bff0ef          	jal	ra,80002294 <vprintfmt>
    8000271e:	60e2                	ld	ra,24(sp)
    80002720:	4501                	li	a0,0
    80002722:	6125                	addi	sp,sp,96
    80002724:	8082                	ret

0000000080002726 <sprintf>:
    80002726:	711d                	addi	sp,sp,-96
    80002728:	03010313          	addi	t1,sp,48
    8000272c:	f022                	sd	s0,32(sp)
    8000272e:	e42a                	sd	a0,8(sp)
    80002730:	f832                	sd	a2,48(sp)
    80002732:	fc36                	sd	a3,56(sp)
    80002734:	842a                	mv	s0,a0
    80002736:	862e                	mv	a2,a1
    80002738:	00000517          	auipc	a0,0x0
    8000273c:	e2a50513          	addi	a0,a0,-470 # 80002562 <sprintf_putch>
    80002740:	002c                	addi	a1,sp,8
    80002742:	869a                	mv	a3,t1
    80002744:	f406                	sd	ra,40(sp)
    80002746:	e4be                	sd	a5,72(sp)
    80002748:	e0ba                	sd	a4,64(sp)
    8000274a:	e8c2                	sd	a6,80(sp)
    8000274c:	ecc6                	sd	a7,88(sp)
    8000274e:	ec1a                	sd	t1,24(sp)
    80002750:	b45ff0ef          	jal	ra,80002294 <vprintfmt>
    80002754:	67a2                	ld	a5,8(sp)
    80002756:	00078023          	sb	zero,0(a5)
    8000275a:	6522                	ld	a0,8(sp)
    8000275c:	70a2                	ld	ra,40(sp)
    8000275e:	9d01                	subw	a0,a0,s0
    80002760:	7402                	ld	s0,32(sp)
    80002762:	6125                	addi	sp,sp,96
    80002764:	8082                	ret

0000000080002766 <memcpy>:
    80002766:	00b567b3          	or	a5,a0,a1
    8000276a:	8fd1                	or	a5,a5,a2
    8000276c:	8b9d                	andi	a5,a5,7
    8000276e:	00c506b3          	add	a3,a0,a2
    80002772:	cf91                	beqz	a5,8000278e <memcpy+0x28>
    80002774:	962e                	add	a2,a2,a1
    80002776:	87aa                	mv	a5,a0
    80002778:	02d57663          	bgeu	a0,a3,800027a4 <memcpy+0x3e>
    8000277c:	0005c703          	lbu	a4,0(a1)
    80002780:	0585                	addi	a1,a1,1
    80002782:	0785                	addi	a5,a5,1
    80002784:	fee78fa3          	sb	a4,-1(a5)
    80002788:	feb61ae3          	bne	a2,a1,8000277c <memcpy+0x16>
    8000278c:	8082                	ret
    8000278e:	fed57fe3          	bgeu	a0,a3,8000278c <memcpy+0x26>
    80002792:	87aa                	mv	a5,a0
    80002794:	6198                	ld	a4,0(a1)
    80002796:	07a1                	addi	a5,a5,8
    80002798:	05a1                	addi	a1,a1,8
    8000279a:	fee7bc23          	sd	a4,-8(a5)
    8000279e:	fed7ebe3          	bltu	a5,a3,80002794 <memcpy+0x2e>
    800027a2:	8082                	ret
    800027a4:	8082                	ret

00000000800027a6 <memset>:
    800027a6:	1141                	addi	sp,sp,-16
    800027a8:	00c567b3          	or	a5,a0,a2
    800027ac:	e022                	sd	s0,0(sp)
    800027ae:	e406                	sd	ra,8(sp)
    800027b0:	8b9d                	andi	a5,a5,7
    800027b2:	842a                	mv	s0,a0
    800027b4:	00c506b3          	add	a3,a0,a2
    800027b8:	cf81                	beqz	a5,800027d0 <memset+0x2a>
    800027ba:	00d57663          	bgeu	a0,a3,800027c6 <memset+0x20>
    800027be:	0ff5f593          	zext.b	a1,a1
    800027c2:	fe5ff0ef          	jal	ra,800027a6 <memset>
    800027c6:	60a2                	ld	ra,8(sp)
    800027c8:	8522                	mv	a0,s0
    800027ca:	6402                	ld	s0,0(sp)
    800027cc:	0141                	addi	sp,sp,16
    800027ce:	8082                	ret
    800027d0:	0ff5f593          	zext.b	a1,a1
    800027d4:	00859793          	slli	a5,a1,0x8
    800027d8:	00f5e733          	or	a4,a1,a5
    800027dc:	01071793          	slli	a5,a4,0x10
    800027e0:	8f5d                	or	a4,a4,a5
    800027e2:	02071793          	slli	a5,a4,0x20
    800027e6:	8f5d                	or	a4,a4,a5
    800027e8:	fcd57fe3          	bgeu	a0,a3,800027c6 <memset+0x20>
    800027ec:	87aa                	mv	a5,a0
    800027ee:	07a1                	addi	a5,a5,8
    800027f0:	fee7bc23          	sd	a4,-8(a5)
    800027f4:	fed7ede3          	bltu	a5,a3,800027ee <memset+0x48>
    800027f8:	60a2                	ld	ra,8(sp)
    800027fa:	8522                	mv	a0,s0
    800027fc:	6402                	ld	s0,0(sp)
    800027fe:	0141                	addi	sp,sp,16
    80002800:	8082                	ret

0000000080002802 <_init>:
    80002802:	7171                	addi	sp,sp,-176
    80002804:	00006797          	auipc	a5,0x6
    80002808:	3e478793          	addi	a5,a5,996 # 80008be8 <_tdata_begin>
    8000280c:	e152                	sd	s4,128(sp)
    8000280e:	00006a17          	auipc	s4,0x6
    80002812:	3daa0a13          	addi	s4,s4,986 # 80008be8 <_tdata_begin>
    80002816:	e54e                	sd	s3,136(sp)
    80002818:	40fa09b3          	sub	s3,s4,a5
    8000281c:	ed26                	sd	s1,152(sp)
    8000281e:	e94a                	sd	s2,144(sp)
    80002820:	84aa                	mv	s1,a0
    80002822:	892e                	mv	s2,a1
    80002824:	8512                	mv	a0,tp
    80002826:	85be                	mv	a1,a5
    80002828:	864e                	mv	a2,s3
    8000282a:	f506                	sd	ra,168(sp)
    8000282c:	f122                	sd	s0,160(sp)
    8000282e:	fcd6                	sd	s5,120(sp)
    80002830:	8a92                	mv	s5,tp
    80002832:	f35ff0ef          	jal	ra,80002766 <memcpy>
    80002836:	00006617          	auipc	a2,0x6
    8000283a:	40e60613          	addi	a2,a2,1038 # 80008c44 <_tbss_end>
    8000283e:	41460633          	sub	a2,a2,s4
    80002842:	4581                	li	a1,0
    80002844:	013a8533          	add	a0,s5,s3
    80002848:	f5fff0ef          	jal	ra,800027a6 <memset>
    8000284c:	85ca                	mv	a1,s2
    8000284e:	8526                	mv	a0,s1
    80002850:	e5dff0ef          	jal	ra,800026ac <thread_entry>
    80002854:	4581                	li	a1,0
    80002856:	4501                	li	a0,0
    80002858:	146000ef          	jal	ra,8000299e <main>
    8000285c:	00006917          	auipc	s2,0x6
    80002860:	36c90913          	addi	s2,s2,876 # 80008bc8 <counters>
    80002864:	00093683          	ld	a3,0(s2)
    80002868:	03f10413          	addi	s0,sp,63
    8000286c:	fc047413          	andi	s0,s0,-64
    80002870:	84aa                	mv	s1,a0
    80002872:	ea85                	bnez	a3,800028a2 <_init+0xa0>
    80002874:	00893683          	ld	a3,8(s2)
    80002878:	e681                	bnez	a3,80002880 <_init+0x7e>
    8000287a:	8526                	mv	a0,s1
    8000287c:	da1ff0ef          	jal	ra,8000261c <tohost_exit>
    80002880:	89a2                	mv	s3,s0
    80002882:	01893603          	ld	a2,24(s2)
    80002886:	854e                	mv	a0,s3
    80002888:	00000597          	auipc	a1,0x0
    8000288c:	1d858593          	addi	a1,a1,472 # 80002a60 <main+0xc2>
    80002890:	e97ff0ef          	jal	ra,80002726 <sprintf>
    80002894:	99aa                	add	s3,s3,a0
    80002896:	ff3402e3          	beq	s0,s3,8000287a <_init+0x78>
    8000289a:	8522                	mv	a0,s0
    8000289c:	db9ff0ef          	jal	ra,80002654 <printstr>
    800028a0:	bfe9                	j	8000287a <_init+0x78>
    800028a2:	01093603          	ld	a2,16(s2)
    800028a6:	00000597          	auipc	a1,0x0
    800028aa:	1ba58593          	addi	a1,a1,442 # 80002a60 <main+0xc2>
    800028ae:	8522                	mv	a0,s0
    800028b0:	e77ff0ef          	jal	ra,80002726 <sprintf>
    800028b4:	00893683          	ld	a3,8(s2)
    800028b8:	00a409b3          	add	s3,s0,a0
    800028bc:	dee9                	beqz	a3,80002896 <_init+0x94>
    800028be:	b7d1                	j	80002882 <_init+0x80>

00000000800028c0 <strlen>:
    800028c0:	00054783          	lbu	a5,0(a0)
    800028c4:	cb89                	beqz	a5,800028d6 <strlen+0x16>
    800028c6:	87aa                	mv	a5,a0
    800028c8:	0017c703          	lbu	a4,1(a5)
    800028cc:	0785                	addi	a5,a5,1
    800028ce:	ff6d                	bnez	a4,800028c8 <strlen+0x8>
    800028d0:	40a78533          	sub	a0,a5,a0
    800028d4:	8082                	ret
    800028d6:	4501                	li	a0,0
    800028d8:	8082                	ret

00000000800028da <strnlen>:
    800028da:	00b506b3          	add	a3,a0,a1
    800028de:	87aa                	mv	a5,a0
    800028e0:	e589                	bnez	a1,800028ea <strnlen+0x10>
    800028e2:	a829                	j	800028fc <strnlen+0x22>
    800028e4:	0785                	addi	a5,a5,1
    800028e6:	00f68863          	beq	a3,a5,800028f6 <strnlen+0x1c>
    800028ea:	0007c703          	lbu	a4,0(a5)
    800028ee:	fb7d                	bnez	a4,800028e4 <strnlen+0xa>
    800028f0:	40a78533          	sub	a0,a5,a0
    800028f4:	8082                	ret
    800028f6:	40a68533          	sub	a0,a3,a0
    800028fa:	8082                	ret
    800028fc:	4501                	li	a0,0
    800028fe:	8082                	ret

0000000080002900 <strcmp>:
    80002900:	00054783          	lbu	a5,0(a0)
    80002904:	0585                	addi	a1,a1,1
    80002906:	0505                	addi	a0,a0,1
    80002908:	fff5c703          	lbu	a4,-1(a1)
    8000290c:	c799                	beqz	a5,8000291a <strcmp+0x1a>
    8000290e:	fee789e3          	beq	a5,a4,80002900 <strcmp>
    80002912:	0007851b          	sext.w	a0,a5
    80002916:	9d19                	subw	a0,a0,a4
    80002918:	8082                	ret
    8000291a:	4501                	li	a0,0
    8000291c:	bfed                	j	80002916 <strcmp+0x16>

000000008000291e <strcpy>:
    8000291e:	87aa                	mv	a5,a0
    80002920:	0005c703          	lbu	a4,0(a1)
    80002924:	0785                	addi	a5,a5,1
    80002926:	0585                	addi	a1,a1,1
    80002928:	fee78fa3          	sb	a4,-1(a5)
    8000292c:	fb75                	bnez	a4,80002920 <strcpy+0x2>
    8000292e:	8082                	ret

0000000080002930 <atol>:
    80002930:	00054703          	lbu	a4,0(a0)
    80002934:	02000693          	li	a3,32
    80002938:	87aa                	mv	a5,a0
    8000293a:	00d71763          	bne	a4,a3,80002948 <atol+0x18>
    8000293e:	0017c703          	lbu	a4,1(a5)
    80002942:	0785                	addi	a5,a5,1
    80002944:	fed70de3          	beq	a4,a3,8000293e <atol+0xe>
    80002948:	02d00693          	li	a3,45
    8000294c:	04d70263          	beq	a4,a3,80002990 <atol+0x60>
    80002950:	02b00693          	li	a3,43
    80002954:	02d70763          	beq	a4,a3,80002982 <atol+0x52>
    80002958:	0007c683          	lbu	a3,0(a5)
    8000295c:	4581                	li	a1,0
    8000295e:	c69d                	beqz	a3,8000298c <atol+0x5c>
    80002960:	4501                	li	a0,0
    80002962:	0785                	addi	a5,a5,1
    80002964:	00251713          	slli	a4,a0,0x2
    80002968:	fd06861b          	addiw	a2,a3,-48
    8000296c:	0007c683          	lbu	a3,0(a5)
    80002970:	972a                	add	a4,a4,a0
    80002972:	0706                	slli	a4,a4,0x1
    80002974:	00e60533          	add	a0,a2,a4
    80002978:	f6ed                	bnez	a3,80002962 <atol+0x32>
    8000297a:	c991                	beqz	a1,8000298e <atol+0x5e>
    8000297c:	40a00533          	neg	a0,a0
    80002980:	8082                	ret
    80002982:	0017c683          	lbu	a3,1(a5)
    80002986:	4581                	li	a1,0
    80002988:	0785                	addi	a5,a5,1
    8000298a:	faf9                	bnez	a3,80002960 <atol+0x30>
    8000298c:	4501                	li	a0,0
    8000298e:	8082                	ret
    80002990:	0017c683          	lbu	a3,1(a5)
    80002994:	4585                	li	a1,1
    80002996:	0785                	addi	a5,a5,1
    80002998:	f6e1                	bnez	a3,80002960 <atol+0x30>
    8000299a:	4501                	li	a0,0
    8000299c:	bfcd                	j	8000298e <atol+0x5e>

Disassembly of section .text.startup:

000000008000299e <main>:
    8000299e:	1141                	addi	sp,sp,-16
    800029a0:	e022                	sd	s0,0(sp)
    800029a2:	6405                	lui	s0,0x1
    800029a4:	80040513          	addi	a0,s0,-2048 # 800 <buflen.0+0x7c0>
    800029a8:	00004617          	auipc	a2,0x4
    800029ac:	22060613          	addi	a2,a2,544 # 80006bc8 <scratch.0>
    800029b0:	00000597          	auipc	a1,0x0
    800029b4:	21858593          	addi	a1,a1,536 # 80002bc8 <verify_data>
    800029b8:	e406                	sd	ra,8(sp)
    800029ba:	e84ff0ef          	jal	ra,8000203e <sort>
    800029be:	00002517          	auipc	a0,0x2
    800029c2:	20a50513          	addi	a0,a0,522 # 80004bc8 <input_data>
    800029c6:	e3aff0ef          	jal	ra,80002000 <verify.constprop.0>
    800029ca:	c511                	beqz	a0,800029d6 <main+0x38>
    800029cc:	60a2                	ld	ra,8(sp)
    800029ce:	6402                	ld	s0,0(sp)
    800029d0:	4505                	li	a0,1
    800029d2:	0141                	addi	sp,sp,16
    800029d4:	8082                	ret
    800029d6:	4505                	li	a0,1
    800029d8:	c0fff0ef          	jal	ra,800025e6 <setStats>
    800029dc:	80040513          	addi	a0,s0,-2048
    800029e0:	00004617          	auipc	a2,0x4
    800029e4:	1e860613          	addi	a2,a2,488 # 80006bc8 <scratch.0>
    800029e8:	00002597          	auipc	a1,0x2
    800029ec:	1e058593          	addi	a1,a1,480 # 80004bc8 <input_data>
    800029f0:	e4eff0ef          	jal	ra,8000203e <sort>
    800029f4:	4501                	li	a0,0
    800029f6:	bf1ff0ef          	jal	ra,800025e6 <setStats>
    800029fa:	6402                	ld	s0,0(sp)
    800029fc:	60a2                	ld	ra,8(sp)
    800029fe:	00000517          	auipc	a0,0x0
    80002a02:	1ca50513          	addi	a0,a0,458 # 80002bc8 <verify_data>
    80002a06:	0141                	addi	sp,sp,16
    80002a08:	df8ff06f          	j	80002000 <verify.constprop.0>
    80002a0c:	1141                	addi	sp,sp,-16
    80002a0e:	00000517          	auipc	a0,0x0
    80002a12:	03a50513          	addi	a0,a0,58 # 80002a48 <main+0xaa>
    80002a16:	e406                	sd	ra,8(sp)
    80002a18:	c3dff0ef          	jal	ra,80002654 <printstr>
    80002a1c:	60a2                	ld	ra,8(sp)
    80002a1e:	557d                	li	a0,-1
    80002a20:	0141                	addi	sp,sp,16
    80002a22:	8082                	ret

Disassembly of section .data:

0000000080002bc8 <verify_data>:
    80002bc8:	000a8b27          	.4byte	0xa8b27
    80002bcc:	bef4                	fsd	fa3,248(a3)
    80002bce:	000d                	c.nop	3
    80002bd0:	83c4                	.2byte	0x83c4
    80002bd2:	0021                	c.nop	8
    80002bd4:	9b62                	add	s6,s6,s8
    80002bd6:	0026                	c.slli	zero,0x9
    80002bd8:	0030356f          	jal	a0,800063da <input_data+0x1812>
    80002bdc:	be92                	fsd	ft4,376(sp)
    80002bde:	0035                	c.nop	13
    80002be0:	0039e5ef          	jal	a1,800a13e2 <_tbss_end+0x9879e>
    80002be4:	82bc                	.2byte	0x82bc
    80002be6:	003d                	c.nop	15
    80002be8:	02d6                	slli	t0,t0,0x15
    80002bea:	0051                	c.nop	20
    80002bec:	d704                	sw	s1,40(a4)
    80002bee:	0051                	c.nop	20
    80002bf0:	00949033          	sll	zero,s1,s1
    80002bf4:	1df9                	addi	s11,s11,-2
    80002bf6:	779600af          	.4byte	0x779600af
    80002bfa:	00c2                	slli	ra,ra,0x10
    80002bfc:	1040                	addi	s0,sp,36
    80002bfe:	00c4                	addi	s1,sp,68
    80002c00:	00c56a53          	fadd.s	fs4,fa0,fa2,unknown
    80002c04:	1f1d                	addi	t5,t5,-25
    80002c06:	00c9                	addi	ra,ra,18
    80002c08:	00d3e7bb          	.4byte	0xd3e7bb
    80002c0c:	8b4c                	.2byte	0x8b4c
    80002c0e:	459500d7          	.4byte	0x459500d7
    80002c12:	00d9                	addi	ra,ra,22
    80002c14:	6bd8                	ld	a4,144(a5)
    80002c16:	00fa                	slli	ra,ra,0x1e
    80002c18:	0125630f          	.4byte	0x125630f
    80002c1c:	ffb9                	bnez	a5,80002b7a <main+0x1dc>
    80002c1e:	013a                	slli	sp,sp,0xe
    80002c20:	d932                	sw	a2,176(sp)
    80002c22:	0144                	addi	s1,sp,132
    80002c24:	c7f5                	beqz	a5,80002d10 <verify_data+0x148>
    80002c26:	0151                	addi	sp,sp,20
    80002c28:	54ee                	lw	s1,248(sp)
    80002c2a:	5b5b015b          	.4byte	0x5b5b015b
    80002c2e:	00ad0163          	beq	s10,a0,80002c30 <verify_data+0x68>
    80002c32:	0174                	addi	a3,sp,140
    80002c34:	fa95                	bnez	a3,80002b68 <main+0x1ca>
    80002c36:	018a                	slli	gp,gp,0x2
    80002c38:	30b0                	fld	fa2,96(s1)
    80002c3a:	0191                	addi	gp,gp,4 # 800073cc <__global_pointer$+0x4>
    80002c3c:	019736cb          	fnmsub.s	fa3,fa4,fs9,ft0,rup
    80002c40:	befe                	fsd	ft11,376(sp)
    80002c42:	01a1                	addi	gp,gp,8 # 800073d0 <__global_pointer$+0x8>
    80002c44:	9418                	.2byte	0x9418
    80002c46:	01a4                	addi	s1,sp,200
    80002c48:	2a85                	addiw	s5,s5,1
    80002c4a:	532401af          	.4byte	0x532401af
    80002c4e:	e9c701b7          	lui	gp,0xe9c70
    80002c52:	01d8                	addi	a4,sp,196
    80002c54:	01db5cd7          	.4byte	0x1db5cd7
    80002c58:	c8a5                	beqz	s1,80002cc8 <verify_data+0x100>
    80002c5a:	01e1                	addi	gp,gp,24 # ffffffffe9c70018 <dram_end_address_reg+0xffffffff19c70008>
    80002c5c:	2134                	fld	fa3,64(a0)
    80002c5e:	01e2                	slli	gp,gp,0x18
    80002c60:	2442                	fld	fs0,16(sp)
    80002c62:	021f 2b34 0223      	.byte	0x1f, 0x02, 0x34, 0x2b, 0x23, 0x02
    80002c68:	d6fc                	sw	a5,108(a3)
    80002c6a:	0234                	addi	a3,sp,264
    80002c6c:	bdad                	j	80002ae6 <main+0x148>
    80002c6e:	0236                	slli	tp,tp,0xd
    80002c70:	4c36                	lw	s8,76(sp)
    80002c72:	024d                	addi	tp,tp,19 # 13 <buf.1+0x13>
    80002c74:	8266                	mv	tp,s9
    80002c76:	027c                	addi	a5,sp,268
    80002c78:	31ca                	fld	ft3,176(sp)
    80002c7a:	0281                	addi	t0,t0,0
    80002c7c:	b6de                	fsd	fs7,360(sp)
    80002c7e:	029e                	slli	t0,t0,0x7
    80002c80:	b6a6                	fsd	fs1,360(sp)
    80002c82:	02cd                	addi	t0,t0,19
    80002c84:	127d                	addi	tp,tp,-1
    80002c86:	02d4                	addi	a3,sp,324
    80002c88:	3e02                	fld	ft8,32(sp)
    80002c8a:	02d4                	addi	a3,sp,324
    80002c8c:	02e12ea7          	fsw	fa4,61(sp)
    80002c90:	4258                	lw	a4,4(a2)
    80002c92:	02e8                	addi	a0,sp,332
    80002c94:	03065ce3          	bge	a2,a6,800034cc <verify_data+0x904>
    80002c98:	b802                	fsd	ft0,48(sp)
    80002c9a:	0309                	addi	t1,t1,2
    80002c9c:	c325                	beqz	a4,80002cfc <verify_data+0x134>
    80002c9e:	0314                	addi	a3,sp,384
    80002ca0:	f686                	sd	ra,360(sp)
    80002ca2:	0335                	addi	t1,t1,13
    80002ca4:	472e                	lw	a4,200(sp)
    80002ca6:	034e                	slli	t1,t1,0x13
    80002ca8:	705c                	ld	a5,160(s0)
    80002caa:	55e00377          	.4byte	0x55e00377
    80002cae:	0378                	addi	a4,sp,396
    80002cb0:	2382                	fld	ft7,0(sp)
    80002cb2:	038a                	slli	t2,t2,0x2
    80002cb4:	b6cd                	j	80002896 <_init+0x94>
    80002cb6:	b922039b          	addiw	t2,tp,-1134 # fffffffffffffb92 <dram_end_address_reg+0xffffffff2ffffb82>
    80002cba:	03ad                	addi	t2,t2,11
    80002cbc:	3e1f 03b5 08ea      	.byte	0x1f, 0x3e, 0xb5, 0x03, 0xea, 0x08
    80002cc2:	03c5                	addi	t2,t2,17
    80002cc4:	b410                	fsd	fa2,40(s0)
    80002cc6:	03dc                	addi	a5,sp,452
    80002cc8:	ea69                	bnez	a2,80002d9a <verify_data+0x1d2>
    80002cca:	a10703f7          	.4byte	0xa10703f7
    80002cce:	040e                	slli	s0,s0,0x3
    80002cd0:	aaf4                	fsd	fa3,208(a3)
    80002cd2:	041e                	slli	s0,s0,0x7
    80002cd4:	6f58                	ld	a4,152(a4)
    80002cd6:	042a                	slli	s0,s0,0xa
    80002cd8:	042c2c93          	slti	s9,s8,66
    80002cdc:	c4c2                	sw	a6,72(sp)
    80002cde:	0439                	addi	s0,s0,14
    80002ce0:	82a8                	.2byte	0x82a8
    80002ce2:	e231044f          	fnmadd.d	fs0,ft2,ft3,ft8,rne
    80002ce6:	0456                	slli	s0,s0,0x15
    80002ce8:	f6c6                	sd	a7,360(sp)
    80002cea:	0458                	addi	a4,sp,516
    80002cec:	b2da                	fsd	fs6,352(sp)
    80002cee:	0476                	slli	s0,s0,0x1d
    80002cf0:	7e24                	ld	s1,120(a2)
    80002cf2:	0486                	slli	s1,s1,0x1
    80002cf4:	86b6                	mv	a3,a3
    80002cf6:	0498                	addi	a4,sp,576
    80002cf8:	49b6                	lw	s3,76(sp)
    80002cfa:	049e                	slli	s1,s1,0x7
    80002cfc:	80f2                	mv	ra,t3
    80002cfe:	9c1c04ab          	.4byte	0x9c1c04ab
    80002d02:	04c9                	addi	s1,s1,18
    80002d04:	deea                	sw	s10,124(sp)
    80002d06:	04ca                	slli	s1,s1,0x12
    80002d08:	04d2734b          	.4byte	0x4d2734b
    80002d0c:	04da198b          	.4byte	0x4da198b
    80002d10:	a428                	fsd	fa0,72(s0)
    80002d12:	04f0                	addi	a2,sp,588
    80002d14:	d981                	beqz	a1,80002c24 <verify_data+0x5c>
    80002d16:	3571050f          	.4byte	0x3571050f
    80002d1a:	053d                	addi	a0,a0,15
    80002d1c:	5552                	lw	a0,52(sp)
    80002d1e:	24a4054b          	.4byte	0x24a4054b
    80002d22:	0554                	addi	a3,sp,644
    80002d24:	415f 055e 41a4      	.byte	0x5f, 0x41, 0x5e, 0x05, 0xa4, 0x41
    80002d2a:	f25c056f          	jal	a0,7ffc3c4e <buflen.0+0x7ffc3c0e>
    80002d2e:	057f                	.2byte	0x57f
    80002d30:	058545bf 0588efda 	.8byte	0x588efda058545bf
    80002d38:	058dfb67          	.4byte	0x58dfb67
    80002d3c:	05a5ef07          	.4byte	0x5a5ef07
    80002d40:	1220                	addi	s0,sp,296
    80002d42:	05b5                	addi	a1,a1,13
    80002d44:	6e11                	lui	t3,0x4
    80002d46:	05ee                	slli	a1,a1,0x1b
    80002d48:	a4ed                	j	80003032 <verify_data+0x46a>
    80002d4a:	063c                	addi	a5,sp,776
    80002d4c:	0340                	addi	s0,sp,388
    80002d4e:	063e                	slli	a2,a2,0xf
    80002d50:	091f 0648 d5d4      	.byte	0x1f, 0x09, 0x48, 0x06, 0xd4, 0xd5
    80002d56:	0654                	addi	a3,sp,772
    80002d58:	065a84b7          	lui	s1,0x65a8
    80002d5c:	06622783          	lw	a5,102(tp) # 66 <buflen.0+0x26>
    80002d60:	2422                	fld	fs0,8(sp)
    80002d62:	47c40663          	beq	s0,t3,800031ce <verify_data+0x606>
    80002d66:	0670                	addi	a2,sp,780
    80002d68:	3ad6                	fld	fs5,368(sp)
    80002d6a:	0675                	addi	a2,a2,29
    80002d6c:	417f                	.2byte	0x417f
    80002d6e:	0676                	slli	a2,a2,0x1d
    80002d70:	895f 0679 c100      	.byte	0x5f, 0x89, 0x79, 0x06, 0x00, 0xc1
    80002d76:	067f                	.2byte	0x67f
    80002d78:	3ee4                	fld	fs1,248(a3)
    80002d7a:	86480687          	.4byte	0x86480687
    80002d7e:	06ad                	addi	a3,a3,11
    80002d80:	e19d                	bnez	a1,80002da6 <verify_data+0x1de>
    80002d82:	06b6                	slli	a3,a3,0xd
    80002d84:	06c34b8b          	.4byte	0x6c34b8b
    80002d88:	1870                	addi	a2,sp,60
    80002d8a:	06c5                	addi	a3,a3,17
    80002d8c:	9628                	.2byte	0x9628
    80002d8e:	06ce                	slli	a3,a3,0x13
    80002d90:	02e2                	slli	t0,t0,0x18
    80002d92:	b7c306db          	.4byte	0xb7c306db
    80002d96:	06f5                	addi	a3,a3,29
    80002d98:	3fc0                	fld	fs0,184(a5)
    80002d9a:	06fd                	addi	a3,a3,31
    80002d9c:	8f21                	xor	a4,a4,s0
    80002d9e:	06fd                	addi	a3,a3,31
    80002da0:	f79f 0704 25d6      	.byte	0x9f, 0xf7, 0x04, 0x07, 0xd6, 0x25
    80002da6:	071c                	addi	a5,sp,896
    80002da8:	d1ee                	sw	s11,224(sp)
    80002daa:	0721                	addi	a4,a4,8
    80002dac:	07477a3f 075a3493 	.8byte	0x75a349307477a3f
    80002db4:	076267bf 079f193f 	.8byte	0x79f193f076267bf
    80002dbc:	afe9                	j	80003596 <verify_data+0x9ce>
    80002dbe:	07a1                	addi	a5,a5,8
    80002dc0:	a8fc                	fsd	fa5,208(s1)
    80002dc2:	154507bf 7b3807d5 	.8byte	0x7b3807d5154507bf
    80002dca:	07f9                	addi	a5,a5,30
    80002dcc:	08039873          	csrrw	a6,0x80,t2
    80002dd0:	2215                	addiw	tp,tp,5 # 5 <buf.1+0x5>
    80002dd2:	080c                	addi	a1,sp,16
    80002dd4:	49ca                	lw	s3,144(sp)
    80002dd6:	0816                	slli	a6,a6,0x5
    80002dd8:	082b2a17          	auipc	s4,0x82b2
    80002ddc:	9b68                	.2byte	0x9b68
    80002dde:	0836                	slli	a6,a6,0xd
    80002de0:	8469                	srai	s0,s0,0x1a
    80002de2:	0850                	addi	a2,sp,20
    80002de4:	08606c9b          	.4byte	0x8606c9b
    80002de8:	da71                	beqz	a2,80002dbc <verify_data+0x1f4>
    80002dea:	08ad                	addi	a7,a7,11
    80002dec:	08b3d3db          	.4byte	0x8b3d3db
    80002df0:	09fd                	addi	s3,s3,31
    80002df2:	08d4                	addi	a3,sp,84
    80002df4:	08da5b6b          	.4byte	0x8da5b6b
    80002df8:	2c11                	addiw	s8,s8,4
    80002dfa:	08e4                	addi	s1,sp,92
    80002dfc:	08fe3757          	.4byte	0x8fe3757
    80002e00:	6d30                	ld	a2,88(a0)
    80002e02:	0906                	slli	s2,s2,0x1
    80002e04:	8185                	srli	a1,a1,0x1
    80002e06:	03e50913          	addi	s2,a0,62
    80002e0a:	094a                	slli	s2,s2,0x12
    80002e0c:	f9c1                	bnez	a1,80002d9c <verify_data+0x1d4>
    80002e0e:	f94f0953          	.4byte	0xf94f0953
    80002e12:	89600957          	.4byte	0x89600957
    80002e16:	099f 54b6 09a0      	.byte	0x9f, 0x09, 0xb6, 0x54, 0xa0, 0x09
    80002e1c:	b5b6                	fsd	fa3,232(sp)
    80002e1e:	09bc                	addi	a5,sp,216
    80002e20:	09fe3077          	.4byte	0x9fe3077
    80002e24:	4130                	lw	a2,64(a0)
    80002e26:	379b0a0f          	.4byte	0x379b0a0f
    80002e2a:	d3450a17          	auipc	s4,0xd3450
    80002e2e:	0a1d                	addi	s4,s4,7 # 53452e31 <buflen.0+0x53452df1>
    80002e30:	4a15                	li	s4,5
    80002e32:	0a26                	slli	s4,s4,0x9
    80002e34:	2f1a                	fld	ft10,384(sp)
    80002e36:	0a42                	slli	s4,s4,0x10
    80002e38:	0a50ba03          	ld	s4,165(ra)
    80002e3c:	53d9                	li	t2,-10
    80002e3e:	0a5c                	addi	a5,sp,276
    80002e40:	48d2                	lw	a7,20(sp)
    80002e42:	0a60                	addi	s0,sp,284
    80002e44:	0a6dc44f          	fnmadd.d	fs0,fs11,ft6,ft1,rmm
    80002e48:	c97f                	.2byte	0xc97f
    80002e4a:	0a79                	addi	s4,s4,30
    80002e4c:	2930                	fld	fa2,80(a0)
    80002e4e:	ea250a7b          	.4byte	0xea250a7b
    80002e52:	0a7d                	addi	s4,s4,31
    80002e54:	5874                	lw	a3,116(s0)
    80002e56:	0a8e                	slli	s5,s5,0x3
    80002e58:	d099                	beqz	s1,80002d5e <verify_data+0x196>
    80002e5a:	0aa9                	addi	s5,s5,10
    80002e5c:	f591                	bnez	a1,80002d68 <verify_data+0x1a0>
    80002e5e:	0ac2                	slli	s5,s5,0x10
    80002e60:	0ac3bca3          	sd	a2,185(t2)
    80002e64:	8142                	mv	sp,a6
    80002e66:	0ad2                	slli	s5,s5,0x14
    80002e68:	3aae                	fld	fs5,232(sp)
    80002e6a:	0ae2                	slli	s5,s5,0x18
    80002e6c:	ba5a                	fsd	fs6,304(sp)
    80002e6e:	0af2                	slli	s5,s5,0x1c
    80002e70:	0b0fe933          	.4byte	0xb0fe933
    80002e74:	eae8                	sd	a0,208(a3)
    80002e76:	0b10                	addi	a2,sp,400
    80002e78:	d360                	sw	s0,100(a4)
    80002e7a:	0b15                	addi	s6,s6,5
    80002e7c:	dbe0                	sw	s0,116(a5)
    80002e7e:	dcd00b17          	auipc	s6,0xdcd00
    80002e82:	0b18                	addi	a4,sp,400
    80002e84:	e892                	sd	tp,80(sp)
    80002e86:	0b34                	addi	a3,sp,408
    80002e88:	0b5676e3          	bgeu	a2,s5,80003734 <verify_data+0xb6c>
    80002e8c:	5a9a                	lw	s5,164(sp)
    80002e8e:	7c260b5b          	.4byte	0x7c260b5b
    80002e92:	0b5f 4814 0b8e      	.byte	0x5f, 0x0b, 0x14, 0x48, 0x8e, 0x0b
    80002e98:	3f66                	fld	ft10,120(sp)
    80002e9a:	0ba5                	addi	s7,s7,9
    80002e9c:	db0a                	sw	sp,180(sp)
    80002e9e:	0bb4                	addi	a3,sp,472
    80002ea0:	b420                	fsd	fs0,104(s0)
    80002ea2:	0bcc                	addi	a1,sp,468
    80002ea4:	16b9                	addi	a3,a3,-18
    80002ea6:	0bd0                	addi	a2,sp,468
    80002ea8:	cd60                	sw	s0,92(a0)
    80002eaa:	0bd0                	addi	a2,sp,468
    80002eac:	0919                	addi	s2,s2,6
    80002eae:	0bed                	addi	s7,s7,27
    80002eb0:	9f16                	add	t5,t5,t0
    80002eb2:	f2ea0bef          	jal	s7,7ffa35e0 <buflen.0+0x7ffa35a0>
    80002eb6:	0c11                	addi	s8,s8,4
    80002eb8:	0c30a657          	.4byte	0xc30a657
    80002ebc:	2cec                	fld	fa1,216(s1)
    80002ebe:	0c38                	addi	a4,sp,536
    80002ec0:	0c514963          	blt	sp,t0,80002f92 <verify_data+0x3ca>
    80002ec4:	45e2                	lw	a1,24(sp)
    80002ec6:	0c68                	addi	a0,sp,540
    80002ec8:	6fc0                	ld	s0,152(a5)
    80002eca:	0c6c                	addi	a1,sp,540
    80002ecc:	d928                	sw	a0,112(a0)
    80002ece:	0c85                	addi	s9,s9,1
    80002ed0:	c4ff                	.2byte	0xc4ff
    80002ed2:	366e0c8f          	.4byte	0x366e0c8f
    80002ed6:	0c92                	slli	s9,s9,0x4
    80002ed8:	90c0                	.2byte	0x90c0
    80002eda:	65910ca3          	sb	s9,1625(sp)
    80002ede:	75090caf          	.4byte	0x75090caf
    80002ee2:	0ccc                	addi	a1,sp,596
    80002ee4:	ea80                	sd	s0,16(a3)
    80002ee6:	0cd0                	addi	a2,sp,596
    80002ee8:	8aa1                	andi	a3,a3,8
    80002eea:	0ce6                	slli	s9,s9,0x19
    80002eec:	68ec                	ld	a1,208(s1)
    80002eee:	0ce8                	addi	a0,sp,604
    80002ef0:	cc9f 0cfa a7e9      	.byte	0x9f, 0xcc, 0xfa, 0x0c, 0xe9, 0xa7
    80002ef6:	0d08                	addi	a0,sp,656
    80002ef8:	3b0a                	fld	fs6,160(sp)
    80002efa:	0d31                	addi	s10,s10,12
    80002efc:	0d36494b          	.4byte	0xd36494b
    80002f00:	88d1                	andi	s1,s1,20
    80002f02:	9e8b0d43          	.4byte	0x9e8b0d43
    80002f06:	0d6a                	slli	s10,s10,0x1a
    80002f08:	18cd                	addi	a7,a7,-13
    80002f0a:	7e030d77          	.4byte	0x7e030d77
    80002f0e:	85140d77          	.4byte	0x85140d77
    80002f12:	90d40d83          	lb	s11,-1779(s0)
    80002f16:	507c0d83          	lb	s11,1287(s8)
    80002f1a:	0d86                	slli	s11,s11,0x1
    80002f1c:	0d8789af          	.4byte	0xd8789af
    80002f20:	0d8e43d3          	.4byte	0xd8e43d3
    80002f24:	05ac                	addi	a1,sp,712
    80002f26:	0d95                	addi	s11,s11,5
    80002f28:	a911                	j	8000333c <verify_data+0x774>
    80002f2a:	0da5                	addi	s11,s11,9
    80002f2c:	1500                	addi	s0,sp,672
    80002f2e:	0db4                	addi	a3,sp,728
    80002f30:	b6ca                	fsd	fs2,360(sp)
    80002f32:	0dba                	slli	s11,s11,0xe
    80002f34:	323a                	fld	ft4,424(sp)
    80002f36:	8d110dbf a4550dc7 	.8byte	0xa4550dc78d110dbf
    80002f3e:	0dd6                	slli	s11,s11,0x15
    80002f40:	27b1                	addiw	a5,a5,12
    80002f42:	124f0df3          	.4byte	0x124f0df3
    80002f46:	0e1e                	slli	t3,t3,0x7
    80002f48:	0e20a51b          	.4byte	0xe20a51b
    80002f4c:	d8e0                	sw	s0,116(s1)
    80002f4e:	3b240e33          	.4byte	0x3b240e33
    80002f52:	0e38                	addi	a4,sp,792
    80002f54:	f698                	sd	a4,40(a3)
    80002f56:	0e4d                	addi	t3,t3,19 # 4013 <buflen.0+0x3fd3>
    80002f58:	0e578ce3          	beq	a5,t0,80003850 <verify_data+0xc88>
    80002f5c:	b631                	j	80002a68 <main+0xca>
    80002f5e:	0e64                	addi	s1,sp,796
    80002f60:	938a                	add	t2,t2,sp
    80002f62:	0e65                	addi	t3,t3,25
    80002f64:	3a1d                	addiw	s4,s4,-25
    80002f66:	0e68                	addi	a0,sp,796
    80002f68:	f848                	sd	a0,176(s0)
    80002f6a:	0e95                	addi	t4,t4,5
    80002f6c:	06c9                	addi	a3,a3,18
    80002f6e:	0e9a                	slli	t4,t4,0x6
    80002f70:	83b2                	mv	t2,a2
    80002f72:	0e9f a14b 0ebc      	.byte	0x9f, 0x0e, 0x4b, 0xa1, 0xbc, 0x0e
    80002f78:	be14                	fsd	fa3,56(a2)
    80002f7a:	c3680ebf 1ec70ebf 	.8byte	0x1ec70ebfc3680ebf
    80002f82:	0ee2                	slli	t4,t4,0x18
    80002f84:	0ee70b53          	.4byte	0xee70b53
    80002f88:	ab91                	j	800034dc <verify_data+0x914>
    80002f8a:	0ee8                	addi	a0,sp,860
    80002f8c:	db66                	sw	s9,180(sp)
    80002f8e:	0ef1                	addi	t4,t4,28
    80002f90:	cfda                	sw	s6,220(sp)
    80002f92:	cd000ef3          	.4byte	0xcd000ef3
    80002f96:	0efd                	addi	t4,t4,31
    80002f98:	2f3e                	fld	ft10,456(sp)
    80002f9a:	0f22                	slli	t5,t5,0x8
    80002f9c:	73da                	ld	t2,432(sp)
    80002f9e:	0f36                	slli	t5,t5,0xd
    80002fa0:	760e                	ld	a2,224(sp)
    80002fa2:	0f45                	addi	t5,t5,17
    80002fa4:	61f6                	ld	gp,344(sp)
    80002fa6:	9eb70f4f          	.4byte	0x9eb70f4f
    80002faa:	0f5c                	addi	a5,sp,916
    80002fac:	0f637b73          	csrrci	s6,0xf6,6
    80002fb0:	c1b1                	beqz	a1,80002ff4 <verify_data+0x42c>
    80002fb2:	dcbd0f7b          	.4byte	0xdcbd0f7b
    80002fb6:	5fc40f7b          	.4byte	0x5fc40f7b
    80002fba:	82b70f83          	lb	t6,-2005(a4)
    80002fbe:	0f89                	addi	t6,t6,2
    80002fc0:	9338                	.2byte	0x9338
    80002fc2:	0f89                	addi	t6,t6,2
    80002fc4:	0f8b5fbf 0f97096e 	.8byte	0xf97096e0f8b5fbf
    80002fcc:	1efe                	slli	t4,t4,0x3f
    80002fce:	0fd1                	addi	t6,t6,20
    80002fd0:	c2dc                	sw	a5,4(a3)
    80002fd2:	0fec                	addi	a1,sp,988
    80002fd4:	b0dc                	fsd	fa5,160(s1)
    80002fd6:	0ffa                	slli	t6,t6,0x1e
    80002fd8:	2d4e                	fld	fs10,208(sp)
    80002fda:	233d100b          	.4byte	0x233d100b
    80002fde:	101e                	c.slli	zero,0x27
    80002fe0:	10244d23          	.4byte	0x10244d23
    80002fe4:	f81f 1034 4c25      	.byte	0x1f, 0xf8, 0x34, 0x10, 0x25, 0x4c
    80002fea:	1060                	addi	s0,sp,44
    80002fec:	45f5                	li	a1,29
    80002fee:	108a                	slli	ra,ra,0x22
    80002ff0:	0f29                	addi	t5,t5,10
    80002ff2:	1091                	addi	ra,ra,-28
    80002ff4:	0db2                	slli	s11,s11,0xc
    80002ff6:	10a5                	addi	ra,ra,-23
    80002ff8:	8f9a                	mv	t6,t1
    80002ffa:	10c4                	addi	s1,sp,100
    80002ffc:	10e4ceaf          	.4byte	0x10e4ceaf
    80003000:	8979                	andi	a0,a0,30
    80003002:	dde610f7          	.4byte	0xdde610f7
    80003006:	1122                	slli	sp,sp,0x28
    80003008:	112b5d0f          	.4byte	0x112b5d0f
    8000300c:	43c8                	lw	a0,4(a5)
    8000300e:	1144                	addi	s1,sp,164
    80003010:	dc36                	sw	a3,56(sp)
    80003012:	115c                	addi	a5,sp,164
    80003014:	7eec                	ld	a1,248(a3)
    80003016:	1178                	addi	a4,sp,172
    80003018:	0002                	c.slli64	zero
    8000301a:	1189                	addi	gp,gp,-30 # 800073aa <scratch.0+0x7e2>
    8000301c:	119f8227          	.4byte	0x119f8227
    80003020:	4fc8                	lw	a0,28(a5)
    80003022:	182611cf          	fnmadd.s	ft3,fa2,ft2,ft3,rtz
    80003026:	11da                	slli	gp,gp,0x36
    80003028:	8de8                	.2byte	0x8de8
    8000302a:	11e4                	addi	s1,sp,236
    8000302c:	12e0                	addi	s0,sp,364
    8000302e:	3fa611eb          	.4byte	0x3fa611eb
    80003032:	11f6                	slli	gp,gp,0x3d
    80003034:	04bd                	addi	s1,s1,15 # 65a800f <buflen.0+0x65a7fcf>
    80003036:	2b6111fb          	.4byte	0x2b6111fb
    8000303a:	824211fb          	.4byte	0x824211fb
    8000303e:	51f61203          	lh	tp,1311(a2)
    80003042:	121c                	addi	a5,sp,288
    80003044:	acb4                	fsd	fa3,88(s1)
    80003046:	1220                	addi	s0,sp,296
    80003048:	e474                	sd	a3,200(s0)
    8000304a:	1221                	addi	tp,tp,-24 # ffffffffffffffe8 <dram_end_address_reg+0xffffffff2fffffd8>
    8000304c:	321c                	fld	fa5,32(a2)
    8000304e:	1225                	addi	tp,tp,-23 # ffffffffffffffe9 <dram_end_address_reg+0xffffffff2fffffd9>
    80003050:	671f 1235 6343      	.byte	0x1f, 0x67, 0x35, 0x12, 0x43, 0x63
    80003056:	1239                	addi	tp,tp,-18 # ffffffffffffffee <dram_end_address_reg+0xffffffff2fffffde>
    80003058:	c895                	beqz	s1,8000308c <verify_data+0x4c4>
    8000305a:	63be125b          	.4byte	0x63be125b
    8000305e:	1266                	slli	tp,tp,0x39
    80003060:	6746                	ld	a4,80(sp)
    80003062:	1268                	addi	a0,sp,300
    80003064:	c920                	sw	s0,80(a0)
    80003066:	1268                	addi	a0,sp,300
    80003068:	6408                	ld	a0,8(s0)
    8000306a:	127e                	slli	tp,tp,0x3f
    8000306c:	6db5                	lui	s11,0xd
    8000306e:	1744128b          	.4byte	0x1744128b
    80003072:	12dd                	addi	t0,t0,-9
    80003074:	12f40083          	lb	ra,303(s0)
    80003078:	bfaa                	fsd	fa0,504(sp)
    8000307a:	12ff                	.2byte	0x12ff
    8000307c:	e741                	bnez	a4,80003104 <verify_data+0x53c>
    8000307e:	1314                	addi	a3,sp,416
    80003080:	c0ac                	sw	a1,64(s1)
    80003082:	133c                	addi	a5,sp,424
    80003084:	2441                	addiw	s0,s0,16
    80003086:	0e9b1353          	.4byte	0xe9b1353
    8000308a:	1364                	addi	s1,sp,428
    8000308c:	136948cb          	fnmsub.d	fa7,fs2,fs6,ft2,rmm
    80003090:	4dd8                	lw	a4,28(a1)
    80003092:	1395                	addi	t2,t2,-27
    80003094:	e4b2                	sd	a2,72(sp)
    80003096:	139c                	addi	a5,sp,480
    80003098:	db86                	sw	ra,244(sp)
    8000309a:	a26a13a7          	.4byte	0xa26a13a7
    8000309e:	13b2                	slli	t2,t2,0x2c
    800030a0:	13bf00c7          	fmsub.d	ft1,ft10,fs11,ft2,rne
    800030a4:	13ccfe2f          	.4byte	0x13ccfe2f
    800030a8:	b436                	fsd	fa3,40(sp)
    800030aa:	13e5                	addi	t2,t2,-7
    800030ac:	13e702e3          	beq	a4,t5,800039d0 <verify_data+0xe08>
    800030b0:	0138                	addi	a4,sp,136
    800030b2:	13e9                	addi	t2,t2,-6
    800030b4:	a794                	fsd	fa3,8(a5)
    800030b6:	13fe                	slli	t2,t2,0x3f
    800030b8:	140a3777          	.4byte	0x140a3777
    800030bc:	98ae                	add	a7,a7,a1
    800030be:	142d                	addi	s0,s0,-21
    800030c0:	8655                	srai	a2,a2,0x15
    800030c2:	bdd61447          	.4byte	0xbdd61447
    800030c6:	144a                	slli	s0,s0,0x32
    800030c8:	81a2                	mv	gp,s0
    800030ca:	145a                	slli	s0,s0,0x36
    800030cc:	145d8bd7          	.4byte	0x145d8bd7
    800030d0:	14624fa3          	.4byte	0x14624fa3
    800030d4:	5a5e                	lw	s4,244(sp)
    800030d6:	1472                	slli	s0,s0,0x3c
    800030d8:	14739627          	.4byte	0x14739627
    800030dc:	2e08                	fld	fa0,24(a2)
    800030de:	147c                	addi	a5,sp,556
    800030e0:	e22a                	sd	a0,256(sp)
    800030e2:	1488                	addi	a0,sp,608
    800030e4:	2630                	fld	fa2,72(a2)
    800030e6:	148e                	slli	s1,s1,0x23
    800030e8:	14a8aca7          	fsw	fa0,345(a7)
    800030ec:	108a                	slli	ra,ra,0x22
    800030ee:	14c0                	addi	s0,sp,612
    800030f0:	14d11f33          	.4byte	0x14d11f33
    800030f4:	14df5beb          	.4byte	0x14df5beb
    800030f8:	26d6                	fld	fa3,336(sp)
    800030fa:	caae14f7          	.4byte	0xcaae14f7
    800030fe:	1518                	addi	a4,sp,672
    80003100:	3f1e                	fld	ft10,480(sp)
    80003102:	1532                	slli	a0,a0,0x2c
    80003104:	7742                	ld	a4,48(sp)
    80003106:	1540                	addi	s0,sp,676
    80003108:	1541dfdb          	.4byte	0x1541dfdb
    8000310c:	63a5                	lui	t2,0x9
    8000310e:	1542                	slli	a0,a0,0x30
    80003110:	1fe2                	slli	t6,t6,0x38
    80003112:	1571                	addi	a0,a0,-4
    80003114:	d1f1                	beqz	a1,800030d8 <verify_data+0x510>
    80003116:	157e                	slli	a0,a0,0x3f
    80003118:	18e0                	addi	s0,sp,124
    8000311a:	159f b440 15aa      	.byte	0x9f, 0x15, 0x40, 0xb4, 0xaa, 0x15
    80003120:	15bb2fe7          	.4byte	0x15bb2fe7
    80003124:	a9d0                	fsd	fa2,144(a1)
    80003126:	a7d115bb          	.4byte	0xa7d115bb
    8000312a:	15c5                	addi	a1,a1,-15
    8000312c:	7f16                	ld	t5,352(sp)
    8000312e:	15ce                	slli	a1,a1,0x33
    80003130:	68b2                	ld	a7,264(sp)
    80003132:	0f8915db          	.4byte	0xf8915db
    80003136:	15ee                	slli	a1,a1,0x3b
    80003138:	15f77ee7          	.4byte	0x15f77ee7
    8000313c:	15fcce2f          	.4byte	0x15fcce2f
    80003140:	12d6                	slli	t0,t0,0x35
    80003142:	1629                	addi	a2,a2,-22
    80003144:	8dc1                	or	a1,a1,s0
    80003146:	1630                	addi	a2,sp,808
    80003148:	5f2d                	li	t5,-21
    8000314a:	eb5f1633          	.4byte	0xeb5f1633
    8000314e:	fd611633          	.4byte	0xfd611633
    80003152:	163e                	slli	a2,a2,0x2f
    80003154:	2ff2                	fld	ft11,280(sp)
    80003156:	1640                	addi	s0,sp,804
    80003158:	379a                	fld	fa5,416(sp)
    8000315a:	39421667          	.4byte	0x39421667
    8000315e:	1675                	addi	a2,a2,-3
    80003160:	bf1f 1695 42fc      	.byte	0x1f, 0xbf, 0x95, 0x16, 0xfc, 0x42
    80003166:	169e                	slli	a3,a3,0x27
    80003168:	6ad2                	ld	s5,272(sp)
    8000316a:	0ad616a7          	.4byte	0xad616a7
    8000316e:	534b16b7          	lui	a3,0x534b1
    80003172:	16be                	slli	a3,a3,0x2f
    80003174:	d8e5                	beqz	s1,80003164 <verify_data+0x59c>
    80003176:	4eab16c3          	.4byte	0x4eab16c3
    8000317a:	098116cb          	fnmsub.s	fa3,ft2,fs8,ft1,rtz
    8000317e:	1700                	addi	s0,sp,928
    80003180:	1692                	slli	a3,a3,0x24
    80003182:	170d                	addi	a4,a4,-29
    80003184:	1621                	addi	a2,a2,-24
    80003186:	1712                	slli	a4,a4,0x24
    80003188:	17155447          	.4byte	0x17155447
    8000318c:	7b35                	lui	s6,0xfffed
    8000318e:	171a                	slli	a4,a4,0x26
    80003190:	172d75a3          	.4byte	0x172d75a3
    80003194:	3a26                	fld	fs4,104(sp)
    80003196:	46e31733          	.4byte	0x46e31733
    8000319a:	174a                	slli	a4,a4,0x32
    8000319c:	1753184b          	.4byte	0x1753184b
    800031a0:	b7d5                	j	80003184 <verify_data+0x5bc>
    800031a2:	1790                	addi	a2,sp,992
    800031a4:	394c                	fld	fa1,176(a0)
    800031a6:	17bc                	addi	a5,sp,1000
    800031a8:	bb4a                	fsd	fs2,432(sp)
    800031aa:	17bc                	addi	a5,sp,1000
    800031ac:	e6da                	sd	s6,328(sp)
    800031ae:	17c6                	slli	a5,a5,0x31
    800031b0:	ff59                	bnez	a4,8000314e <verify_data+0x586>
    800031b2:	17c9                	addi	a5,a5,-14
    800031b4:	3abd                	addiw	s5,s5,-17
    800031b6:	61c617cf          	fnmadd.s	fa5,fa2,ft8,fa2,rtz
    800031ba:	974017d7          	.4byte	0x974017d7
    800031be:	17ed                	addi	a5,a5,-5
    800031c0:	eeec                	sd	a1,216(a3)
    800031c2:	1802                	slli	a6,a6,0x20
    800031c4:	10d2                	slli	ra,ra,0x34
    800031c6:	1aef180b          	.4byte	0x1aef180b
    800031ca:	184e                	slli	a6,a6,0x33
    800031cc:	8e8d                	sub	a3,a3,a1
    800031ce:	188c                	addi	a1,sp,112
    800031d0:	c656                	sw	s5,12(sp)
    800031d2:	189e                	slli	a7,a7,0x27
    800031d4:	a1ce                	fsd	fs3,192(sp)
    800031d6:	18d2                	slli	a7,a7,0x34
    800031d8:	9675                	srai	a2,a2,0x3d
    800031da:	3dfe18e3          	bne	t3,t6,80003daa <verify_data+0x11e2>
    800031de:	18fa                	slli	a7,a7,0x3e
    800031e0:	19de                	slli	s3,s3,0x37
    800031e2:	b28018fb          	.4byte	0xb28018fb
    800031e6:	1900                	addi	s0,sp,176
    800031e8:	4ff0                	lw	a2,92(a5)
    800031ea:	190a                	slli	s2,s2,0x22
    800031ec:	191afacb          	fnmsub.s	fs5,fs5,fa7,ft3
    800031f0:	ed44                	sd	s1,152(a0)
    800031f2:	0a531927          	.4byte	0xa531927
    800031f6:	b1bf193b          	.4byte	0xb1bf193b
    800031fa:	194e                	slli	s2,s2,0x33
    800031fc:	19a2b58b          	.4byte	0x19a2b58b
    80003200:	5cc9                	li	s9,-14
    80003202:	19c1                	addi	s3,s3,-16
    80003204:	1980                	addi	s0,sp,240
    80003206:	19c9                	addi	s3,s3,-14
    80003208:	19cee96b          	.4byte	0x19cee96b
    8000320c:	59f1                	li	s3,-4
    8000320e:	19d5                	addi	s3,s3,-11
    80003210:	4af1                	li	s5,28
    80003212:	306d19eb          	.4byte	0x306d19eb
    80003216:	19f1                	addi	s3,s3,-4
    80003218:	f8f2                	sd	t3,112(sp)
    8000321a:	19f1                	addi	s3,s3,-4
    8000321c:	1886                	slli	a7,a7,0x21
    8000321e:	1a04                	addi	s1,sp,304
    80003220:	af00                	fsd	fs0,24(a4)
    80003222:	1a05                	addi	s4,s4,-31
    80003224:	1a067347          	fmsub.d	ft6,fa2,ft0,ft3
    80003228:	efe9                	bnez	a5,80003302 <verify_data+0x73a>
    8000322a:	1a16                	slli	s4,s4,0x25
    8000322c:	34a2                	fld	fs1,40(sp)
    8000322e:	1a26                	slli	s4,s4,0x29
    80003230:	6680                	ld	s0,8(a3)
    80003232:	1a72                	slli	s4,s4,0x3c
    80003234:	6a3e                	ld	s4,456(sp)
    80003236:	1a7c                	addi	a5,sp,316
    80003238:	1a9b193f 1ab845a1 	.8byte	0x1ab845a11a9b193f
    80003240:	c174                	sw	a3,68(a0)
    80003242:	1abe                	slli	s5,s5,0x2f
    80003244:	8f99                	sub	a5,a5,a4
    80003246:	1ae8                	addi	a0,sp,380
    80003248:	88d5                	andi	s1,s1,21
    8000324a:	1afe                	slli	s5,s5,0x3f
    8000324c:	fbb4                	sd	a3,112(a5)
    8000324e:	1b14                	addi	a3,sp,432
    80003250:	2e78                	fld	fa4,216(a2)
    80003252:	1b16                	slli	s6,s6,0x25
    80003254:	1b1ae0d3          	fdiv.d	ft1,fs5,fa7,unknown
    80003258:	d252                	sw	s4,36(sp)
    8000325a:	0fbf1b2b          	.4byte	0xfbf1b2b
    8000325e:	1b35                	addi	s6,s6,-19 # fffffffffffecfed <dram_end_address_reg+0xffffffff2ffecfdd>
    80003260:	fb86                	sd	ra,496(sp)
    80003262:	1b60                	addi	s0,sp,444
    80003264:	1b717563          	bgeu	sp,s7,8000340e <verify_data+0x846>
    80003268:	ab66                	fsd	fs9,400(sp)
    8000326a:	1b78                	addi	a4,sp,444
    8000326c:	0f16                	slli	t5,t5,0x5
    8000326e:	1b81                	addi	s7,s7,-32
    80003270:	1b825af3          	csrrwi	s5,0x1b8,4
    80003274:	e83e                	sd	a5,16(sp)
    80003276:	1b94                	addi	a3,sp,496
    80003278:	a632                	fsd	fa2,264(sp)
    8000327a:	1b96                	slli	s7,s7,0x25
    8000327c:	1baab177          	.4byte	0x1baab177
    80003280:	1bb4383f 1bb928d5 	.8byte	0x1bb928d51bb4383f
    80003288:	0309                	addi	t1,t1,2
    8000328a:	1c05                	addi	s8,s8,-31
    8000328c:	84d0                	.2byte	0x84d0
    8000328e:	1c2d                	addi	s8,s8,-21
    80003290:	1c2f74ab          	.4byte	0x1c2f74ab
    80003294:	4355                	li	t1,21
    80003296:	1c36                	slli	s8,s8,0x2d
    80003298:	4b00                	lw	s0,16(a4)
    8000329a:	a9601c73          	csrrw	s8,0xa96,zero
    8000329e:	1c74                	addi	a3,sp,572
    800032a0:	b4a9                	j	80002cea <verify_data+0x122>
    800032a2:	1c88                	addi	a0,sp,624
    800032a4:	0ac5                	addi	s5,s5,17
    800032a6:	1cb4                	addi	a3,sp,632
    800032a8:	12d4                	addi	a3,sp,356
    800032aa:	1cb4                	addi	a3,sp,632
    800032ac:	bb55                	j	80003060 <verify_data+0x498>
    800032ae:	1cc8                	addi	a0,sp,628
    800032b0:	1ccf4e3b          	.4byte	0x1ccf4e3b
    800032b4:	000d                	c.nop	3
    800032b6:	1cf5                	addi	s9,s9,-3
    800032b8:	4c05                	li	s8,1
    800032ba:	1cfa                	slli	s9,s9,0x3e
    800032bc:	88a1                	andi	s1,s1,8
    800032be:	1cfa                	slli	s9,s9,0x3e
    800032c0:	9565                	srai	a0,a0,0x39
    800032c2:	1d14                	addi	a3,sp,688
    800032c4:	da5f 1d42 1082      	.byte	0x5f, 0xda, 0x42, 0x1d, 0x82, 0x10
    800032ca:	71bc1d5b          	.4byte	0x71bc1d5b
    800032ce:	97091d77          	.4byte	0x97091d77
    800032d2:	1d82                	slli	s11,s11,0x20
    800032d4:	daea                	sw	s10,116(sp)
    800032d6:	1dac                	addi	a1,sp,760
    800032d8:	9829                	andi	s0,s0,-22
    800032da:	1db9                	addi	s11,s11,-18 # cfee <buflen.0+0xcfae>
    800032dc:	d75f 1dcb 2524      	.byte	0x5f, 0xd7, 0xcb, 0x1d, 0x24, 0x25
    800032e2:	9af51dd3          	.4byte	0x9af51dd3
    800032e6:	1dd8                	addi	a4,sp,756
    800032e8:	8a44                	.2byte	0x8a44
    800032ea:	daf91def          	jal	s11,7ff95098 <buflen.0+0x7ff95058>
    800032ee:	1df0                	addi	a2,sp,764
    800032f0:	6e48                	ld	a0,152(a2)
    800032f2:	1df4                	addi	a3,sp,764
    800032f4:	c9c9                	beqz	a1,80003386 <verify_data+0x7be>
    800032f6:	1e00                	addi	s0,sp,816
    800032f8:	d51d                	beqz	a0,80003226 <verify_data+0x65e>
    800032fa:	1e08                	addi	a0,sp,816
    800032fc:	1e300f6b          	.4byte	0x1e300f6b
    80003300:	25de                	fld	fa1,464(sp)
    80003302:	1e45                	addi	t3,t3,-15
    80003304:	8062                	c.mv	zero,s8
    80003306:	1e46                	slli	t3,t3,0x31
    80003308:	1e48192b          	.4byte	0x1e48192b
    8000330c:	7f46                	ld	t5,112(sp)
    8000330e:	1e58                	addi	a4,sp,820
    80003310:	1641                	addi	a2,a2,-16
    80003312:	1e62                	slli	t3,t3,0x38
    80003314:	47e8                	lw	a0,76(a5)
    80003316:	1e6d                	addi	t3,t3,-5
    80003318:	932c                	.2byte	0x932c
    8000331a:	1e6d                	addi	t3,t3,-5
    8000331c:	0b6e                	slli	s6,s6,0x1b
    8000331e:	1e8c                	addi	a1,sp,880
    80003320:	e911                	bnez	a0,80003334 <verify_data+0x76c>
    80003322:	540d1e93          	.4byte	0x540d1e93
    80003326:	1e9c                	addi	a5,sp,880
    80003328:	1e9ca763          	.4byte	0x1e9ca763
    8000332c:	49c4                	lw	s1,20(a1)
    8000332e:	1ea6                	slli	t4,t4,0x29
    80003330:	f87d                	bnez	s0,80003326 <verify_data+0x75e>
    80003332:	1eb0                	addi	a2,sp,888
    80003334:	98ac                	.2byte	0x98ac
    80003336:	1eb8                	addi	a4,sp,888
    80003338:	a950                	fsd	fa2,144(a0)
    8000333a:	1ebe                	slli	t4,t4,0x2f
    8000333c:	8110                	.2byte	0x8110
    8000333e:	1edc                	addi	a5,sp,884
    80003340:	2d32                	fld	fs10,264(sp)
    80003342:	1ee1                	addi	t4,t4,-8
    80003344:	4855                	li	a6,21
    80003346:	1ef2                	slli	t4,t4,0x3c
    80003348:	1ef490c3          	.4byte	0x1ef490c3
    8000334c:	1ef9fd23          	.4byte	0x1ef9fd23
    80003350:	9906                	add	s2,s2,ra
    80003352:	5e7e1f03          	lh	t5,1511(t3)
    80003356:	1f06                	slli	t5,t5,0x21
    80003358:	3d39                	addiw	s10,s10,-18
    8000335a:	1f09                	addi	t5,t5,-30
    8000335c:	8905                	andi	a0,a0,1
    8000335e:	1f1f 5071 1f23      	.byte	0x1f, 0x1f, 0x71, 0x50, 0x23, 0x1f
    80003364:	1f407de7          	.4byte	0x1f407de7
    80003368:	1c49                	addi	s8,s8,-14
    8000336a:	1f54                	addi	a3,sp,948
    8000336c:	0239                	addi	tp,tp,14 # e <buf.1+0xe>
    8000336e:	1f79                	addi	t5,t5,-2
    80003370:	1f8b77b7          	lui	a5,0x1f8b7
    80003374:	96fd                	srai	a3,a3,0x3f
    80003376:	1f98                	addi	a4,sp,1008
    80003378:	b1ee                	fsd	fs11,224(sp)
    8000337a:	cd531fb7          	lui	t6,0xcd531
    8000337e:	1fbc                	addi	a5,sp,1016
    80003380:	7b61                	lui	s6,0xffff8
    80003382:	1fc6                	slli	t6,t6,0x31
    80003384:	0dde                	slli	s11,s11,0x17
    80003386:	1fda                	slli	t6,t6,0x36
    80003388:	16f9                	addi	a3,a3,-2 # 534b0ffe <buflen.0+0x534b0fbe>
    8000338a:	1ff0                	addi	a2,sp,1020
    8000338c:	adc6                	fsd	fa7,216(sp)
    8000338e:	73bb1ff3          	csrrw	t6,0x73b,s6
    80003392:	201f 0c4c 2027      	.byte	0x1f, 0x20, 0x4c, 0x0c, 0x27, 0x20
    80003398:	202edda7          	.4byte	0x202edda7
    8000339c:	202fd7d7          	.4byte	0x202fd7d7
    800033a0:	2c8c                	fld	fa1,24(s1)
    800033a2:	2031                	.2byte	0x2031
    800033a4:	46f4                	lw	a3,76(a3)
    800033a6:	203e                	fld	ft0,456(sp)
    800033a8:	8ed1                	or	a3,a3,a2
    800033aa:	0db82057          	.4byte	0xdb82057
    800033ae:	206c                	fld	fa1,192(s0)
    800033b0:	7fd8                	ld	a4,184(a5)
    800033b2:	207a                	fld	ft0,408(sp)
    800033b4:	0d30                	addi	a2,sp,664
    800033b6:	207d                	.2byte	0x207d
    800033b8:	3aed                	addiw	s5,s5,-5
    800033ba:	2085                	addiw	ra,ra,1
    800033bc:	7fc9                	lui	t6,0xffff2
    800033be:	2090                	fld	fa2,0(s1)
    800033c0:	78d4                	ld	a3,176(s1)
    800033c2:	f31d20b3          	.4byte	0xf31d20b3
    800033c6:	20bc                	fld	fa5,64(s1)
    800033c8:	7518                	ld	a4,40(a0)
    800033ca:	20d0                	fld	fa2,128(s1)
    800033cc:	cf61                	beqz	a4,800034a4 <verify_data+0x8dc>
    800033ce:	e50320fb          	.4byte	0xe50320fb
    800033d2:	2128                	fld	fa0,64(a0)
    800033d4:	7078                	ld	a4,224(s0)
    800033d6:	2159                	addiw	sp,sp,22
    800033d8:	0b52                	slli	s6,s6,0x14
    800033da:	9d30216b          	.4byte	0x9d30216b
    800033de:	218e                	fld	ft3,192(sp)
    800033e0:	81de                	mv	gp,s7
    800033e2:	03af21af          	amoadd.w.rl	gp,s10,(t5)
    800033e6:	a15d21bf f16e21d7 	.8byte	0xf16e21d7a15d21bf
    800033ee:	21e4                	fld	fs1,192(a1)
    800033f0:	21f8bbe7          	.4byte	0x21f8bbe7
    800033f4:	757d                	lui	a0,0xfffff
    800033f6:	2212                	fld	ft4,256(sp)
    800033f8:	221bb1f3          	csrrc	gp,0x221,s7
    800033fc:	27e4                	fld	fs1,200(a5)
    800033fe:	223a                	fld	ft4,392(sp)
    80003400:	e330                	sd	a2,64(a4)
    80003402:	2262                	fld	ft4,24(sp)
    80003404:	226a2ea7          	fsw	ft6,573(s4)
    80003408:	9562                	add	a0,a0,s8
    8000340a:	226a                	fld	ft4,152(sp)
    8000340c:	227f96f7          	.4byte	0x227f96f7
    80003410:	810a                	mv	sp,sp
    80003412:	2285                	addiw	t0,t0,1
    80003414:	22992e4b          	fnmsub.d	ft8,fs2,fs1,ft4,rdn
    80003418:	aa91                	j	8000356c <verify_data+0x9a4>
    8000341a:	229c                	fld	fa5,0(a3)
    8000341c:	9608                	.2byte	0x9608
    8000341e:	22c1                	addiw	t0,t0,16
    80003420:	fb81                	bnez	a5,80003330 <verify_data+0x768>
    80003422:	22e0                	fld	fs0,192(a3)
    80003424:	ab60                	fsd	fs0,208(a4)
    80003426:	22ea                	fld	ft5,152(sp)
    80003428:	2fa9                	addiw	t6,t6,10 # ffffffffffff200a <dram_end_address_reg+0xffffffff2fff1ffa>
    8000342a:	231c                	fld	fa5,0(a4)
    8000342c:	39df 2335 4e2b      	.byte	0xdf, 0x39, 0x35, 0x23, 0x2b, 0x4e
    80003432:	2349                	addiw	t1,t1,18
    80003434:	c94a                	sw	s2,144(sp)
    80003436:	234c                	fld	fa1,128(a4)
    80003438:	23688f3b          	.4byte	0x23688f3b
    8000343c:	278e                	fld	fa5,192(sp)
    8000343e:	2374                	fld	fa3,192(a4)
    80003440:	ed70                	sd	a2,216(a0)
    80003442:	2381                	sext.w	t2,t2
    80003444:	04c5                	addi	s1,s1,17
    80003446:	239c                	fld	fa5,0(a5)
    80003448:	034d                	addi	t1,t1,19
    8000344a:	23a5                	addiw	t2,t2,9 # 9009 <buflen.0+0x8fc9>
    8000344c:	6a30                	ld	a2,80(a2)
    8000344e:	a2f223e7          	.4byte	0xa2f223e7
    80003452:	7ca623ef          	jal	t2,80065c1c <_tbss_end+0x5cfd8>
    80003456:	e3c123f3          	csrrs	t2,0xe3c,sp
    8000345a:	23fe                	fld	ft7,472(sp)
    8000345c:	240481ab          	.4byte	0x240481ab
    80003460:	37ea                	fld	fa5,184(sp)
    80003462:	491c240f          	.4byte	0x491c240f
    80003466:	2435                	addiw	s0,s0,13
    80003468:	b44a                	fsd	fs2,40(sp)
    8000346a:	2439                	addiw	s0,s0,14
    8000346c:	cd3e                	sw	a5,152(sp)
    8000346e:	247e                	fld	fs0,472(sp)
    80003470:	490d                	li	s2,3
    80003472:	249c                	fld	fa5,8(s1)
    80003474:	3ecd                	addiw	t4,t4,-13
    80003476:	24a2                	fld	fs1,8(sp)
    80003478:	5cb5                	li	s9,-19
    8000347a:	66c324b3          	.4byte	0x66c324b3
    8000347e:	24d2                	fld	fs1,272(sp)
    80003480:	24d5dd8b          	.4byte	0x24d5dd8b
    80003484:	81fd                	srli	a1,a1,0x1f
    80003486:	24d8                	fld	fa4,136(s1)
    80003488:	5376                	lw	t1,124(sp)
    8000348a:	24e0                	fld	fs0,200(s1)
    8000348c:	bbfa                	fsd	ft10,496(sp)
    8000348e:	3a3624eb          	.4byte	0x3a3624eb
    80003492:	24ec                	fld	fa1,200(s1)
    80003494:	05f9                	addi	a1,a1,30
    80003496:	24f4                	fld	fa3,200(s1)
    80003498:	0b3d                	addi	s6,s6,15 # ffffffffffff800f <dram_end_address_reg+0xffffffff2fff7fff>
    8000349a:	24fc                	fld	fa5,200(s1)
    8000349c:	c3bd                	beqz	a5,80003502 <verify_data+0x93a>
    8000349e:	2511                	addiw	a0,a0,4 # fffffffffffff004 <dram_end_address_reg+0xffffffff2fffeff4>
    800034a0:	b685                	j	80003000 <verify_data+0x438>
    800034a2:	2514                	fld	fa3,8(a0)
    800034a4:	90ea                	add	ra,ra,s10
    800034a6:	2515                	addiw	a0,a0,5
    800034a8:	76c0                	ld	s0,168(a3)
    800034aa:	252c                	fld	fa1,72(a0)
    800034ac:	18b0                	addi	a2,sp,120
    800034ae:	2530                	fld	fa2,72(a0)
    800034b0:	dc48                	sw	a0,60(s0)
    800034b2:	253a                	fld	fa0,392(sp)
    800034b4:	625f 253c d083      	.byte	0x5f, 0x62, 0x3c, 0x25, 0x83, 0xd0
    800034ba:	e0d6253f 5203254f 	.8byte	0x5203254fe0d6253f
    800034c2:	2575                	addiw	a0,a0,29
    800034c4:	0af0                	addi	a2,sp,348
    800034c6:	a39e2593          	slti	a1,t3,-1479
    800034ca:	259c                	fld	fa5,8(a1)
    800034cc:	648d                	lui	s1,0x3
    800034ce:	25a2                	fld	fa1,8(sp)
    800034d0:	25aa979b          	.4byte	0x25aa979b
    800034d4:	e378                	sd	a4,192(a4)
    800034d6:	25b4                	fld	fa3,72(a1)
    800034d8:	25bbf907          	.4byte	0x25bbf907
    800034dc:	7b4a                	ld	s6,176(sp)
    800034de:	25be                	fld	fa1,456(sp)
    800034e0:	ff86                	sd	ra,504(sp)
    800034e2:	eb4f25ef          	jal	a1,7fff5b96 <buflen.0+0x7fff5b56>
    800034e6:	2601                	sext.w	a2,a2
    800034e8:	a9bd                	j	80003966 <verify_data+0xd9e>
    800034ea:	2609                	addiw	a2,a2,2
    800034ec:	5fae                	lw	t6,232(sp)
    800034ee:	2632                	fld	fa2,264(sp)
    800034f0:	2540                	fld	fs0,136(a0)
    800034f2:	83a92667          	.4byte	0x83a92667
    800034f6:	afc1266f          	jal	a2,7ff157f2 <buflen.0+0x7ff157b2>
    800034fa:	78e9268b          	.4byte	0x78e9268b
    800034fe:	26ba                	fld	fa3,392(sp)
    80003500:	0b60                	addi	s0,sp,412
    80003502:	26c6                	fld	fa3,80(sp)
    80003504:	a9e2                	fsd	fs8,208(sp)
    80003506:	26d5                	addiw	a3,a3,21
    80003508:	ed86                	sd	ra,216(sp)
    8000350a:	26d8                	fld	fa4,136(a3)
    8000350c:	ebc4                	sd	s1,144(a5)
    8000350e:	26dd                	addiw	a3,a3,23
    80003510:	e848                	sd	a0,144(s0)
    80003512:	26e2                	fld	fa3,24(sp)
    80003514:	26ecc43f 26f58add 	.8byte	0x26f58add26ecc43f
    8000351c:	2ad8                	fld	fa4,144(a3)
    8000351e:	2709                	addiw	a4,a4,2
    80003520:	9280                	.2byte	0x9280
    80003522:	270d                	addiw	a4,a4,3
    80003524:	4fba                	lw	t6,140(sp)
    80003526:	2711                	addiw	a4,a4,4
    80003528:	53c2                	lw	t2,48(sp)
    8000352a:	2728                	fld	fa0,72(a4)
    8000352c:	272cdbc7          	.4byte	0x272cdbc7
    80003530:	ec5c                	sd	a5,152(s0)
    80003532:	276a                	fld	fa4,152(sp)
    80003534:	bfb6                	fsd	fa3,504(sp)
    80003536:	2799                	addiw	a5,a5,6 # 1f8b7006 <buflen.0+0x1f8b6fc6>
    80003538:	27ac473b          	.4byte	0x27ac473b
    8000353c:	e2fd                	bnez	a3,80003622 <verify_data+0xa5a>
    8000353e:	dfd027bb          	.4byte	0xdfd027bb
    80003542:	27f8                	fld	fa4,200(a5)
    80003544:	280b98c7          	fmsub.s	fa7,fs7,ft0,ft5,rtz
    80003548:	d6ad                	beqz	a3,800034b2 <verify_data+0x8ea>
    8000354a:	2812                	fld	fa6,256(sp)
    8000354c:	281bbd27          	fsd	ft1,666(s7)
    80003550:	fe11                	bnez	a2,8000346c <verify_data+0x8a4>
    80003552:	2828                	fld	fa0,80(s0)
    80003554:	49a5                	li	s3,9
    80003556:	2835                	addiw	a6,a6,13
    80003558:	10f8                	addi	a4,sp,108
    8000355a:	2844                	fld	fs1,144(s0)
    8000355c:	2845d05b          	.4byte	0x2845d05b
    80003560:	9189                	srli	a1,a1,0x22
    80003562:	285d                	addiw	a6,a6,23
    80003564:	2870b66f          	jal	a2,8000efea <_tbss_end+0x63a6>
    80003568:	a34d                	j	80003b0a <verify_data+0xf42>
    8000356a:	2880                	fld	fs0,16(s1)
    8000356c:	9bfd                	andi	a5,a5,-1
    8000356e:	288a                	fld	fa7,128(sp)
    80003570:	c5f0                	sw	a2,76(a1)
    80003572:	28a6                	fld	fa7,72(sp)
    80003574:	c1b4                	sw	a3,64(a1)
    80003576:	f15328bb          	.4byte	0xf15328bb
    8000357a:	28bd                	addiw	a7,a7,15
    8000357c:	5d55                	li	s10,-11
    8000357e:	28d4                	fld	fa3,144(s1)
    80003580:	b431                	j	80002f8c <verify_data+0x3c4>
    80003582:	25ea28ef          	jal	a7,800a57e0 <_tbss_end+0x9cb9c>
    80003586:	2901                	sext.w	s2,s2
    80003588:	290737e7          	.4byte	0x290737e7
    8000358c:	6c64                	ld	s1,216(s0)
    8000358e:	2909                	addiw	s2,s2,2
    80003590:	292b6803          	lwu	a6,658(s6)
    80003594:	de5d                	beqz	a2,80003552 <verify_data+0x98a>
    80003596:	292c                	fld	fa1,80(a0)
    80003598:	292dc637          	lui	a2,0x292dc
    8000359c:	4190                	lw	a2,0(a1)
    8000359e:	2931                	addiw	s2,s2,12
    800035a0:	fc5d                	bnez	s0,8000355e <verify_data+0x996>
    800035a2:	9857294b          	fnmsub.s	fs2,fa4,ft5,fs3,rdn
    800035a6:	2959                	addiw	s2,s2,22
    800035a8:	28ae                	fld	fa7,200(sp)
    800035aa:	297c                	fld	fa5,208(a0)
    800035ac:	297efd5b          	.4byte	0x297efd5b
    800035b0:	f432                	sd	a2,40(sp)
    800035b2:	2982                	fld	fs3,0(sp)
    800035b4:	d515                	beqz	a0,800034e0 <verify_data+0x918>
    800035b6:	2995                	addiw	s3,s3,5
    800035b8:	daa0                	sw	s0,112(a3)
    800035ba:	986b2997          	auipc	s3,0x986b2
    800035be:	2998                	fld	fa4,16(a1)
    800035c0:	29a4b67b          	.4byte	0x29a4b67b
    800035c4:	29c439a7          	fsd	ft8,659(s0)
    800035c8:	29d70e33          	.4byte	0x29d70e33
    800035cc:	7a22                	ld	s4,40(sp)
    800035ce:	29dd                	addiw	s3,s3,23 # 186b55d1 <buflen.0+0x186b5591>
    800035d0:	eae5                	bnez	a3,800036c0 <verify_data+0xaf8>
    800035d2:	29e8                	fld	fa0,208(a1)
    800035d4:	35ba                	fld	fa1,424(sp)
    800035d6:	2a0d                	addiw	s4,s4,3
    800035d8:	2a12718f          	.4byte	0x2a12718f
    800035dc:	2885                	addiw	a7,a7,1
    800035de:	2a1a                	fld	fs4,384(sp)
    800035e0:	4eda                	lw	t4,148(sp)
    800035e2:	2a21                	addiw	s4,s4,8
    800035e4:	2a22a5e3          	.4byte	0x2a22a5e3
    800035e8:	6ac2                	ld	s5,16(sp)
    800035ea:	2a4c                	fld	fa1,144(a2)
    800035ec:	2a8f6b6f          	jal	s6,800f9894 <_tbss_end+0xf0c50>
    800035f0:	bc82                	fsd	ft0,120(sp)
    800035f2:	2a95                	addiw	s5,s5,5
    800035f4:	6351                	lui	t1,0x14
    800035f6:	2aac                	fld	fa1,80(a3)
    800035f8:	74f2                	ld	s1,312(sp)
    800035fa:	2aca                	fld	fs5,144(sp)
    800035fc:	832c                	.2byte	0x832c
    800035fe:	4d282aef          	jal	s5,80085ad0 <_tbss_end+0x7ce8c>
    80003602:	2afa                	fld	fs5,408(sp)
    80003604:	9719                	srai	a4,a4,0x26
    80003606:	2b01                	sext.w	s6,s6
    80003608:	2b0b5427          	.4byte	0x2b0b5427
    8000360c:	d0ed                	beqz	s1,800035ee <verify_data+0xa26>
    8000360e:	2b0c                	fld	fa1,16(a4)
    80003610:	261f 2b0e deec      	.byte	0x1f, 0x26, 0x0e, 0x2b, 0xec, 0xde
    80003616:	2b16                	fld	fs6,320(sp)
    80003618:	0b2a                	slli	s6,s6,0xa
    8000361a:	2b1d                	addiw	s6,s6,7
    8000361c:	4dbe                	lw	s11,204(sp)
    8000361e:	2b26                	fld	fs6,72(sp)
    80003620:	0c12                	slli	s8,s8,0x4
    80003622:	2b48                	fld	fa0,144(a4)
    80003624:	2488                	fld	fa0,8(s1)
    80003626:	1c4b2b53          	.4byte	0x1c4b2b53
    8000362a:	2b5e                	fld	fs6,464(sp)
    8000362c:	e58d                	bnez	a1,80003656 <verify_data+0xa8e>
    8000362e:	2b7a                	fld	fs6,408(sp)
    80003630:	6fa2                	ld	t6,8(sp)
    80003632:	4d812b7b          	.4byte	0x4d812b7b
    80003636:	2b84                	fld	fs1,16(a5)
    80003638:	70c8                	ld	a0,160(s1)
    8000363a:	5d0d2b87          	flw	fs7,1488(s10)
    8000363e:	2b89                	addiw	s7,s7,2
    80003640:	d1e1                	beqz	a1,80003600 <verify_data+0xa38>
    80003642:	6ca02b8f          	.4byte	0x6ca02b8f
    80003646:	d24e2b9b          	.4byte	0xd24e2b9b
    8000364a:	2b9d                	addiw	s7,s7,7
    8000364c:	5d49                	li	s10,-14
    8000364e:	35dc2ba7          	fsw	ft9,855(s8)
    80003652:	2ba8                	fld	fa0,80(a5)
    80003654:	6a49                	lui	s4,0x12
    80003656:	2be5                	addiw	s7,s7,25
    80003658:	7d20                	ld	s0,120(a0)
    8000365a:	a3052bf3          	csrrs	s7,0xa30,a0
    8000365e:	2bf5                	addiw	s7,s7,29
    80003660:	64c0                	ld	s0,136(s1)
    80003662:	58672c07          	flw	fs8,1414(a4)
    80003666:	2c15                	addiw	s8,s8,5
    80003668:	aecc                	fsd	fa1,152(a3)
    8000366a:	f5572c23          	sw	s5,-168(a4)
    8000366e:	94b82c2b          	.4byte	0x94b82c2b
    80003672:	2c2d                	addiw	s8,s8,11
    80003674:	2c3cdaab          	.4byte	0x2c3cdaab
    80003678:	0379                	addi	t1,t1,30 # 1401e <buflen.0+0x13fde>
    8000367a:	2c52                	fld	fs8,272(sp)
    8000367c:	2c54a803          	lw	a6,709(s1) # 32c5 <buflen.0+0x3285>
    80003680:	983d                	andi	s0,s0,-17
    80003682:	2c6a                	fld	fs8,152(sp)
    80003684:	aaad                	j	800037fe <verify_data+0xc36>
    80003686:	5cab2c73          	csrrs	s8,0x5ca,s6
    8000368a:	9f222c8f          	.4byte	0x9f222c8f
    8000368e:	2c9d                	addiw	s9,s9,7
    80003690:	2c45                	addiw	s8,s8,17
    80003692:	b88a2cab          	.4byte	0xb88a2cab
    80003696:	2cbd                	addiw	s9,s9,15
    80003698:	2cc21eab          	.4byte	0x2cc21eab
    8000369c:	ddc4                	sw	s1,60(a1)
    8000369e:	2cd0                	fld	fa2,152(s1)
    800036a0:	8849                	andi	s0,s0,18
    800036a2:	2cd8                	fld	fa4,152(s1)
    800036a4:	2ce66627          	.4byte	0x2ce66627
    800036a8:	6b72                	ld	s6,280(sp)
    800036aa:	2cf4                	fld	fa3,216(s1)
    800036ac:	e584                	sd	s1,8(a1)
    800036ae:	2cf4                	fld	fa3,216(s1)
    800036b0:	ceea                	sw	s10,92(sp)
    800036b2:	2cfe                	fld	fs9,472(sp)
    800036b4:	d921                	beqz	a0,80003604 <verify_data+0xa3c>
    800036b6:	2d08                	fld	fa0,24(a0)
    800036b8:	9006                	c.add	zero,ra
    800036ba:	2d0c                	fld	fa1,24(a0)
    800036bc:	2d2aea73          	csrrsi	s4,0x2d2,21
    800036c0:	8c8c                	.2byte	0x8c8c
    800036c2:	2d2d                	addiw	s10,s10,11
    800036c4:	d426                	sw	s1,40(sp)
    800036c6:	2d30                	fld	fa2,88(a0)
    800036c8:	eda1                	bnez	a1,80003720 <verify_data+0xb58>
    800036ca:	2d68                	fld	fa0,216(a0)
    800036cc:	2d73d15b          	.4byte	0x2d73d15b
    800036d0:	7cb6                	ld	s9,360(sp)
    800036d2:	fe492d97          	auipc	s11,0xfe492
    800036d6:	ddde2d97          	auipc	s11,0xddde2
    800036da:	2d9e                	fld	fs11,448(sp)
    800036dc:	ac55                	j	80003990 <verify_data+0xdc8>
    800036de:	0f762da3          	sw	s7,251(a2) # 292dc0fb <buflen.0+0x292dc0bb>
    800036e2:	ec892dbb          	.4byte	0xec892dbb
    800036e6:	2dc4                	fld	fs1,152(a1)
    800036e8:	95c4                	.2byte	0x95c4
    800036ea:	2dc9                	addiw	s11,s11,18 # 5dde56e8 <buflen.0+0x5dde56a8>
    800036ec:	17e0                	addi	s0,sp,1004
    800036ee:	2dd6                	fld	fs11,336(sp)
    800036f0:	2deb91bf 2df3dfcb 	.8byte	0x2df3dfcb2deb91bf
    800036f8:	2e04b247          	.4byte	0x2e04b247
    800036fc:	9db6                	add	s11,s11,a3
    800036fe:	77ef2e07          	flw	ft8,1918(t5)
    80003702:	0dbb2e0b          	.4byte	0xdbb2e0b
    80003706:	2e16                	fld	ft8,320(sp)
    80003708:	b07f                	.2byte	0xb07f
    8000370a:	2e56                	fld	ft8,336(sp)
    8000370c:	0f7c                	addi	a5,sp,924
    8000370e:	2e6a                	fld	ft8,152(sp)
    80003710:	2e6c133b          	.4byte	0x2e6c133b
    80003714:	078a                	slli	a5,a5,0x2
    80003716:	2e70                	fld	fa2,216(a2)
    80003718:	26e2                	fld	fa3,24(sp)
    8000371a:	2eb2                	fld	ft9,264(sp)
    8000371c:	3bb4                	fld	fa3,112(a5)
    8000371e:	2ed0                	fld	fa2,152(a3)
    80003720:	4040                	lw	s0,4(s0)
    80003722:	2ed9                	addiw	t4,t4,22
    80003724:	f2c1                	bnez	a3,800036a4 <verify_data+0xadc>
    80003726:	2edd                	addiw	t4,t4,23
    80003728:	0df8                	addi	a4,sp,732
    8000372a:	2ee2                	fld	ft9,24(sp)
    8000372c:	2eea494b          	.4byte	0x2eea494b
    80003730:	def5                	beqz	a3,8000372c <verify_data+0xb64>
    80003732:	2ef0                	fld	fa2,216(a3)
    80003734:	8746                	mv	a4,a7
    80003736:	2ef5                	addiw	t4,t4,29
    80003738:	9bd8                	.2byte	0x9bd8
    8000373a:	2ef6                	fld	ft9,344(sp)
    8000373c:	5b1f 2f1a 9f26      	.byte	0x1f, 0x5b, 0x1a, 0x2f, 0x26, 0x9f
    80003742:	2f24                	fld	fs1,88(a4)
    80003744:	9259                	srli	a2,a2,0x36
    80003746:	2f28                	fld	fa0,88(a4)
    80003748:	91a6                	add	gp,gp,s1
    8000374a:	ef642f2b          	.4byte	0xef642f2b
    8000374e:	b4642f4b          	.4byte	0xb4642f4b
    80003752:	2f70                	fld	fa2,216(a4)
    80003754:	2c50                	fld	fa2,152(s0)
    80003756:	2f82                	fld	ft11,0(sp)
    80003758:	5026                	.2byte	0x5026
    8000375a:	d1cb2f97          	auipc	t6,0xd1cb2
    8000375e:	b6d42fa7          	fsw	fa3,-1153(s0)
    80003762:	2faa                	fld	ft11,136(sp)
    80003764:	2fb80fd7          	.4byte	0x2fb80fd7
    80003768:	21dc                	fld	fa5,128(a1)
    8000376a:	2fb9                	addiw	t6,t6,14 # 51cb5768 <buflen.0+0x51cb5728>
    8000376c:	2fbefe13          	andi	t3,t4,763
    80003770:	2fc79aeb          	.4byte	0x2fc79aeb
    80003774:	2fcade4f          	.4byte	0x2fcade4f
    80003778:	b366                	fsd	fs9,416(sp)
    8000377a:	2fd8                	fld	fa4,152(a5)
    8000377c:	2ff1affb          	.4byte	0x2ff1affb
    80003780:	30107333          	.4byte	0x30107333
    80003784:	301453e7          	.4byte	0x301453e7
    80003788:	3014dbb7          	lui	s7,0x3014d
    8000378c:	94ee                	add	s1,s1,s11
    8000378e:	3041                	.2byte	0x3041
    80003790:	86c8                	.2byte	0x86c8
    80003792:	304d                	.2byte	0x304d
    80003794:	81e5                	srli	a1,a1,0x19
    80003796:	93fd304f          	fnmadd.d	ft0,fs10,ft11,fs2,rup
    8000379a:	89643067          	.4byte	0x89643067
    8000379e:	306a                	fld	ft0,184(sp)
    800037a0:	2809                	addiw	a6,a6,2
    800037a2:	3401306b          	.4byte	0x3401306b
    800037a6:	307d                	.2byte	0x307d
    800037a8:	46b2                	lw	a3,12(sp)
    800037aa:	3089                	addiw	ra,ra,-30
    800037ac:	9914                	.2byte	0x9914
    800037ae:	3095                	addiw	ra,ra,-27
    800037b0:	cd5f 30b8 735e      	.byte	0x5f, 0xcd, 0xb8, 0x30, 0x5e, 0x73
    800037b6:	30ee                	fld	ft1,248(sp)
    800037b8:	d0d4                	sw	a3,36(s1)
    800037ba:	30f6                	fld	ft1,376(sp)
    800037bc:	6af4                	ld	a3,208(a3)
    800037be:	3108                	fld	fa0,32(a0)
    800037c0:	1d65                	addi	s10,s10,-7
    800037c2:	3116                	fld	ft2,352(sp)
    800037c4:	31529973          	csrrw	s2,0x315,t0
    800037c8:	3170694b          	fnmsub.s	fs2,ft0,fs7,ft6,unknown
    800037cc:	31766a3f 3181e05e 	.8byte	0x3181e05e31766a3f
    800037d4:	318c2ea3          	sw	s8,797(s8)
    800037d8:	318c39e7          	.4byte	0x318c39e7
    800037dc:	8c7a                	mv	s8,t5
    800037de:	3198                	fld	fa4,32(a1)
    800037e0:	dfc5                	beqz	a5,80003798 <verify_data+0xbd0>
    800037e2:	31a6                	fld	ft3,104(sp)
    800037e4:	31bc1683          	lh	a3,795(s8)
    800037e8:	0fec                	addi	a1,sp,988
    800037ea:	31c6                	fld	ft3,112(sp)
    800037ec:	d196                	sw	t0,224(sp)
    800037ee:	31cc                	fld	fa1,160(a1)
    800037f0:	0a74                	addi	a3,sp,284
    800037f2:	31d9                	addiw	gp,gp,-10 # ffffffff800073be <dram_end_address_reg+0xfffffffeb00073ae>
    800037f4:	58ee                	lw	a7,248(sp)
    800037f6:	fa4731e3          	.4byte	0xfa4731e3
    800037fa:	100a31e3          	.4byte	0x100a31e3
    800037fe:	31ec                	fld	fa1,224(a1)
    80003800:	de75                	beqz	a2,800037fc <verify_data+0xc34>
    80003802:	3209                	addiw	tp,tp,-30 # ffffffffffffffe2 <dram_end_address_reg+0xffffffff2fffffd2>
    80003804:	3213004b          	fnmsub.d	ft0,ft6,ft1,ft6,rne
    80003808:	6e71                	lui	t3,0x1c
    8000380a:	324a                	fld	ft4,176(sp)
    8000380c:	324f49f7          	.4byte	0x324f49f7
    80003810:	5676                	lw	a2,124(sp)
    80003812:	3268                	fld	fa0,224(a2)
    80003814:	e084                	sd	s1,0(s1)
    80003816:	326e                	fld	ft4,248(sp)
    80003818:	dd86                	sw	ra,248(sp)
    8000381a:	3276                	fld	ft4,376(sp)
    8000381c:	19a6                	slli	s3,s3,0x29
    8000381e:	3280                	fld	fs0,32(a3)
    80003820:	9e1e                	add	t3,t3,t2
    80003822:	328d                	addiw	t0,t0,-29
    80003824:	32919983          	lh	s3,809(gp) # 800076f1 <__global_pointer$+0x329>
    80003828:	2dde                	fld	fs11,464(sp)
    8000382a:	32a2                	fld	ft5,40(sp)
    8000382c:	24ff                	.2byte	0x24ff
    8000382e:	32be                	fld	ft5,488(sp)
    80003830:	29b6                	fld	fs3,328(sp)
    80003832:	32c4                	fld	fs1,160(a3)
    80003834:	a565                	j	80003edc <verify_data+0x1314>
    80003836:	32cd                	addiw	t0,t0,-13
    80003838:	6a74                	ld	a3,208(a2)
    8000383a:	32ce                	fld	ft5,240(sp)
    8000383c:	3d32                	fld	fs10,296(sp)
    8000383e:	32d5                	addiw	t0,t0,-11
    80003840:	127e                	slli	tp,tp,0x3f
    80003842:	32e0                	fld	fs0,224(a3)
    80003844:	32ee431b          	.4byte	0x32ee431b
    80003848:	e815                	bnez	s0,8000387c <verify_data+0xcb4>
    8000384a:	ffd432f7          	.4byte	0xffd432f7
    8000384e:	330e                	fld	ft6,224(sp)
    80003850:	4b8a                	lw	s7,128(sp)
    80003852:	3312                	fld	ft6,288(sp)
    80003854:	33226d3b          	.4byte	0x33226d3b
    80003858:	bb69                	j	800035f2 <verify_data+0xa2a>
    8000385a:	3324                	fld	fs1,96(a4)
    8000385c:	57fc                	lw	a5,108(a5)
    8000385e:	3326                	fld	ft6,104(sp)
    80003860:	3085                	addiw	ra,ra,-31
    80003862:	3339                	addiw	t1,t1,-18
    80003864:	a3bc                	fsd	fa5,64(a5)
    80003866:	333c                	fld	fa5,96(a4)
    80003868:	3348100b          	.4byte	0x3348100b
    8000386c:	bf5f 3378 37b1      	.byte	0x5f, 0xbf, 0x78, 0x33, 0xb1, 0x37
    80003872:	337a                	fld	ft6,440(sp)
    80003874:	9944                	.2byte	0x9944
    80003876:	339f 69aa 33a5      	.byte	0x9f, 0x33, 0xaa, 0x69, 0xa5, 0x33
    8000387c:	26c9                	addiw	a3,a3,18
    8000387e:	d57033ab          	.4byte	0xd57033ab
    80003882:	33ac                	fld	fa1,96(a5)
    80003884:	f61d                	bnez	a2,800037b2 <verify_data+0xbea>
    80003886:	33b6                	fld	ft7,360(sp)
    80003888:	e796                	sd	t0,456(sp)
    8000388a:	33d8                	fld	fa4,160(a5)
    8000388c:	33f842cb          	fnmsub.d	ft5,fa6,ft11,ft6,rmm
    80003890:	34127047          	.4byte	0x34127047
    80003894:	3417d43b          	.4byte	0x3417d43b
    80003898:	86a9                	srai	a3,a3,0xa
    8000389a:	341a                	fld	fs0,416(sp)
    8000389c:	342ec987          	.4byte	0x342ec987
    800038a0:	b01d                	j	800030c6 <verify_data+0x4fe>
    800038a2:	3438                	fld	fa4,104(s0)
    800038a4:	c77a                	sw	t5,140(sp)
    800038a6:	345f 935e 3460      	.byte	0x5f, 0x34, 0x5e, 0x93, 0x60, 0x34
    800038ac:	b74e                	fsd	fs3,424(sp)
    800038ae:	3462                	fld	fs0,56(sp)
    800038b0:	47ff                	.2byte	0x47ff
    800038b2:	346a                	fld	fs0,184(sp)
    800038b4:	e798                	sd	a4,8(a5)
    800038b6:	346c                	fld	fa1,232(s0)
    800038b8:	e0a8                	sd	a0,64(s1)
    800038ba:	3471                	addiw	s0,s0,-4
    800038bc:	b34e                	fsd	fs3,416(sp)
    800038be:	347a                	fld	fs0,440(sp)
    800038c0:	347e3b97          	auipc	s7,0x347e3
    800038c4:	3491fb3f 34968f93 	.8byte	0x34968f933491fb3f
    800038cc:	3499a707          	flw	fa4,841(s3)
    800038d0:	5b28                	lw	a0,112(a4)
    800038d2:	34cd                	addiw	s1,s1,-13
    800038d4:	3644                	fld	fs1,168(a2)
    800038d6:	34de                	fld	fs1,496(sp)
    800038d8:	6341                	lui	t1,0x10
    800038da:	5cce34eb          	.4byte	0x5cce34eb
    800038de:	6b953513          	sltiu	a0,a0,1721
    800038e2:	3526                	fld	fa0,104(sp)
    800038e4:	99c5                	andi	a1,a1,-15
    800038e6:	2e883533          	.4byte	0x2e883533
    800038ea:	3539                	addiw	a0,a0,-18
    800038ec:	b79f 353e 36c6      	.byte	0x9f, 0xb7, 0x3e, 0x35, 0xc6, 0x36
    800038f2:	b68b3543          	.4byte	0xb68b3543
    800038f6:	3548                	fld	fa0,168(a0)
    800038f8:	1a2c                	addi	a1,sp,312
    800038fa:	3555                	addiw	a0,a0,-11
    800038fc:	a8ed                	j	800039f6 <verify_data+0xe2e>
    800038fe:	d7583557          	.4byte	0xd7583557
    80003902:	3559                	addiw	a0,a0,-10
    80003904:	3150                	fld	fa2,160(a0)
    80003906:	3561                	addiw	a0,a0,-8
    80003908:	05a2                	slli	a1,a1,0x8
    8000390a:	3594                	fld	fa3,40(a1)
    8000390c:	35ae                	fld	fa1,232(sp)
    8000390e:	35c0                	fld	fs0,168(a1)
    80003910:	5411                	li	s0,-28
    80003912:	35e6                	fld	fa1,120(sp)
    80003914:	360e2f13          	slti	t5,t3,864
    80003918:	3615d7bf 36182d7f 	.8byte	0x36182d7f3615d7bf
    80003920:	69d9                	lui	s3,0x16
    80003922:	3632                	fld	fa2,296(sp)
    80003924:	93c9                	srli	a5,a5,0x32
    80003926:	3634                	fld	fa3,104(a2)
    80003928:	d420                	sw	s0,104(s0)
    8000392a:	d5de3647          	.4byte	0xd5de3647
    8000392e:	3661                	addiw	a2,a2,-8
    80003930:	5b94                	lw	a3,48(a5)
    80003932:	3688                	fld	fa0,40(a3)
    80003934:	42ad                	li	t0,11
    80003936:	3698                	fld	fa4,40(a3)
    80003938:	2b51                	addiw	s6,s6,20
    8000393a:	369a                	fld	fa3,416(sp)
    8000393c:	10ae                	slli	ra,ra,0x2b
    8000393e:	36b0                	fld	fa2,104(a3)
    80003940:	36bd5793          	.4byte	0x36bd5793
    80003944:	36d21197          	auipc	gp,0x36d21
    80003948:	181a                	slli	a6,a6,0x26
    8000394a:	36ee                	fld	fa3,248(sp)
    8000394c:	712a                	ld	sp,168(sp)
    8000394e:	2af736f7          	.4byte	0x2af736f7
    80003952:	953f370b          	.4byte	0x953f370b
    80003956:	6219370f          	.4byte	0x6219370f
    8000395a:	99ac371b          	.4byte	0x99ac371b
    8000395e:	42b9372b          	.4byte	0x42b9372b
    80003962:	3731                	addiw	a4,a4,-20
    80003964:	b46e                	fsd	fs11,40(sp)
    80003966:	3734                	fld	fa3,104(a4)
    80003968:	f7b8                	sd	a4,104(a5)
    8000396a:	98ff373f e5553741 	.8byte	0xe555374198ff373f
    80003972:	3748                	fld	fa0,168(a4)
    80003974:	3752e6c7          	.4byte	0x3752e6c7
    80003978:	375ced43          	.4byte	0x375ced43
    8000397c:	c88e                	sw	gp,80(sp)
    8000397e:	3764                	fld	fs1,232(a4)
    80003980:	3774479b          	.4byte	0x3774479b
    80003984:	a8b1                	j	800039e0 <verify_data+0xe18>
    80003986:	a7273793          	sltiu	a5,a4,-1422
    8000398a:	37a5                	addiw	a5,a5,-23
    8000398c:	37a6bc03          	ld	s8,890(a3)
    80003990:	74e5                	lui	s1,0xffff9
    80003992:	37ac                	fld	fa1,104(a5)
    80003994:	66c0                	ld	s0,136(a3)
    80003996:	37b6                	fld	fa5,360(sp)
    80003998:	7574                	ld	a3,232(a0)
    8000399a:	37c2                	fld	fa5,48(sp)
    8000399c:	37c3b8f7          	.4byte	0x37c3b8f7
    800039a0:	7da5                	lui	s11,0xfffe9
    800039a2:	37c5                	addiw	a5,a5,-15
    800039a4:	37c94eb3          	.4byte	0x37c94eb3
    800039a8:	b958                	fsd	fa4,176(a0)
    800039aa:	37da                	fld	fa5,432(sp)
    800039ac:	626c                	ld	a1,192(a2)
    800039ae:	37e8                	fld	fa0,232(a5)
    800039b0:	8c39                	xor	s0,s0,a4
    800039b2:	37e8                	fld	fa0,232(a5)
    800039b4:	9834                	.2byte	0x9834
    800039b6:	37ff                	.2byte	0x37ff
    800039b8:	b6ea                	fsd	fs10,360(sp)
    800039ba:	381d                	addiw	a6,a6,-25
    800039bc:	b3cd                	j	8000379e <verify_data+0xbd6>
    800039be:	3834                	fld	fa3,112(s0)
    800039c0:	578e                	lw	a5,224(sp)
    800039c2:	3842                	fld	fa6,48(sp)
    800039c4:	20f1                	addiw	ra,ra,28
    800039c6:	384a                	fld	fa6,176(sp)
    800039c8:	092d                	addi	s2,s2,11
    800039ca:	3862                	fld	fa6,56(sp)
    800039cc:	38679167          	.4byte	0x38679167
    800039d0:	4d02                	lw	s10,0(sp)
    800039d2:	3869                	addiw	a6,a6,-6
    800039d4:	386a4a27          	.4byte	0x386a4a27
    800039d8:	cfc9                	beqz	a5,80003a72 <verify_data+0xeaa>
    800039da:	c145388b          	.4byte	0xc145388b
    800039de:	3890                	fld	fa2,48(s1)
    800039e0:	3893fc2f          	.4byte	0x3893fc2f
    800039e4:	ffda                	sd	s6,504(sp)
    800039e6:	389f 05d1 38b3      	.byte	0x9f, 0x38, 0xd1, 0x05, 0xb3, 0x38
    800039ec:	38b93c73          	csrrc	s8,0x38b,s2
    800039f0:	f23d                	bnez	a2,80003956 <verify_data+0xd8e>
    800039f2:	38ca                	fld	fa7,176(sp)
    800039f4:	7b46                	ld	s6,112(sp)
    800039f6:	023138d3          	fadd.d	fa7,ft2,ft3,rup
    800039fa:	a07c38db          	.4byte	0xa07c38db
    800039fe:	db9c38e3          	.4byte	0xdb9c38e3
    80003a02:	38ea                	fld	fa7,184(sp)
    80003a04:	4292                	lw	t0,4(sp)
    80003a06:	3b0338eb          	.4byte	0x3b0338eb
    80003a0a:	bd26390b          	.4byte	0xbd26390b
    80003a0e:	3925                	addiw	s2,s2,-23
    80003a10:	9561                	srai	a0,a0,0x38
    80003a12:	392e                	fld	fs2,232(sp)
    80003a14:	6cd4                	ld	a3,152(s1)
    80003a16:	c9d63947          	fmsub.s	fs2,fa2,ft9,fs9,rup
    80003a1a:	397a                	fld	fs2,440(sp)
    80003a1c:	35c4                	fld	fs1,168(a1)
    80003a1e:	398c                	fld	fa1,48(a1)
    80003a20:	398d5073          	csrwi	0x398,26
    80003a24:	399987cf          	fnmadd.s	fa5,fs3,fs9,ft7,rne
    80003a28:	737c                	ld	a5,224(a4)
    80003a2a:	eec339bf 6d6839c2 	.8byte	0x6d6839c2eec339bf
    80003a32:	39c6                	fld	fs3,112(sp)
    80003a34:	3b7f                	.2byte	0x3b7f
    80003a36:	674339c7          	.4byte	0x674339c7
    80003a3a:	39c9                	addiw	s3,s3,-14 # 15ff2 <buflen.0+0x15fb2>
    80003a3c:	fdf6                	sd	t4,248(sp)
    80003a3e:	708e39d3          	.4byte	0x708e39d3
    80003a42:	39f0                	fld	fa2,240(a1)
    80003a44:	6835                	lui	a6,0xd
    80003a46:	3a04                	fld	fs1,48(a2)
    80003a48:	493e                	lw	s2,204(sp)
    80003a4a:	3a06                	fld	fs4,96(sp)
    80003a4c:	56e2                	lw	a3,56(sp)
    80003a4e:	3a06                	fld	fs4,96(sp)
    80003a50:	3a0a8c2b          	.4byte	0x3a0a8c2b
    80003a54:	cef4                	sw	a3,92(a3)
    80003a56:	3a2c                	fld	fa1,112(a2)
    80003a58:	8a86                	mv	s5,ra
    80003a5a:	3a2d                	addiw	s4,s4,-21 # 11feb <buflen.0+0x11fab>
    80003a5c:	c658                	sw	a4,12(a2)
    80003a5e:	3a42                	fld	fs4,48(sp)
    80003a60:	3a49aebb          	.4byte	0x3a49aebb
    80003a64:	de5c                	sw	a5,60(a2)
    80003a66:	3a4e                	fld	fs4,240(sp)
    80003a68:	56ec                	lw	a1,108(a3)
    80003a6a:	3a74                	fld	fa3,240(a2)
    80003a6c:	c985                	beqz	a1,80003a9c <verify_data+0xed4>
    80003a6e:	3a76                	fld	fs4,376(sp)
    80003a70:	3a980e8b          	.4byte	0x3a980e8b
    80003a74:	3aba90eb          	.4byte	0x3aba90eb
    80003a78:	3ac8d43b          	.4byte	0x3ac8d43b
    80003a7c:	0afe                	slli	s5,s5,0x1f
    80003a7e:	3ae0                	fld	fs0,240(a3)
    80003a80:	4361                	li	t1,24
    80003a82:	3aea                	fld	fs5,184(sp)
    80003a84:	3b13e5b7          	lui	a1,0x3b13e
    80003a88:	cef1                	beqz	a3,80003b64 <verify_data+0xf9c>
    80003a8a:	3b1e                	fld	fs6,480(sp)
    80003a8c:	fafd                	bnez	a3,80003a82 <verify_data+0xeba>
    80003a8e:	3b26                	fld	fs6,104(sp)
    80003a90:	fdc5                	bnez	a1,80003a48 <verify_data+0xe80>
    80003a92:	fc5c3b37          	lui	s6,0xfc5c3
    80003a96:	af763b3b          	.4byte	0xaf763b3b
    80003a9a:	ed023b43          	.4byte	0xed023b43
    80003a9e:	3b76                	fld	fs6,376(sp)
    80003aa0:	7cce                	ld	s9,240(sp)
    80003aa2:	3b8a                	fld	fs7,160(sp)
    80003aa4:	07e4                	addi	s1,sp,972
    80003aa6:	d0de3b8f          	.4byte	0xd0de3b8f
    80003aaa:	3b90                	fld	fa2,48(a5)
    80003aac:	3b99408f          	.4byte	0x3b99408f
    80003ab0:	3eb0                	fld	fa2,120(a3)
    80003ab2:	3c06                	fld	fs8,96(sp)
    80003ab4:	e4c1                	bnez	s1,80003b3c <verify_data+0xf74>
    80003ab6:	3c39                	addiw	s8,s8,-18
    80003ab8:	02ec                	addi	a1,sp,332
    80003aba:	3c49                	addiw	s8,s8,-14
    80003abc:	de19                	beqz	a2,800039da <verify_data+0xe12>
    80003abe:	3c49                	addiw	s8,s8,-14
    80003ac0:	bdbd                	j	8000393e <verify_data+0xd76>
    80003ac2:	3a763c4b          	fnmsub.d	fs8,fa2,ft7,ft7,rup
    80003ac6:	e86b3c5b          	.4byte	0xe86b3c5b
    80003aca:	3c6e                	fld	fs8,248(sp)
    80003acc:	1752                	slli	a4,a4,0x34
    80003ace:	3c96                	fld	fs9,352(sp)
    80003ad0:	3c985217          	auipc	tp,0x3c985
    80003ad4:	8b6a                	mv	s6,s10
    80003ad6:	3ccc                	fld	fa1,184(s1)
    80003ad8:	71b9                	lui	gp,0xfffee
    80003ada:	a1413cdb          	.4byte	0xa1413cdb
    80003ade:	0d013cf7          	.4byte	0xd013cf7
    80003ae2:	3d1a                	fld	fs10,416(sp)
    80003ae4:	bfe5                	j	80003adc <verify_data+0xf14>
    80003ae6:	3d2c                	fld	fa1,120(a0)
    80003ae8:	54be                	lw	s1,236(sp)
    80003aea:	3d2d                	addiw	s10,s10,-21
    80003aec:	5ae1                	li	s5,-8
    80003aee:	3d42                	fld	fs10,48(sp)
    80003af0:	3d4262f7          	.4byte	0x3d4262f7
    80003af4:	1d74                	addi	a3,sp,700
    80003af6:	3d4e                	fld	fs10,240(sp)
    80003af8:	8d0c                	.2byte	0x8d0c
    80003afa:	3d52                	fld	fs10,304(sp)
    80003afc:	56d6                	lw	a3,116(sp)
    80003afe:	3d54                	fld	fa3,184(a0)
    80003b00:	fb3a                	sd	a4,432(sp)
    80003b02:	742a3d57          	.4byte	0x742a3d57
    80003b06:	3d5a                	fld	fs10,432(sp)
    80003b08:	00fc                	addi	a5,sp,76
    80003b0a:	3d62                	fld	fs10,56(sp)
    80003b0c:	592a                	lw	s2,168(sp)
    80003b0e:	3d7d                	addiw	s10,s10,-1
    80003b10:	7fc4                	ld	s1,184(a5)
    80003b12:	3d8e                	fld	fs11,224(sp)
    80003b14:	3d9105a3          	sb	s9,971(sp)
    80003b18:	38e6                	fld	fa7,120(sp)
    80003b1a:	3da0                	fld	fs0,120(a1)
    80003b1c:	ffa0                	sd	s0,120(a5)
    80003b1e:	3db1                	addiw	s11,s11,-20 # fffffffffffe8fec <dram_end_address_reg+0xffffffff2ffe8fdc>
    80003b20:	3dbf7153          	.4byte	0x3dbf7153
    80003b24:	50ad                	li	ra,-21
    80003b26:	e9283dd7          	.4byte	0xe9283dd7
    80003b2a:	3dde                	fld	fs11,496(sp)
    80003b2c:	4c2e                	lw	s8,200(sp)
    80003b2e:	b7773deb          	.4byte	0xb7773deb
    80003b32:	0a4d3e27          	fsd	ft4,188(s10)
    80003b36:	3e2a                	fld	ft8,168(sp)
    80003b38:	f67f                	.2byte	0xf67f
    80003b3a:	3e38                	fld	fa4,120(a2)
    80003b3c:	3e3b8743          	.4byte	0x3e3b8743
    80003b40:	3e5303f7          	.4byte	0x3e5303f7
    80003b44:	79d1                	lui	s3,0xffff4
    80003b46:	17143e53          	.4byte	0x17143e53
    80003b4a:	3e6d                	addiw	t3,t3,-5 # 1bffb <buflen.0+0x1bfbb>
    80003b4c:	99ec                	.2byte	0x99ec
    80003b4e:	3e85                	addiw	t4,t4,-31
    80003b50:	b8b0                	fsd	fa2,112(s1)
    80003b52:	3e8d                	addiw	t4,t4,-29
    80003b54:	6ce8                	ld	a0,216(s1)
    80003b56:	8b753e9b          	.4byte	0x8b753e9b
    80003b5a:	3e9d                	addiw	t4,t4,-25
    80003b5c:	ccad                	beqz	s1,80003bd6 <verify_data+0x100e>
    80003b5e:	c5723ea7          	fsd	fs7,-931(tp) # bc98872d <_tbss_end+0x3c97fae9>
    80003b62:	99263ed3          	.4byte	0x99263ed3
    80003b66:	3f00                	fld	fs0,56(a4)
    80003b68:	227f                	.2byte	0x227f
    80003b6a:	3f1a                	fld	ft10,416(sp)
    80003b6c:	1b75                	addi	s6,s6,-3 # fffffffffc5c2ffd <dram_end_address_reg+0xffffffff2c5c2fed>
    80003b6e:	3f1e                	fld	ft10,480(sp)
    80003b70:	c5ee                	sw	s11,200(sp)
    80003b72:	3f4a                	fld	ft10,176(sp)
    80003b74:	204c                	fld	fa1,128(s0)
    80003b76:	3f66                	fld	ft10,120(sp)
    80003b78:	7168                	ld	a0,224(a0)
    80003b7a:	d17c3f67          	.4byte	0xd17c3f67
    80003b7e:	e53c3f67          	.4byte	0xe53c3f67
    80003b82:	3f68                	fld	fa0,248(a4)
    80003b84:	b11e                	fsd	ft7,160(sp)
    80003b86:	3f7c                	fld	fa5,248(a4)
    80003b88:	f425                	bnez	s0,80003af0 <verify_data+0xf28>
    80003b8a:	3f81                	addiw	t6,t6,-32
    80003b8c:	156e                	slli	a0,a0,0x3b
    80003b8e:	3f8a                	fld	ft11,160(sp)
    80003b90:	3f95e34b          	.4byte	0x3f95e34b
    80003b94:	f67d                	bnez	a2,80003b82 <verify_data+0xfba>
    80003b96:	3fa4                	fld	fs1,120(a5)
    80003b98:	5aa8                	lw	a0,112(a3)
    80003b9a:	3fb1                	addiw	t6,t6,-20
    80003b9c:	91b1                	srli	a1,a1,0x2c
    80003b9e:	3fb4                	fld	fa3,120(a5)
    80003ba0:	83ba                	mv	t2,a4
    80003ba2:	3fbe                	fld	ft11,488(sp)
    80003ba4:	4afd                	li	s5,31
    80003ba6:	3fff                	.2byte	0x3fff
    80003ba8:	fa46                	sd	a7,304(sp)
    80003baa:	4001                	c.li	zero,0
    80003bac:	1229                	addi	tp,tp,-22 # ffffffffffffffea <dram_end_address_reg+0xffffffff2fffffda>
    80003bae:	d5c84007          	.4byte	0xd5c84007
    80003bb2:	401e                	.2byte	0x401e
    80003bb4:	7e40                	ld	s0,184(a2)
    80003bb6:	4025                	c.li	zero,9
    80003bb8:	4043fd5b          	.4byte	0x4043fd5b
    80003bbc:	405d5a9b          	sraiw	s5,s10,0x5
    80003bc0:	a050                	fsd	fa2,128(s0)
    80003bc2:	4085                	li	ra,1
    80003bc4:	345c                	fld	fa5,168(s0)
    80003bc6:	7651408b          	.4byte	0x7651408b
    80003bca:	c4ff408b          	.4byte	0xc4ff408b
    80003bce:	40b0                	lw	a2,64(s1)
    80003bd0:	4885                	li	a7,1
    80003bd2:	40cd                	li	ra,19
    80003bd4:	0d2d                	addi	s10,s10,11
    80003bd6:	40ce                	lw	ra,208(sp)
    80003bd8:	24f2                	fld	fs1,280(sp)
    80003bda:	40ce                	lw	ra,208(sp)
    80003bdc:	cc41                	beqz	s0,80003c74 <verify_data+0x10ac>
    80003bde:	40d2                	lw	ra,20(sp)
    80003be0:	a17a                	fsd	ft10,128(sp)
    80003be2:	40d5                	li	ra,21
    80003be4:	0dea                	slli	s11,s11,0x1a
    80003be6:	a95e40ef          	jal	ra,7ffe867a <buflen.0+0x7ffe863a>
    80003bea:	ad3840f3          	.4byte	0xad3840f3
    80003bee:	40f9                	li	ra,30
    80003bf0:	f865                	bnez	s0,80003be0 <verify_data+0x1018>
    80003bf2:	40fd                	li	ra,31
    80003bf4:	40fed847          	fmsub.s	fa6,ft9,fa5,fs0,unknown
    80003bf8:	411c6f63          	bltu	s8,a7,80004016 <verify_data+0x144e>
    80003bfc:	41240a87          	.4byte	0x41240a87
    80003c00:	6f6a                	ld	t5,152(sp)
    80003c02:	4139                	li	sp,14
    80003c04:	3ab2                	fld	fs5,296(sp)
    80003c06:	413d                	li	sp,15
    80003c08:	88ae                	mv	a7,a1
    80003c0a:	414a                	lw	sp,144(sp)
    80003c0c:	58f0                	lw	a2,116(s1)
    80003c0e:	418e                	lw	gp,192(sp)
    80003c10:	4ba0                	lw	s0,80(a5)
    80003c12:	4191                	li	gp,4
    80003c14:	07d4                	addi	a3,sp,964
    80003c16:	4192                	lw	gp,4(sp)
    80003c18:	41aaf2ef          	jal	t0,800b3032 <_tbss_end+0xaa3ee>
    80003c1c:	2be4                	fld	fs1,208(a5)
    80003c1e:	41ae                	lw	gp,200(sp)
    80003c20:	a764                	fsd	fs1,200(a4)
    80003c22:	41b5                	li	gp,13
    80003c24:	65ff                	.2byte	0x65ff
    80003c26:	41b8                	lw	a4,64(a1)
    80003c28:	a514                	fsd	fa3,8(a0)
    80003c2a:	41be                	lw	gp,204(sp)
    80003c2c:	94ba                	add	s1,s1,a4
    80003c2e:	41f6                	lw	gp,92(sp)
    80003c30:	422f2997          	auipc	s3,0x422f2
    80003c34:	c726                	sw	s1,140(sp)
    80003c36:	a0e2423b          	.4byte	0xa0e2423b
    80003c3a:	4248                	lw	a0,4(a2)
    80003c3c:	f095                	bnez	s1,80003b60 <verify_data+0xf98>
    80003c3e:	4252                	lw	tp,20(sp)
    80003c40:	9e80                	.2byte	0x9e80
    80003c42:	4261                	li	tp,24
    80003c44:	8d86                	mv	s11,ra
    80003c46:	42d0                	lw	a2,4(a3)
    80003c48:	42d7b4a3          	sd	a3,1065(a5)
    80003c4c:	42dd5013          	srai	zero,s10,0x2d
    80003c50:	42dfc0af          	.4byte	0x42dfc0af
    80003c54:	1664                	addi	s1,sp,812
    80003c56:	42ec                	lw	a1,68(a3)
    80003c58:	aca1                	j	80003eb0 <verify_data+0x12e8>
    80003c5a:	42f4                	lw	a3,68(a3)
    80003c5c:	1936                	slli	s2,s2,0x2d
    80003c5e:	42f8                	lw	a4,68(a3)
    80003c60:	430fbce7          	.4byte	0x430fbce7
    80003c64:	b1f5                	j	80003950 <verify_data+0xd88>
    80003c66:	431a                	lw	t1,132(sp)
    80003c68:	aba4                	fsd	fs1,80(a5)
    80003c6a:	431d                	li	t1,7
    80003c6c:	4d99                	li	s11,6
    80003c6e:	8fd1432f          	.4byte	0x8fd1432f
    80003c72:	433a                	lw	t1,140(sp)
    80003c74:	9488                	.2byte	0x9488
    80003c76:	4349                	li	t1,18
    80003c78:	6781                	.2byte	0x6781
    80003c7a:	c7ab4367          	.4byte	0xc7ab4367
    80003c7e:	0f3a4373          	.4byte	0xf3a4373
    80003c82:	4382                	lw	t2,0(sp)
    80003c84:	7015                	c.lui	zero,0xfffe5
    80003c86:	19f2438f          	.4byte	0x19f2438f
    80003c8a:	4396                	lw	t2,68(sp)
    80003c8c:	4adc                	lw	a5,20(a3)
    80003c8e:	439a                	lw	t2,132(sp)
    80003c90:	d65f 43b2 0354      	.byte	0x5f, 0xd6, 0xb2, 0x43, 0x54, 0x03
    80003c96:	43ba                	lw	t2,140(sp)
    80003c98:	6d74                	ld	a3,216(a0)
    80003c9a:	0be443bb          	.4byte	0xbe443bb
    80003c9e:	43cd                	li	t2,19
    80003ca0:	43e409b7          	lui	s3,0x43e40
    80003ca4:	3234                	fld	fa3,96(a2)
    80003ca6:	43e6                	lw	t2,88(sp)
    80003ca8:	247f                	.2byte	0x247f
    80003caa:	22f943f3          	.4byte	0x22f943f3
    80003cae:	43fe                	lw	t2,220(sp)
    80003cb0:	5c12                	lw	s8,36(sp)
    80003cb2:	99ca4423          	.4byte	0x99ca4423
    80003cb6:	4428                	lw	a0,72(s0)
    80003cb8:	d032                	sw	a2,32(sp)
    80003cba:	442d                	li	s0,11
    80003cbc:	5118                	lw	a4,32(a0)
    80003cbe:	4430                	lw	a2,72(s0)
    80003cc0:	463a                	lw	a2,140(sp)
    80003cc2:	443a                	lw	s0,140(sp)
    80003cc4:	44630ba3          	sb	t1,1111(t1) # 10457 <buflen.0+0x10417>
    80003cc8:	ef61                	bnez	a4,80003da0 <verify_data+0x11d8>
    80003cca:	4469                	li	s0,26
    80003ccc:	4477c207          	.4byte	0x4477c207
    80003cd0:	1402                	slli	s0,s0,0x20
    80003cd2:	447e                	lw	s0,220(sp)
    80003cd4:	82a8                	.2byte	0x82a8
    80003cd6:	3cf24497          	auipc	s1,0x3cf24
    80003cda:	79ab44af          	.4byte	0x79ab44af
    80003cde:	44b0                	lw	a2,72(s1)
    80003ce0:	7ed5                	lui	t4,0xffff5
    80003ce2:	44d5                	li	s1,21
    80003ce4:	e886                	sd	ra,80(sp)
    80003ce6:	44de                	lw	s1,212(sp)
    80003ce8:	44e034f3          	csrrc	s1,0x44e,zero
    80003cec:	be30                	fsd	fa2,120(a2)
    80003cee:	980f44f3          	.4byte	0x980f44f3
    80003cf2:	4500                	lw	s0,8(a0)
    80003cf4:	3ef5                	addiw	t4,t4,-3 # ffffffffffff4ffd <dram_end_address_reg+0xffffffff2fff4fed>
    80003cf6:	451f 4e25 4520      	.byte	0x1f, 0x45, 0x25, 0x4e, 0x20, 0x45
    80003cfc:	a5a0                	fsd	fs0,72(a1)
    80003cfe:	4522                	lw	a0,8(sp)
    80003d00:	bf66                	fsd	fs9,440(sp)
    80003d02:	4524                	lw	s1,72(a0)
    80003d04:	452708a7          	.4byte	0x452708a7
    80003d08:	45288ea3          	sb	s2,1117(a7)
    80003d0c:	452947fb          	.4byte	0x452947fb
    80003d10:	6738                	ld	a4,72(a4)
    80003d12:	452c                	lw	a1,72(a0)
    80003d14:	4f90                	lw	a2,24(a5)
    80003d16:	453c                	lw	a5,72(a0)
    80003d18:	14c2                	slli	s1,s1,0x30
    80003d1a:	454d                	li	a0,19
    80003d1c:	4f41                	li	t5,16
    80003d1e:	39da4577          	.4byte	0x39da4577
    80003d22:	2dac4583          	lbu	a1,730(s8)
    80003d26:	4592                	lw	a1,4(sp)
    80003d28:	45a55e33          	.4byte	0x45a55e33
    80003d2c:	8575                	srai	a0,a0,0x1d
    80003d2e:	45b2                	lw	a1,12(sp)
    80003d30:	91ea                	add	gp,gp,s10
    80003d32:	45c4                	lw	s1,12(a1)
    80003d34:	601e                	.2byte	0x601e
    80003d36:	45c8                	lw	a0,12(a1)
    80003d38:	d378                	sw	a4,100(a4)
    80003d3a:	45cc                	lw	a1,12(a1)
    80003d3c:	45da2b4b          	.4byte	0x45da2b4b
    80003d40:	45dfbae3          	.4byte	0x45dfbae3
    80003d44:	60d8                	ld	a4,128(s1)
    80003d46:	22c245f7          	.4byte	0x22c245f7
    80003d4a:	45f8                	lw	a4,76(a1)
    80003d4c:	c688                	sw	a0,8(a3)
    80003d4e:	4602                	lw	a2,0(sp)
    80003d50:	2449                	addiw	s0,s0,18
    80003d52:	4609                	li	a2,2
    80003d54:	952d                	srai	a0,a0,0x2b
    80003d56:	4616                	lw	a2,68(sp)
    80003d58:	2b82                	fld	fs7,0(sp)
    80003d5a:	4638                	lw	a4,72(a2)
    80003d5c:	d58c                	sw	a1,40(a1)
    80003d5e:	463a                	lw	a2,140(sp)
    80003d60:	20ae                	fld	ft1,200(sp)
    80003d62:	464e                	lw	a2,208(sp)
    80003d64:	5558                	lw	a4,44(a0)
    80003d66:	4656                	lw	a2,84(sp)
    80003d68:	465d649b          	.4byte	0x465d649b
    80003d6c:	8db4                	.2byte	0x8db4
    80003d6e:	3a7a4667          	.4byte	0x3a7a4667
    80003d72:	468a                	lw	a3,128(sp)
    80003d74:	fa54                	sd	a3,176(a2)
    80003d76:	469a                	lw	a3,132(sp)
    80003d78:	42ff                	.2byte	0x42ff
    80003d7a:	46ae                	lw	a3,200(sp)
    80003d7c:	46d09d13          	.4byte	0x46d09d13
    80003d80:	46dadd13          	.4byte	0x46dadd13
    80003d84:	db78                	sw	a4,116(a4)
    80003d86:	46e0                	lw	s0,76(a3)
    80003d88:	a1b8                	fsd	fa4,64(a1)
    80003d8a:	8a9e46e3          	blt	t3,s1,80003636 <verify_data+0xa6e>
    80003d8e:	6c8346fb          	.4byte	0x6c8346fb
    80003d92:	46fe                	lw	a3,220(sp)
    80003d94:	0e38                	addi	a4,sp,792
    80003d96:	4705                	li	a4,1
    80003d98:	dae5                	beqz	a3,80003d88 <verify_data+0x11c0>
    80003d9a:	470e                	lw	a4,192(sp)
    80003d9c:	9f7d                	.2byte	0x9f7d
    80003d9e:	d0aa472b          	.4byte	0xd0aa472b
    80003da2:	4735                	li	a4,13
    80003da4:	47c5                	li	a5,17
    80003da6:	ead3476b          	.4byte	0xead3476b
    80003daa:	1b49476b          	.4byte	0x1b49476b
    80003dae:	4775                	li	a4,29
    80003db0:	229c                	fld	fa5,0(a3)
    80003db2:	477c                	lw	a5,76(a4)
    80003db4:	4797b60f          	.4byte	0x4797b60f
    80003db8:	479820a3          	sw	s9,1121(a6) # d461 <buflen.0+0xd421>
    80003dbc:	ddb4                	sw	a3,120(a1)
    80003dbe:	479f 3740 47a5      	.byte	0x9f, 0x47, 0x40, 0x37, 0xa5, 0x47
    80003dc4:	8ad5                	andi	a3,a3,21
    80003dc6:	155447a7          	.4byte	0x155447a7
    80003dca:	47ba                	lw	a5,140(sp)
    80003dcc:	0524                	addi	s1,sp,648
    80003dce:	47c2                	lw	a5,16(sp)
    80003dd0:	b8f5                	j	800036cc <verify_data+0xb04>
    80003dd2:	47d2                	lw	a5,20(sp)
    80003dd4:	d05f 47da 8286      	.byte	0x5f, 0xd0, 0xda, 0x47, 0x86, 0x82
    80003dda:	47e0                	lw	s0,76(a5)
    80003ddc:	b732                	fsd	fa2,424(sp)
    80003dde:	47e6                	lw	a5,88(sp)
    80003de0:	481bd9f3          	csrrwi	s3,0x481,23
    80003de4:	0125                	addi	sp,sp,9
    80003de6:	481f 3db3 4847      	.byte	0x1f, 0x48, 0xb3, 0x3d, 0x47, 0x48
    80003dec:	8551                	srai	a0,a0,0x14
    80003dee:	484c                	lw	a1,20(s0)
    80003df0:	f4ee                	sd	s11,104(sp)
    80003df2:	4861                	li	a6,24
    80003df4:	adb0                	fsd	fa2,88(a1)
    80003df6:	486a                	lw	a6,152(sp)
    80003df8:	6559                	lui	a0,0x16
    80003dfa:	486c                	lw	a1,84(s0)
    80003dfc:	0341                	addi	t1,t1,16
    80003dfe:	486d                	li	a6,27
    80003e00:	4881f2b7          	lui	t0,0x4881f
    80003e04:	36f5                	addiw	a3,a3,-3
    80003e06:	4896                	lw	a7,68(sp)
    80003e08:	2d61                	addiw	s10,s10,24
    80003e0a:	48a1                	li	a7,8
    80003e0c:	48bfb5ef          	jal	a1,800ffa96 <_tbss_end+0xf6e52>
    80003e10:	b06d                	j	800036ba <verify_data+0xaf2>
    80003e12:	48c5                	li	a7,17
    80003e14:	a2c4                	fsd	fs1,128(a3)
    80003e16:	48c8                	lw	a0,20(s1)
    80003e18:	48d2104f          	fnmadd.s	ft0,ft4,fa3,fs1,rtz
    80003e1c:	48deb2b3          	.4byte	0x48deb2b3
    80003e20:	c11e                	sw	t2,128(sp)
    80003e22:	48ec                	lw	a1,84(s1)
    80003e24:	48ee3bd3          	.4byte	0x48ee3bd3
    80003e28:	662c                	ld	a1,72(a2)
    80003e2a:	48ee                	lw	a7,216(sp)
    80003e2c:	493e456f          	jal	a0,800e8abe <_tbss_end+0xdfe7a>
    80003e30:	2b3c                	fld	fa5,80(a4)
    80003e32:	44f24957          	.4byte	0x44f24957
    80003e36:	4961                	li	s2,24
    80003e38:	d92d                	beqz	a0,80003daa <verify_data+0x11e2>
    80003e3a:	4961                	li	s2,24
    80003e3c:	49635f53          	.4byte	0x49635f53
    80003e40:	523d                	li	tp,-17
    80003e42:	4969                	li	s2,26
    80003e44:	ccf5                	beqz	s1,80003f40 <verify_data+0x1378>
    80003e46:	496d                	li	s2,27
    80003e48:	49777d6b          	.4byte	0x49777d6b
    80003e4c:	f754                	sd	a3,168(a4)
    80003e4e:	497d                	li	s2,31
    80003e50:	6fb9                	lui	t6,0xe
    80003e52:	497e                	lw	s2,220(sp)
    80003e54:	c139                	beqz	a0,80003e9a <verify_data+0x12d2>
    80003e56:	c342498f          	.4byte	0xc342498f
    80003e5a:	cba1499b          	.4byte	0xcba1499b
    80003e5e:	49b049e3          	bgtz	s11,80004af0 <verify_data+0x1f28>
    80003e62:	49ed                	li	s3,27
    80003e64:	4a41b0ab          	.4byte	0x4a41b0ab
    80003e68:	4a5ba023          	sw	t0,1184(s7) # b47e6d60 <_tbss_end+0x347de11c>
    80003e6c:	8c9f 4a73 0635      	.byte	0x9f, 0x8c, 0x73, 0x4a, 0x35, 0x06
    80003e72:	4a75                	li	s4,29
    80003e74:	fd96                	sd	t0,248(sp)
    80003e76:	4a86                	lw	s5,64(sp)
    80003e78:	ca59                	beqz	a2,80003f0e <verify_data+0x1346>
    80003e7a:	4ad5                	li	s5,21
    80003e7c:	4699                	li	a3,6
    80003e7e:	4add                	li	s5,23
    80003e80:	5c10                	lw	a2,56(s0)
    80003e82:	4adf bad6 4ae2      	.byte	0xdf, 0x4a, 0xd6, 0xba, 0xe2, 0x4a
    80003e88:	0a4e                	slli	s4,s4,0x13
    80003e8a:	4af4                	lw	a3,84(a3)
    80003e8c:	4b27318b          	.4byte	0x4b27318b
    80003e90:	af6d                	j	8000464a <verify_data+0x1a82>
    80003e92:	4b3e                	lw	s6,204(sp)
    80003e94:	4b8786af          	.4byte	0x4b8786af
    80003e98:	3372                	fld	ft6,312(sp)
    80003e9a:	4bae                	lw	s7,200(sp)
    80003e9c:	91ec                	.2byte	0x91ec
    80003e9e:	d9bb4bc7          	fmsub.s	fs7,fs6,fs11,fs11,rmm
    80003ea2:	058c4be3          	blt	s8,s8,800046f8 <verify_data+0x1b30>
    80003ea6:	9b834bef          	jal	s7,7ff3805e <buflen.0+0x7ff3801e>
    80003eaa:	4bf2                	lw	s7,28(sp)
    80003eac:	5c1f 4bf6 040c      	.byte	0x1f, 0x5c, 0xf6, 0x4b, 0x0c, 0x04
    80003eb2:	4c04                	lw	s1,24(s0)
    80003eb4:	97d2                	add	a5,a5,s4
    80003eb6:	4c06                	lw	s8,64(sp)
    80003eb8:	58c2                	lw	a7,48(sp)
    80003eba:	4c11                	li	s8,4
    80003ebc:	8cce                	mv	s9,s3
    80003ebe:	4c2d                	li	s8,11
    80003ec0:	4c38983f 4c38dab4 	.8byte	0x4c38dab44c38983f
    80003ec8:	4c3ceec7          	.4byte	0x4c3ceec7
    80003ecc:	f69e                	sd	t2,360(sp)
    80003ece:	4c4a                	lw	s8,144(sp)
    80003ed0:	465f 4c61 7db2      	.byte	0x5f, 0x46, 0x61, 0x4c, 0xb2, 0x7d
    80003ed6:	e8004c9b          	.4byte	0xe8004c9b
    80003eda:	4cb5                	li	s9,13
    80003edc:	acda                	fsd	fs6,88(sp)
    80003ede:	4cb8                	lw	a4,88(s1)
    80003ee0:	4cc2bb0b          	.4byte	0x4cc2bb0b
    80003ee4:	c236                	sw	a3,4(sp)
    80003ee6:	47684ccf          	.4byte	0x47684ccf
    80003eea:	4cd9                	li	s9,22
    80003eec:	4ced7143          	.4byte	0x4ced7143
    80003ef0:	a049                	j	80003f72 <verify_data+0x13aa>
    80003ef2:	4cf2                	lw	s9,28(sp)
    80003ef4:	7b64                	ld	s1,240(a4)
    80003ef6:	2ba04cf3          	.4byte	0x2ba04cf3
    80003efa:	4cf4                	lw	a3,92(s1)
    80003efc:	cad2                	sw	s4,84(sp)
    80003efe:	4cf9                	li	s9,30
    80003f00:	1e4c                	addi	a1,sp,820
    80003f02:	aadb4d03          	lbu	s10,-1363(s6)
    80003f06:	4d08                	lw	a0,24(a0)
    80003f08:	4d130333          	.4byte	0x4d130333
    80003f0c:	345f 4d2e 799b      	.byte	0x5f, 0x34, 0x2e, 0x4d, 0x9b, 0x79
    80003f12:	4d4c                	lw	a1,28(a0)
    80003f14:	f848                	sd	a0,176(s0)
    80003f16:	4d60                	lw	s0,92(a0)
    80003f18:	5bb8                	lw	a4,112(a5)
    80003f1a:	1a904d77          	.4byte	0x1a904d77
    80003f1e:	4d9f fe51 4da5      	.byte	0x9f, 0x4d, 0x51, 0xfe, 0xa5, 0x4d
    80003f24:	6f29                	lui	t5,0xa
    80003f26:	4db5                	li	s11,13
    80003f28:	cec0                	sw	s0,28(a3)
    80003f2a:	4dc9                	li	s11,18
    80003f2c:	4e03cf67          	.4byte	0x4e03cf67
    80003f30:	b8a4                	fsd	fs1,112(s1)
    80003f32:	82044e17          	auipc	t3,0x82044
    80003f36:	4e34                	lw	a3,88(a2)
    80003f38:	b850                	fsd	fa2,176(s0)
    80003f3a:	4e3a                	lw	t3,140(sp)
    80003f3c:	4e448da7          	.4byte	0x4e448da7
    80003f40:	4e4c9107          	.4byte	0x4e4c9107
    80003f44:	1808                	addi	a0,sp,48
    80003f46:	4e50                	lw	a2,28(a2)
    80003f48:	6961                	lui	s2,0x18
    80003f4a:	4e72                	lw	t3,28(sp)
    80003f4c:	0276                	slli	tp,tp,0x1d
    80003f4e:	4e81                	li	t4,0
    80003f50:	e729                	bnez	a4,80003f9a <verify_data+0x13d2>
    80003f52:	4e82                	lw	t4,0(sp)
    80003f54:	94d2                	add	s1,s1,s4
    80003f56:	d2144e8f          	.4byte	0xd2144e8f
    80003f5a:	4e9c                	lw	a5,24(a3)
    80003f5c:	4eaa874f          	.4byte	0x4eaa874f
    80003f60:	8f85                	sub	a5,a5,s1
    80003f62:	4eca                	lw	t4,144(sp)
    80003f64:	687e                	ld	a6,472(sp)
    80003f66:	4ed0                	lw	a2,28(a3)
    80003f68:	4ed6bee3          	.4byte	0x4ed6bee3
    80003f6c:	9124                	.2byte	0x9124
    80003f6e:	85ea4ee7          	.4byte	0x85ea4ee7
    80003f72:	4eec                	lw	a1,92(a3)
    80003f74:	aeb6                	fsd	fa3,344(sp)
    80003f76:	4ef5                	li	t4,29
    80003f78:	4efa053b          	.4byte	0x4efa053b
    80003f7c:	2d0a                	fld	fs10,128(sp)
    80003f7e:	6b084efb          	.4byte	0x6b084efb
    80003f82:	4f09                	li	t5,2
    80003f84:	d49f 4f2b 2e2c      	.byte	0x9f, 0xd4, 0x2b, 0x4f, 0x2c, 0x2e
    80003f8a:	4f35                	li	t5,13
    80003f8c:	4c14                	lw	a3,24(s0)
    80003f8e:	82e34f5b          	.4byte	0x82e34f5b
    80003f92:	4f5e                	lw	t5,212(sp)
    80003f94:	7e0c                	ld	a1,56(a2)
    80003f96:	4f6a                	lw	t5,152(sp)
    80003f98:	d6f6                	sw	t4,108(sp)
    80003f9a:	2e644f6b          	.4byte	0x2e644f6b
    80003f9e:	4f6e                	lw	t5,216(sp)
    80003fa0:	4f730137          	lui	sp,0x4f730
    80003fa4:	0661                	addi	a2,a2,24
    80003fa6:	4f80                	lw	s0,24(a5)
    80003fa8:	4e44                	lw	s1,28(a2)
    80003faa:	4f90                	lw	a2,24(a5)
    80003fac:	177e                	slli	a4,a4,0x3f
    80003fae:	4f96                	lw	t6,68(sp)
    80003fb0:	08d9                	addi	a7,a7,22
    80003fb2:	6eff4f97          	auipc	t6,0x6eff4
    80003fb6:	4f9c                	lw	a5,24(a5)
    80003fb8:	9f10                	.2byte	0x9f10
    80003fba:	4f9f 6481 4fa3      	.byte	0x9f, 0x4f, 0x81, 0x64, 0xa3, 0x4f
    80003fc0:	94c6                	add	s1,s1,a7
    80003fc2:	4fa9                	li	t6,10
    80003fc4:	3271                	addiw	tp,tp,-4 # fffffffffffffffc <dram_end_address_reg+0xffffffff2fffffec>
    80003fc6:	a3944fb7          	lui	t6,0xa3944
    80003fca:	4fc1                	li	t6,16
    80003fcc:	fda0                	sd	s0,120(a1)
    80003fce:	44314fd3          	.4byte	0x44314fd3
    80003fd2:	4fed                	li	t6,27
    80003fd4:	b9ad                	j	80003c4e <verify_data+0x1086>
    80003fd6:	501d                	c.li	zero,-25
    80003fd8:	495f 502b d8ac      	.byte	0x5f, 0x49, 0x2b, 0x50, 0xac, 0xd8
    80003fde:	5030                	lw	a2,96(s0)
    80003fe0:	503866b3          	.4byte	0x503866b3
    80003fe4:	259f 503a ed35      	.byte	0x9f, 0x25, 0x3a, 0x50, 0x35, 0xed
    80003fea:	504d                	c.li	zero,-13
    80003fec:	5c0d                	li	s8,-29
    80003fee:	505e                	.2byte	0x505e
    80003ff0:	8da5                	xor	a1,a1,s1
    80003ff2:	505e                	.2byte	0x505e
    80003ff4:	5615                	li	a2,-27
    80003ff6:	5081                	li	ra,-32
    80003ff8:	9ad6                	add	s5,s5,s5
    80003ffa:	50a2                	lw	ra,40(sp)
    80003ffc:	5896                	lw	a7,100(sp)
    80003ffe:	636650a7          	.4byte	0x636650a7
    80004002:	50b4                	lw	a3,96(s1)
    80004004:	fc05                	bnez	s0,80003f3c <verify_data+0x1374>
    80004006:	50c4                	lw	s1,36(s1)
    80004008:	a0ae                	fsd	fa1,64(sp)
    8000400a:	50c9                	li	ra,-14
    8000400c:	50dfdaef          	jal	s5,80101d18 <_tbss_end+0xf90d4>
    80004010:	67d5                	lui	a5,0x15
    80004012:	511f 6762 5120      	.byte	0x1f, 0x51, 0x62, 0x67, 0x20, 0x51
    80004018:	b562                	fsd	fs8,168(sp)
    8000401a:	5162                	lw	sp,56(sp)
    8000401c:	eb98                	sd	a4,16(a5)
    8000401e:	5185                	li	gp,-31
    80004020:	518d9d7b          	.4byte	0x518d9d7b
    80004024:	9932                	add	s2,s2,a2
    80004026:	51b0                	lw	a2,96(a1)
    80004028:	a63a                	fsd	fa4,264(sp)
    8000402a:	51c9                	li	gp,-14
    8000402c:	3fa1                	addiw	t6,t6,-24 # ffffffffa3943fe8 <dram_end_address_reg+0xfffffffed3943fd8>
    8000402e:	51e5                	li	gp,-7
    80004030:	7c82                	ld	s9,32(sp)
    80004032:	049e51e7          	.4byte	0x49e51e7
    80004036:	51fc                	lw	a5,100(a1)
    80004038:	8b7a                	mv	s6,t5
    8000403a:	5222                	lw	tp,40(sp)
    8000403c:	5235d287          	.4byte	0x5235d287
    80004040:	e641                	bnez	a2,800040c8 <verify_data+0x1500>
    80004042:	5238                	lw	a4,96(a2)
    80004044:	10ed                	addi	ra,ra,-5
    80004046:	5241                	li	tp,-16
    80004048:	34f5                	addiw	s1,s1,-3 # ffffffffbcf27cd3 <dram_end_address_reg+0xfffffffeecf27cc3>
    8000404a:	5266                	lw	tp,120(sp)
    8000404c:	52670823          	sb	t1,1328(a4)
    80004050:	52680fd7          	.4byte	0x52680fd7
    80004054:	4906                	lw	s2,64(sp)
    80004056:	526d                	li	tp,-5
    80004058:	9a3e                	add	s4,s4,a5
    8000405a:	adf35273          	csrrwi	tp,0xadf,6
    8000405e:	5278                	lw	a4,100(a2)
    80004060:	5282f6af          	.4byte	0x5282f6af
    80004064:	b9a9                	j	80003cbe <verify_data+0x10f6>
    80004066:	9ede5297          	auipc	t0,0x9ede5
    8000406a:	52a0                	lw	s0,96(a3)
    8000406c:	47ea                	lw	a5,152(sp)
    8000406e:	52a2                	lw	t0,40(sp)
    80004070:	8c68                	.2byte	0x8c68
    80004072:	52ac                	lw	a1,96(a3)
    80004074:	2390                	fld	fa2,0(a5)
    80004076:	52b9                	li	t0,-18
    80004078:	cb54                	sw	a3,20(a4)
    8000407a:	52c6                	lw	t0,112(sp)
    8000407c:	52d6793b          	.4byte	0x52d6793b
    80004080:	52d9061b          	addiw	a2,s2,1325 # 1852d <buflen.0+0x184ed>
    80004084:	52da5463          	bge	s4,a3,800045ac <verify_data+0x19e4>
    80004088:	e6d4                	sd	a3,136(a3)
    8000408a:	52dd                	li	t0,-9
    8000408c:	6649                	lui	a2,0x12
    8000408e:	52de                	lw	t0,244(sp)
    80004090:	02a1                	addi	t0,t0,8 # 1ede906e <buflen.0+0x1ede902e>
    80004092:	52e1                	li	t0,-8
    80004094:	bc78                	fsd	fa4,248(s0)
    80004096:	70bb52e3          	bge	s6,a1,80004f9a <input_data+0x3d2>
    8000409a:	52ea                	lw	t0,184(sp)
    8000409c:	9892                	add	a7,a7,tp
    8000409e:	52f5                	li	t0,-3
    800040a0:	b766                	fsd	fs9,424(sp)
    800040a2:	52fa                	lw	t0,188(sp)
    800040a4:	5324eef7          	.4byte	0x5324eef7
    800040a8:	5328610f          	.4byte	0x5328610f
    800040ac:	6e6c                	ld	a1,216(a2)
    800040ae:	532a                	lw	t1,168(sp)
    800040b0:	5f7c                	lw	a5,124(a4)
    800040b2:	50f6533f 167d536d 	.8byte	0x167d536d50f6533f
    800040ba:	5370                	lw	a2,100(a4)
    800040bc:	537361cf          	fnmadd.d	ft3,ft6,fs7,fa0,unknown
    800040c0:	53807c37          	lui	s8,0x53807
    800040c4:	538275d3          	.4byte	0x538275d3
    800040c8:	8780                	.2byte	0x8780
    800040ca:	5390                	lw	a2,32(a5)
    800040cc:	099e                	slli	s3,s3,0x7
    800040ce:	539c                	lw	a5,32(a5)
    800040d0:	53a33aef          	jal	s5,8003760a <_tbss_end+0x2e9c6>
    800040d4:	da66                	sw	s9,52(sp)
    800040d6:	70b553ab          	.4byte	0x70b553ab
    800040da:	53ba                	lw	t2,172(sp)
    800040dc:	53c8cb9b          	.4byte	0x53c8cb9b
    800040e0:	53ca3e2f          	.4byte	0x53ca3e2f
    800040e4:	8d40                	.2byte	0x8d40
    800040e6:	53de                	lw	t2,244(sp)
    800040e8:	53f8a88b          	.4byte	0x53f8a88b
    800040ec:	a9d0                	fsd	fa2,144(a1)
    800040ee:	a88853fb          	.4byte	0xa88853fb
    800040f2:	5431                	li	s0,-20
    800040f4:	ce4c                	sw	a1,28(a2)
    800040f6:	5445                	li	s0,-15
    800040f8:	148d                	addi	s1,s1,-29
    800040fa:	544a                	lw	s0,176(sp)
    800040fc:	6075                	c.lui	zero,0x1d
    800040fe:	544a                	lw	s0,176(sp)
    80004100:	2416                	fld	fs0,320(sp)
    80004102:	545d                	li	s0,-9
    80004104:	0c00                	addi	s0,sp,528
    80004106:	547c                	lw	a5,108(s0)
    80004108:	e13c                	sd	a5,64(a0)
    8000410a:	547e                	lw	s0,252(sp)
    8000410c:	d742                	sw	a6,172(sp)
    8000410e:	af9c54af          	.4byte	0xaf9c54af
    80004112:	54ec                	lw	a1,108(s1)
    80004114:	a2b4                	fsd	fa3,64(a3)
    80004116:	54ed                	li	s1,-5
    80004118:	6adf 5506 fc8e      	.byte	0xdf, 0x6a, 0x06, 0x55, 0x8e, 0xfc
    8000411e:	5515                	li	a0,-27
    80004120:	f601                	bnez	a2,80004028 <verify_data+0x1460>
    80004122:	5520                	lw	s0,104(a0)
    80004124:	9b08                	.2byte	0x9b08
    80004126:	5548                	lw	a0,44(a0)
    80004128:	5552d8af          	.4byte	0x5552d8af
    8000412c:	5557c007          	.4byte	0x5557c007
    80004130:	5579cfa7          	.4byte	0x5579cfa7
    80004134:	5582c697          	auipc	a3,0x5582c
    80004138:	7b2e                	ld	s6,232(sp)
    8000413a:	5595                	li	a1,-27
    8000413c:	1f9c                	addi	a5,sp,1008
    8000413e:	55a9                	li	a1,-22
    80004140:	e12a                	sd	a0,128(sp)
    80004142:	55d6                	lw	a1,116(sp)
    80004144:	4c62                	lw	s8,24(sp)
    80004146:	55f0                	lw	a2,108(a1)
    80004148:	56126e87          	.4byte	0x56126e87
    8000414c:	ddb0                	sw	a2,120(a1)
    8000414e:	5612                	lw	a2,36(sp)
    80004150:	657f                	.2byte	0x657f
    80004152:	5624                	lw	s1,104(a2)
    80004154:	35e2                	fld	fa1,56(sp)
    80004156:	5625                	li	a2,-23
    80004158:	54c2                	lw	s1,48(sp)
    8000415a:	5626                	lw	a2,104(sp)
    8000415c:	5646a03f 564cd780 	.8byte	0x564cd7805646a03f
    80004164:	dc38                	sw	a4,120(s0)
    80004166:	567a                	lw	a2,188(sp)
    80004168:	5680bd3f 56834290 	.8byte	0x568342905680bd3f
    80004170:	17e6                	slli	a5,a5,0x39
    80004172:	56a1                	li	a3,-24
    80004174:	56be5ff3          	csrrwi	t6,0x56b,28
    80004178:	16b2                	slli	a3,a3,0x2c
    8000417a:	56c5                	li	a3,-15
    8000417c:	263e                	fld	fa2,456(sp)
    8000417e:	56df 1c4d 56f8      	.byte	0xdf, 0x56, 0x4d, 0x1c, 0xf8, 0x56
    80004184:	b0b9                	j	800039d2 <verify_data+0xe0a>
    80004186:	56f8                	lw	a4,108(a3)
    80004188:	3468                	fld	fa0,232(s0)
    8000418a:	56fe                	lw	a3,252(sp)
    8000418c:	0bc1                	addi	s7,s7,16
    8000418e:	5700                	lw	s0,40(a4)
    80004190:	4838                	lw	a4,80(s0)
    80004192:	02115727          	.4byte	0x2115727
    80004196:	572c                	lw	a1,104(a4)
    80004198:	3a00                	fld	fs0,48(a2)
    8000419a:	5730                	lw	a2,104(a4)
    8000419c:	6a81                	.2byte	0x6a81
    8000419e:	5732                	lw	a4,44(sp)
    800041a0:	5737b9e3          	.4byte	0x5737b9e3
    800041a4:	08ff                	.2byte	0x8ff
    800041a6:	c149576b          	.4byte	0xc149576b
    800041aa:	6483576b          	.4byte	0x6483576b
    800041ae:	5776                	lw	a4,124(sp)
    800041b0:	5511                	li	a0,-28
    800041b2:	c65d5787          	.4byte	0xc65d5787
    800041b6:	57a2                	lw	a5,40(sp)
    800041b8:	b06e                	fsd	fs11,32(sp)
    800041ba:	b82b57af          	.4byte	0xb82b57af
    800041be:	57b4                	lw	a3,104(a5)
    800041c0:	ceb2                	sw	a2,92(sp)
    800041c2:	57b6                	lw	a5,108(sp)
    800041c4:	973c                	.2byte	0x973c
    800041c6:	57c5                	li	a5,-15
    800041c8:	57cebc73          	csrrc	s8,0x57c,t4
    800041cc:	6a2e                	ld	s4,200(sp)
    800041ce:	73e657d7          	.4byte	0x73e657d7
    800041d2:	57f4                	lw	a3,108(a5)
    800041d4:	2e9a                	fld	ft9,384(sp)
    800041d6:	f556583b          	.4byte	0xf556583b
    800041da:	b0c8583b          	.4byte	0xb0c8583b
    800041de:	583d                	li	a6,-17
    800041e0:	86a0                	.2byte	0x86a0
    800041e2:	5864                	lw	s1,116(s0)
    800041e4:	9850                	.2byte	0x9850
    800041e6:	588e                	lw	a7,224(sp)
    800041e8:	a0ea                	fsd	fs10,64(sp)
    800041ea:	4ae3589b          	.4byte	0x4ae3589b
    800041ee:	01ab58ab          	.4byte	0x1ab58ab
    800041f2:	236f58cb          	fnmsub.d	fa7,ft10,fs6,ft4,unknown
    800041f6:	58e6                	lw	a7,120(sp)
    800041f8:	3434                	fld	fa3,104(s0)
    800041fa:	917d58ef          	jal	a7,7ffd9b10 <buflen.0+0x7ffd9ad0>
    800041fe:	58f5                	li	a7,-3
    80004200:	592c584b          	fnmsub.s	fa6,fs8,fs2,fa1,unknown
    80004204:	62d6                	ld	t0,336(sp)
    80004206:	ca9b592f          	.4byte	0xca9b592f
    8000420a:	5944                	lw	s1,52(a0)
    8000420c:	8add                	andi	a3,a3,23
    8000420e:	5948                	lw	a0,52(a0)
    80004210:	1fe2                	slli	t6,t6,0x38
    80004212:	5952                	lw	s2,52(sp)
    80004214:	5969bfbf 597a35f0 	.8byte	0x597a35f05969bfbf
    8000421c:	c412                	sw	tp,8(sp)
    8000421e:	598a                	lw	s3,160(sp)
    80004220:	09c4                	addi	s1,sp,212
    80004222:	598e                	lw	s3,224(sp)
    80004224:	359a                	fld	fa1,416(sp)
    80004226:	930e598f          	.4byte	0x930e598f
    8000422a:	59a5                	li	s3,-23
    8000422c:	d140                	sw	s0,36(a0)
    8000422e:	59b4                	lw	a3,112(a1)
    80004230:	59bbba97          	auipc	s5,0x59bbb
    80004234:	ad26                	fsd	fs1,152(sp)
    80004236:	59ce                	lw	s3,240(sp)
    80004238:	9a45                	andi	a2,a2,-15
    8000423a:	59d9                	li	s3,-10
    8000423c:	0492                	slli	s1,s1,0x4
    8000423e:	59ed                	li	s3,-5
    80004240:	ce14                	sw	a3,24(a2)
    80004242:	5a02                	lw	s4,32(sp)
    80004244:	5c31                	li	s8,-20
    80004246:	5a21                	li	s4,-24
    80004248:	ca46                	sw	a7,20(sp)
    8000424a:	5a21                	li	s4,-24
    8000424c:	7271                	lui	tp,0xffffc
    8000424e:	5a32                	lw	s4,44(sp)
    80004250:	0f8e                	slli	t6,t6,0x3
    80004252:	5a42                	lw	s4,48(sp)
    80004254:	5a46b2c3          	fmadd.d	ft5,fa3,ft4,fa1,rup
    80004258:	e44c                	sd	a1,136(s0)
    8000425a:	5a49                	li	s4,-14
    8000425c:	11fa                	slli	gp,gp,0x3e
    8000425e:	5a51                	li	s4,-12
    80004260:	2220                	fld	fs0,64(a2)
    80004262:	5a55                	li	s4,-11
    80004264:	50ec                	lw	a1,100(s1)
    80004266:	5d345a5b          	.4byte	0x5d345a5b
    8000426a:	5a8a                	lw	s5,160(sp)
    8000426c:	8bfd                	andi	a5,a5,31
    8000426e:	e4a25aa3          	.4byte	0xe4a25aa3
    80004272:	5aa6                	lw	s5,104(sp)
    80004274:	5aadf643          	fmadd.d	fa2,fs11,fa0,fa1
    80004278:	b38c                	fsd	fa1,32(a5)
    8000427a:	5abc                	lw	a5,112(a3)
    8000427c:	7ebd                	lui	t4,0xfffef
    8000427e:	5ad6                	lw	s5,116(sp)
    80004280:	e652                	sd	s4,264(sp)
    80004282:	5add                	li	s5,-9
    80004284:	8a1a                	mv	s4,t1
    80004286:	5aec                	lw	a1,116(a3)
    80004288:	8572                	mv	a0,t3
    8000428a:	5b04                	lw	s1,48(a4)
    8000428c:	5b13e84b          	fnmsub.d	fa6,ft7,fa7,fa1,unknown
    80004290:	5b668c23          	sb	s6,1464(a3) # d58306ec <dram_end_address_reg+0x58306dc>
    80004294:	4e8e                	lw	t4,192(sp)
    80004296:	085b5b67          	.4byte	0x85b5b67
    8000429a:	5b74                	lw	a3,116(a4)
    8000429c:	c33a                	sw	a4,132(sp)
    8000429e:	5b90                	lw	a2,48(a5)
    800042a0:	c554                	sw	a3,12(a0)
    800042a2:	13985ba3          	.4byte	0x13985ba3
    800042a6:	5bad                	li	s7,-21
    800042a8:	fea1                	bnez	a3,80004200 <verify_data+0x1638>
    800042aa:	5bb1                	li	s7,-20
    800042ac:	5bc3d43b          	.4byte	0x5bc3d43b
    800042b0:	5bdbb757          	.4byte	0x5bdbb757
    800042b4:	d285                	beqz	a3,800041d4 <verify_data+0x160c>
    800042b6:	20625bdb          	.4byte	0x20625bdb
    800042ba:	5be2                	lw	s7,56(sp)
    800042bc:	4fe1                	li	t6,24
    800042be:	5c1f f7b7 5c26      	.byte	0x1f, 0x5c, 0xb7, 0xf7, 0x26, 0x5c
    800042c4:	ae74                	fsd	fa3,216(a2)
    800042c6:	754a5c27          	.4byte	0x754a5c27
    800042ca:	96b35c3f e1405c4d 	.8byte	0xe1405c4d96b35c3f
    800042d2:	5c50                	lw	a2,60(s0)
    800042d4:	4f7e                	lw	t5,220(sp)
    800042d6:	8f185c63          	bge	a6,a7,800033ce <verify_data+0x806>
    800042da:	5c65                	li	s8,-7
    800042dc:	5c6b23e3          	.4byte	0x5c6b23e3
    800042e0:	21b4                	fld	fa3,64(a1)
    800042e2:	5c6e                	lw	s8,248(sp)
    800042e4:	5c7c7ae7          	.4byte	0x5c7c7ae7
    800042e8:	4274                	lw	a3,68(a2)
    800042ea:	5c99                	li	s9,-26
    800042ec:	c924                	sw	s1,80(a0)
    800042ee:	5ca1                	li	s9,-24
    800042f0:	6251                	lui	tp,0x14
    800042f2:	5cb4                	lw	a3,120(s1)
    800042f4:	7dfd                	lui	s11,0xfffff
    800042f6:	5cb9                	li	s9,-18
    800042f8:	ecf0                	sd	a2,216(s1)
    800042fa:	5ce0                	lw	s0,124(s1)
    800042fc:	cf1d                	beqz	a4,8000433a <verify_data+0x1772>
    800042fe:	e2f05ce7          	.4byte	0xe2f05ce7
    80004302:	5cfd                	li	s9,-1
    80004304:	5d0e34db          	.4byte	0x5d0e34db
    80004308:	cf00                	sw	s0,24(a4)
    8000430a:	5d0e                	lw	s10,224(sp)
    8000430c:	6bb9                	lui	s7,0xe
    8000430e:	5d11                	li	s10,-28
    80004310:	5d161ea7          	.4byte	0x5d161ea7
    80004314:	5d347033          	.4byte	0x5d347033
    80004318:	5d39ae3b          	.4byte	0x5d39ae3b
    8000431c:	52b6                	lw	t0,108(sp)
    8000431e:	5d51                	li	s10,-12
    80004320:	5d52b08f          	.4byte	0x5d52b08f
    80004324:	acbd                	j	800045a2 <verify_data+0x19da>
    80004326:	5d64                	lw	s1,124(a0)
    80004328:	791e                	ld	s2,480(sp)
    8000432a:	5d78                	lw	a4,124(a0)
    8000432c:	d049                	beqz	s0,800042ae <verify_data+0x16e6>
    8000432e:	861e5d7b          	.4byte	0x861e5d7b
    80004332:	5cf85d83          	lhu	s11,1487(a6)
    80004336:	5d8c                	lw	a1,56(a1)
    80004338:	2534                	fld	fa3,72(a0)
    8000433a:	5d9e                	lw	s11,228(sp)
    8000433c:	af35                	j	80004a78 <verify_data+0x1eb0>
    8000433e:	5dac                	lw	a1,120(a1)
    80004340:	107f                	.2byte	0x107f
    80004342:	5db6                	lw	s11,108(sp)
    80004344:	6704                	ld	s1,8(a4)
    80004346:	5de6                	lw	s11,120(sp)
    80004348:	a3b2                	fsd	fa2,448(sp)
    8000434a:	5dff                	.2byte	0x5dff
    8000434c:	b1aa                	fsd	fa0,224(sp)
    8000434e:	5e0d                	li	t3,-29
    80004350:	b1a2                	fsd	fs0,224(sp)
    80004352:	5e28                	lw	a0,120(a2)
    80004354:	1801                	addi	a6,a6,-32
    80004356:	5e3d                	li	t3,-17
    80004358:	f449                	bnez	s0,800042e2 <verify_data+0x171a>
    8000435a:	5e3d                	li	t3,-17
    8000435c:	5f29                	li	t5,-22
    8000435e:	5e48                	lw	a0,60(a2)
    80004360:	2640                	fld	fs0,136(a2)
    80004362:	5e70                	lw	a2,124(a2)
    80004364:	f286                	sd	ra,352(sp)
    80004366:	5e79                	li	t3,-2
    80004368:	58ce                	lw	a7,240(sp)
    8000436a:	5eaa                	lw	t4,168(sp)
    8000436c:	5eb1deab          	.4byte	0x5eb1deab
    80004370:	2f60                	fld	fs0,216(a4)
    80004372:	5eb9                	li	t4,-18
    80004374:	859f 5ecc 3d98      	.byte	0x9f, 0x85, 0xcc, 0x5e, 0x98, 0x3d
    8000437a:	5ed1                	li	t4,-12
    8000437c:	babe                	fsd	fa5,368(sp)
    8000437e:	5ef8                	lw	a4,124(a3)
    80004380:	5f000727          	.4byte	0x5f000727
    80004384:	fee2                	sd	s8,376(sp)
    80004386:	ae285f0b          	.4byte	0xae285f0b
    8000438a:	5f21                	li	t5,-24
    8000438c:	5f2d8e87          	.4byte	0x5f2d8e87
    80004390:	0230                	addi	a2,sp,264
    80004392:	5f38                	lw	a4,120(a4)
    80004394:	3635                	addiw	a2,a2,-19 # 11fed <buflen.0+0x11fad>
    80004396:	5f46                	lw	t5,112(sp)
    80004398:	5f5770ab          	.4byte	0x5f5770ab
    8000439c:	2df2                	fld	fs11,280(sp)
    8000439e:	5f5c                	lw	a5,60(a4)
    800043a0:	6aa2                	ld	s5,8(sp)
    800043a2:	5f5e                	lw	t5,244(sp)
    800043a4:	9731                	srai	a4,a4,0x2c
    800043a6:	5f65                	li	t5,-7
    800043a8:	5ea0                	lw	s0,120(a3)
    800043aa:	183e5f6f          	jal	t5,800e9d2c <_tbss_end+0xe10e8>
    800043ae:	5f71                	li	t5,-4
    800043b0:	bf85                	j	80004320 <verify_data+0x1758>
    800043b2:	5f76                	lw	t5,124(sp)
    800043b4:	796a                	ld	s2,184(sp)
    800043b6:	5f84                	lw	s1,56(a5)
    800043b8:	3495                	addiw	s1,s1,-27
    800043ba:	5f89                	li	t6,-30
    800043bc:	5f8b586b          	.4byte	0x5f8b586b
    800043c0:	5ed6                	lw	t4,116(sp)
    800043c2:	5f92                	lw	t6,36(sp)
    800043c4:	25c2                	fld	fa1,16(sp)
    800043c6:	5fa0                	lw	s0,120(a5)
    800043c8:	8e1a                	mv	t3,t1
    800043ca:	5fa0                	lw	s0,120(a5)
    800043cc:	5faed877          	.4byte	0x5faed877
    800043d0:	5faffcaf          	.4byte	0x5faffcaf
    800043d4:	fdc5                	bnez	a1,8000438c <verify_data+0x17c4>
    800043d6:	beb65fcb          	.4byte	0xbeb65fcb
    800043da:	5fd0                	lw	a2,60(a5)
    800043dc:	7672                	ld	a2,312(sp)
    800043de:	5fd2                	lw	t6,52(sp)
    800043e0:	378e                	fld	fa5,224(sp)
    800043e2:	f9555fd3          	.4byte	0xf9555fd3
    800043e6:	5ff5                	li	t6,-3
    800043e8:	5ffa6057          	.4byte	0x5ffa6057
    800043ec:	e246                	sd	a7,256(sp)
    800043ee:	5ffe                	lw	t6,252(sp)
    800043f0:	8c4e                	mv	s8,s3
    800043f2:	600d                	c.lui	zero,0x3
    800043f4:	6f54                	ld	a3,152(a4)
    800043f6:	600e                	.2byte	0x600e
    800043f8:	4a40                	lw	s0,20(a2)
    800043fa:	6010                	ld	a2,0(s0)
    800043fc:	3b49                	addiw	s6,s6,-14
    800043fe:	601e                	.2byte	0x601e
    80004400:	601e79bb          	.4byte	0x601e79bb
    80004404:	9910                	.2byte	0x9910
    80004406:	f51e603f 804f6064 	.8byte	0x804f6064f51e603f
    8000440e:	6076                	.2byte	0x6076
    80004410:	1c78                	addi	a4,sp,572
    80004412:	6089                	lui	ra,0x2
    80004414:	c63a                	sw	a4,12(sp)
    80004416:	6089                	lui	ra,0x2
    80004418:	d200                	sw	s0,32(a2)
    8000441a:	7ef86097          	auipc	ra,0x7ef86
    8000441e:	540c609b          	.4byte	0x540c609b
    80004422:	60b8                	ld	a4,64(s1)
    80004424:	52a1                	li	t0,-24
    80004426:	60b9                	lui	ra,0xe
    80004428:	3d99                	addiw	s11,s11,-26 # ffffffffffffefe6 <dram_end_address_reg+0xffffffff2fffefd6>
    8000442a:	60d6                	ld	ra,336(sp)
    8000442c:	7a9e                	ld	s5,480(sp)
    8000442e:	60ff                	.2byte	0x60ff
    80004430:	3a28                	fld	fa0,112(a2)
    80004432:	407d610f          	.4byte	0x407d610f
    80004436:	3bea610f          	.4byte	0x3bea610f
    8000443a:	6122                	ld	sp,8(sp)
    8000443c:	86e0                	.2byte	0x86e0
    8000443e:	6126                	ld	sp,72(sp)
    80004440:	4ec4                	lw	s1,28(a3)
    80004442:	612c                	ld	a1,64(a0)
    80004444:	6133ac8b          	.4byte	0x6133ac8b
    80004448:	4569                	li	a0,26
    8000444a:	613d                	addi	sp,sp,480
    8000444c:	5b08                	lw	a0,48(a4)
    8000444e:	6145                	addi	sp,sp,48
    80004450:	6ca9                	lui	s9,0xa
    80004452:	615d                	addi	sp,sp,432
    80004454:	a80d                	j	80004486 <verify_data+0x18be>
    80004456:	a6ab616b          	.4byte	0xa6ab616b
    8000445a:	6182                	ld	gp,0(sp)
    8000445c:	7cc8                	ld	a0,184(s1)
    8000445e:	6186                	ld	gp,64(sp)
    80004460:	8322                	mv	t1,s0
    80004462:	6190                	ld	a2,0(a1)
    80004464:	f3c1                	bnez	a5,800043e4 <verify_data+0x181c>
    80004466:	61ce                	ld	gp,208(sp)
    80004468:	19ad                	addi	s3,s3,-21 # 43e3ffeb <buflen.0+0x43e3ffab>
    8000446a:	61e4                	ld	s1,192(a1)
    8000446c:	6d64                	ld	s1,216(a0)
    8000446e:	61ec                	ld	a1,192(a1)
    80004470:	52ca                	lw	t0,176(sp)
    80004472:	61fd                	lui	gp,0x1f
    80004474:	d948                	sw	a0,52(a0)
    80004476:	6202                	ld	tp,0(sp)
    80004478:	800e                	c.mv	zero,gp
    8000447a:	b61d621b          	.4byte	0xb61d621b
    8000447e:	6226                	ld	tp,72(sp)
    80004480:	4380                	lw	s0,0(a5)
    80004482:	fe036243          	.4byte	0xfe036243
    80004486:	624e                	ld	tp,208(sp)
    80004488:	b9e0                	fsd	fs0,240(a1)
    8000448a:	bb78624f          	fnmadd.d	ft4,fa6,fs7,fs7,unknown
    8000448e:	6266                	ld	tp,88(sp)
    80004490:	2af9                	addiw	s5,s5,30 # ffffffffd9bbf24e <dram_end_address_reg+0xffffffff09bbf23e>
    80004492:	6279                	lui	tp,0x1e
    80004494:	628bd913          	.4byte	0x628bd913
    80004498:	62a986eb          	.4byte	0x62a986eb
    8000449c:	9932                	add	s2,s2,a2
    8000449e:	62bc                	ld	a5,64(a3)
    800044a0:	62c3d607          	.4byte	0x62c3d607
    800044a4:	a545                	j	80004b44 <verify_data+0x1f7c>
    800044a6:	8bab62d3          	.4byte	0x8bab62d3
    800044aa:	6d6f62e3          	bltu	t5,s6,8000536e <input_data+0x7a6>
    800044ae:	62e4                	ld	s1,192(a3)
    800044b0:	f09c                	sd	a5,32(s1)
    800044b2:	e6d262fb          	.4byte	0xe6d262fb
    800044b6:	6320                	ld	s0,64(a4)
    800044b8:	632cf297          	auipc	t0,0x632cf
    800044bc:	d69d                	beqz	a3,800043ea <verify_data+0x1822>
    800044be:	463a634b          	.4byte	0x463a634b
    800044c2:	634e                	ld	t1,208(sp)
    800044c4:	f658                	sd	a4,168(a2)
    800044c6:	635d                	lui	t1,0x17
    800044c8:	c3dd                	beqz	a5,8000456e <verify_data+0x19a6>
    800044ca:	6366                	ld	t1,88(sp)
    800044cc:	a131                	j	800048d8 <verify_data+0x1d10>
    800044ce:	c12363ab          	.4byte	0xc12363ab
    800044d2:	63bc                	ld	a5,64(a5)
    800044d4:	e759                	bnez	a4,80004562 <verify_data+0x199a>
    800044d6:	0cb163c7          	.4byte	0xcb163c7
    800044da:	032663db          	.4byte	0x32663db
    800044de:	63de                	ld	t2,464(sp)
    800044e0:	da45                	beqz	a2,80004490 <verify_data+0x18c8>
    800044e2:	036f63fb          	.4byte	0x36f63fb
    800044e6:	748b6413          	ori	s0,s6,1864
    800044ea:	6418                	ld	a4,8(s0)
    800044ec:	5eb2                	lw	t4,44(sp)
    800044ee:	641f 9a25 6426      	.byte	0x1f, 0x64, 0x25, 0x9a, 0x26, 0x64
    800044f4:	4216                	lw	tp,68(sp)
    800044f6:	3fdd6427          	.4byte	0x3fdd6427
    800044fa:	f9ef643f 83b4644b 	.8byte	0x83b4644bf9ef643f
    80004502:	645e                	ld	s0,464(sp)
    80004504:	1629                	addi	a2,a2,-22
    80004506:	6460                	ld	s0,200(s0)
    80004508:	6941                	lui	s2,0x10
    8000450a:	6474                	ld	a3,200(s0)
    8000450c:	7cc8                	ld	a0,184(s1)
    8000450e:	647c                	ld	a5,200(s0)
    80004510:	9cdc                	.2byte	0x9cdc
    80004512:	6481                	.2byte	0x6481
    80004514:	a0ff                	.2byte	0xa0ff
    80004516:	6485                	lui	s1,0x1
    80004518:	071f 6487 d2ea      	.byte	0x1f, 0x07, 0x87, 0x64, 0xea, 0xd2
    8000451e:	6495                	lui	s1,0x5
    80004520:	f0a0                	sd	s0,96(s1)
    80004522:	c97d649b          	.4byte	0xc97d649b
    80004526:	64a6                	ld	s1,72(sp)
    80004528:	8b6a                	mv	s6,s10
    8000452a:	64ba                	ld	s1,392(sp)
    8000452c:	e9f0                	sd	a2,208(a1)
    8000452e:	64bd                	lui	s1,0xf
    80004530:	0924                	addi	s1,sp,152
    80004532:	64d2                	ld	s1,272(sp)
    80004534:	ef6e                	sd	s11,408(sp)
    80004536:	64d4                	ld	a3,136(s1)
    80004538:	938e                	add	t2,t2,gp
    8000453a:	650a                	ld	a0,128(sp)
    8000453c:	1121                	addi	sp,sp,-24 # 4f72ffe8 <buflen.0+0x4f72ffa8>
    8000453e:	6511                	lui	a0,0x4
    80004540:	a2b8                	fsd	fa4,64(a3)
    80004542:	6530                	ld	a2,72(a0)
    80004544:	f2a1                	bnez	a3,80004484 <verify_data+0x18bc>
    80004546:	6578                	ld	a4,200(a0)
    80004548:	8ac2                	mv	s5,a6
    8000454a:	6599                	lui	a1,0x6
    8000454c:	65a60287          	.4byte	0x65a60287
    80004550:	0f15                	addi	t5,t5,5 # a005 <buflen.0+0x9fc5>
    80004552:	65ae                	ld	a1,200(sp)
    80004554:	8f02                	jr	t5
    80004556:	0e4c65b7          	lui	a1,0xe4c6
    8000455a:	65ce                	ld	a1,208(sp)
    8000455c:	a371                	j	80004ae8 <verify_data+0x1f20>
    8000455e:	ef3e65cf          	.4byte	0xef3e65cf
    80004562:	924f65cf          	fnmadd.d	fa1,ft10,ft4,fs2,unknown
    80004566:	65dd                	lui	a1,0x17
    80004568:	eb55                	bnez	a4,8000461c <verify_data+0x1a54>
    8000456a:	d54865e7          	.4byte	0xd54865e7
    8000456e:	65e9                	lui	a1,0x1a
    80004570:	31f2                	fld	ft3,312(sp)
    80004572:	65f1                	lui	a1,0x1c
    80004574:	660479c3          	.4byte	0x660479c3
    80004578:	c086                	sw	ra,64(sp)
    8000457a:	6606                	ld	a2,64(sp)
    8000457c:	66076677          	.4byte	0x66076677
    80004580:	77b2                	ld	a5,296(sp)
    80004582:	27536607          	.4byte	0x27536607
    80004586:	436d660f          	.4byte	0x436d660f
    8000458a:	6610                	ld	a2,8(a2)
    8000458c:	661d2f27          	fsw	ft1,1662(s10)
    80004590:	8e36                	mv	t3,a3
    80004592:	6621                	lui	a2,0x8
    80004594:	12f4                	addi	a3,sp,364
    80004596:	662e                	ld	a2,200(sp)
    80004598:	160e                	slli	a2,a2,0x23
    8000459a:	663d                	lui	a2,0xf
    8000459c:	9be5                	andi	a5,a5,-7
    8000459e:	663e                	ld	a2,456(sp)
    800045a0:	663ef68b          	.4byte	0x663ef68b
    800045a4:	192a                	slli	s2,s2,0x2a
    800045a6:	6655                	lui	a2,0x15
    800045a8:	02a2                	slli	t0,t0,0x8
    800045aa:	6676                	ld	a2,344(sp)
    800045ac:	667e9cb3          	.4byte	0x667e9cb3
    800045b0:	66a01657          	.4byte	0x66a01657
    800045b4:	152e                	slli	a0,a0,0x2b
    800045b6:	66b5                	lui	a3,0xd
    800045b8:	ac6e                	fsd	fs11,24(sp)
    800045ba:	66d9                	lui	a3,0x16
    800045bc:	bcfc                	fsd	fa5,248(s1)
    800045be:	d44c66ef          	jal	a3,7ffcab02 <buflen.0+0x7ffcaac2>
    800045c2:	66f8                	ld	a4,200(a3)
    800045c4:	ca7a                	sw	t5,20(sp)
    800045c6:	6722                	ld	a4,8(sp)
    800045c8:	b5d9                	j	8000448e <verify_data+0x18c6>
    800045ca:	6728                	ld	a0,72(a4)
    800045cc:	72c2                	ld	t0,48(sp)
    800045ce:	a6b0673b          	.4byte	0xa6b0673b
    800045d2:	673c                	ld	a5,72(a4)
    800045d4:	1266                	slli	tp,tp,0x39
    800045d6:	6751                	lui	a4,0x14
    800045d8:	79cd                	lui	s3,0xffff3
    800045da:	675a                	ld	a4,400(sp)
    800045dc:	6796bc67          	.4byte	0x6796bc67
    800045e0:	2ace                	fld	fs5,208(sp)
    800045e2:	679d                	lui	a5,0x7
    800045e4:	67b7ceef          	jal	t4,8008145e <_tbss_end+0x7881a>
    800045e8:	2ddd                	addiw	s11,s11,23
    800045ea:	67c2                	ld	a5,16(sp)
    800045ec:	3ffd                	addiw	t6,t6,-1
    800045ee:	67c2                	ld	a5,16(sp)
    800045f0:	67d54dcb          	.4byte	0x67d54dcb
    800045f4:	6f8c                	ld	a1,24(a5)
    800045f6:	5d2467db          	.4byte	0x5d2467db
    800045fa:	6806                	ld	a6,64(sp)
    800045fc:	96cd                	srai	a3,a3,0x33
    800045fe:	6808                	ld	a0,16(s0)
    80004600:	680ae06b          	.4byte	0x680ae06b
    80004604:	68160343          	fmadd.s	ft6,fa2,ft1,fa3,rne
    80004608:	1e9a                	slli	t4,t4,0x26
    8000460a:	6819                	lui	a6,0x6
    8000460c:	a664                	fsd	fs1,200(a2)
    8000460e:	681f 3f29 682e      	.byte	0x1f, 0x68, 0x29, 0x3f, 0x2e, 0x68
    80004614:	778c                	ld	a1,40(a5)
    80004616:	684e                	ld	a6,208(sp)
    80004618:	e6c8                	sd	a0,136(a3)
    8000461a:	6851                	lui	a6,0x14
    8000461c:	a4ba                	fsd	fa4,72(sp)
    8000461e:	6855                	lui	a6,0x15
    80004620:	685d77c3          	fmadd.s	fa5,fs10,ft5,fa3
    80004624:	686ebe97          	auipc	t4,0x686eb
    80004628:	42d6                	lw	t0,84(sp)
    8000462a:	6872                	ld	a6,280(sp)
    8000462c:	86aa                	mv	a3,a0
    8000462e:	6876                	ld	a6,344(sp)
    80004630:	9209                	srli	a2,a2,0x22
    80004632:	687e                	ld	a6,472(sp)
    80004634:	6892be83          	ld	t4,1673(t0) # e32d3b41 <dram_end_address_reg+0x132d3b31>
    80004638:	4cb0                	lw	a2,88(s1)
    8000463a:	689e                	ld	a7,448(sp)
    8000463c:	1f5a                	slli	t5,t5,0x36
    8000463e:	68ba                	ld	a7,392(sp)
    80004640:	6041                	c.lui	zero,0x10
    80004642:	68d4                	ld	a3,144(s1)
    80004644:	68f47697          	auipc	a3,0x68f47
    80004648:	24b9                	addiw	s1,s1,14 # f00e <buflen.0+0xefce>
    8000464a:	3a4f68fb          	.4byte	0x3a4f68fb
    8000464e:	6921                	lui	s2,0x8
    80004650:	29f1                	addiw	s3,s3,28 # ffffffffffff301c <dram_end_address_reg+0xffffffff2fff300c>
    80004652:	2dd1692b          	.4byte	0x2dd1692b
    80004656:	6939                	lui	s2,0xe
    80004658:	6e7e                	ld	t3,472(sp)
    8000465a:	6940                	ld	s0,144(a0)
    8000465c:	1426                	slli	s0,s0,0x29
    8000465e:	6958                	ld	a4,144(a0)
    80004660:	ac82                	fsd	ft0,88(sp)
    80004662:	696d                	lui	s2,0x1b
    80004664:	a53a                	fsd	fa4,136(sp)
    80004666:	b03a6987          	.4byte	0xb03a6987
    8000466a:	6998                	ld	a4,16(a1)
    8000466c:	6b32                	ld	s6,264(sp)
    8000466e:	699d                	lui	s3,0x7
    80004670:	2da4                	fld	fs1,88(a1)
    80004672:	69aa                	ld	s3,136(sp)
    80004674:	69c06c73          	csrrsi	s8,0x69c,0
    80004678:	0ac0                	addi	s0,sp,340
    8000467a:	404869c7          	fmsub.s	fs3,fa6,ft4,fs0,unknown
    8000467e:	69c9                	lui	s3,0x12
    80004680:	679c                	ld	a5,8(a5)
    80004682:	69d1                	lui	s3,0x14
    80004684:	a229                	j	8000478e <verify_data+0x1bc6>
    80004686:	69d5                	lui	s3,0x15
    80004688:	a2f9                	j	80004856 <verify_data+0x1c8e>
    8000468a:	69d8                	ld	a4,144(a1)
    8000468c:	cf72                	sw	t3,156(sp)
    8000468e:	69e2                	ld	s3,24(sp)
    80004690:	bb2a                	fsd	fa0,432(sp)
    80004692:	6e2669e7          	.4byte	0x6e2669e7
    80004696:	6a02                	ld	s4,0(sp)
    80004698:	7850                	ld	a2,176(s0)
    8000469a:	809e6a2b          	.4byte	0x809e6a2b
    8000469e:	6a35                	lui	s4,0xd
    800046a0:	fa95                	bnez	a3,800045d4 <verify_data+0x1a0c>
    800046a2:	6a49                	lui	s4,0x12
    800046a4:	cfe1                	beqz	a5,8000477c <verify_data+0x1bb4>
    800046a6:	6a54                	ld	a3,144(a2)
    800046a8:	182e                	slli	a6,a6,0x2b
    800046aa:	6a60                	ld	s0,208(a2)
    800046ac:	9f9f 6a88 6f2a      	.byte	0x9f, 0x9f, 0x88, 0x6a, 0x2a, 0x6f
    800046b2:	6a89                	lui	s5,0x2
    800046b4:	6a98a6bb          	.4byte	0x6a98a6bb
    800046b8:	bdbc                	fsd	fa5,120(a1)
    800046ba:	6ab9                	lui	s5,0xe
    800046bc:	4a64                	lw	s1,84(a2)
    800046be:	ec2c6adb          	.4byte	0xec2c6adb
    800046c2:	6ae1                	lui	s5,0x18
    800046c4:	6a98                	ld	a4,16(a3)
    800046c6:	6aea                	ld	s5,152(sp)
    800046c8:	d36e                	sw	s11,164(sp)
    800046ca:	6b25                	lui	s6,0x9
    800046cc:	c5fc                	sw	a5,76(a1)
    800046ce:	6b3d                	lui	s6,0xf
    800046d0:	a94d                	j	80004b82 <verify_data+0x1fba>
    800046d2:	6b4c                	ld	a1,144(a4)
    800046d4:	6b51cb4f          	fnmadd.d	fs6,ft3,fs5,fa3,rmm
    800046d8:	6b6b5947          	fmsub.d	fs2,fs6,fs6,fa3,unknown
    800046dc:	56e2                	lw	a3,56(sp)
    800046de:	6b6d                	lui	s6,0x1b
    800046e0:	6522                	ld	a0,8(sp)
    800046e2:	6b7a                	ld	s6,408(sp)
    800046e4:	5071                	c.li	zero,-4
    800046e6:	6ba6                	ld	s7,72(sp)
    800046e8:	f150                	sd	a2,160(a0)
    800046ea:	6bb5                	lui	s7,0xd
    800046ec:	6bb744cb          	fnmsub.d	fs1,fa4,fs11,fa3,rmm
    800046f0:	845e                	mv	s0,s7
    800046f2:	02a06bc7          	fmsub.d	fs7,ft0,fa0,ft0,unknown
    800046f6:	f0ee6bf3          	csrrsi	s7,0xf0e,28
    800046fa:	6c34                	ld	a3,88(s0)
    800046fc:	6c47c04b          	.4byte	0x6c47c04b
    80004700:	9a26                	add	s4,s4,s1
    80004702:	4a886c4f          	fnmadd.d	fs8,fa6,fs0,fs1,unknown
    80004706:	6c7f                	.2byte	0x6c7f
    80004708:	9de8                	.2byte	0x9de8
    8000470a:	6c91                	lui	s9,0x4
    8000470c:	cb9d                	beqz	a5,80004742 <verify_data+0x1b7a>
    8000470e:	6c92                	ld	s9,256(sp)
    80004710:	c854                	sw	a3,20(s0)
    80004712:	6c9d                	lui	s9,0x7
    80004714:	da28                	sw	a0,112(a2)
    80004716:	6ca2                	ld	s9,8(sp)
    80004718:	9502                	jalr	a0
    8000471a:	6ca9                	lui	s9,0xa
    8000471c:	8e32                	mv	t3,a2
    8000471e:	6cdf 2228 6ce0      	.byte	0xdf, 0x6c, 0x28, 0x22, 0xe0, 0x6c
    80004724:	6ce3fc13          	andi	s8,t2,1742
    80004728:	c129                	beqz	a0,8000476a <verify_data+0x1ba2>
    8000472a:	a8146cef          	jal	s9,7ff4b1aa <buflen.0+0x7ff4b16a>
    8000472e:	6d49                	lui	s10,0x12
    80004730:	929f 6d4a 14f7      	.byte	0x9f, 0x92, 0x4a, 0x6d, 0xf7, 0x14
    80004736:	82826d53          	.4byte	0x82826d53
    8000473a:	6d54                	ld	a3,152(a0)
    8000473c:	6d54fafb          	.4byte	0x6d54fafb
    80004740:	7909                	lui	s2,0xfffe2
    80004742:	6d55                	lui	s10,0x15
    80004744:	8b9f 6d56 a105      	.byte	0x9f, 0x8b, 0x56, 0x6d, 0x05, 0xa1
    8000474a:	6d5d                	lui	s10,0x17
    8000474c:	fa38                	sd	a4,112(a2)
    8000474e:	6d62                	ld	s10,24(sp)
    80004750:	003e                	c.slli	zero,0xf
    80004752:	6d6d                	lui	s10,0x1b
    80004754:	ccb2                	sw	a2,88(sp)
    80004756:	6d6e                	ld	s10,216(sp)
    80004758:	f5ee                	sd	s11,232(sp)
    8000475a:	6d70                	ld	a2,216(a0)
    8000475c:	ac1f 6d82 fbd7      	.byte	0x1f, 0xac, 0x82, 0x6d, 0xd7, 0xfb
    80004762:	6d90                	ld	a2,24(a1)
    80004764:	6d9de20f          	.4byte	0x6d9de20f
    80004768:	6db9d8c7          	.4byte	0x6db9d8c7
    8000476c:	f7a0                	sd	s0,104(a5)
    8000476e:	6e10                	ld	a2,24(a2)
    80004770:	6e24d8eb          	.4byte	0x6e24d8eb
    80004774:	a2ea                	fsd	fs10,320(sp)
    80004776:	6e30                	ld	a2,88(a2)
    80004778:	6e3d0eeb          	.4byte	0x6e3d0eeb
    8000477c:	6e3f8a0b          	.4byte	0x6e3f8a0b
    80004780:	d051                	beqz	s0,80004704 <verify_data+0x1b3c>
    80004782:	0dc06e3f 89186e66 	.8byte	0x89186e660dc06e3f
    8000478a:	6e96                	ld	t4,320(sp)
    8000478c:	8f2e                	mv	t5,a1
    8000478e:	6ec8                	ld	a0,152(a3)
    80004790:	1281                	addi	t0,t0,-32
    80004792:	6ecd                	lui	t4,0x13
    80004794:	82f5                	srli	a3,a3,0x1d
    80004796:	6ed8                	ld	a4,152(a3)
    80004798:	fea4                	sd	s1,120(a3)
    8000479a:	28036ee3          	bltu	t1,zero,80005236 <input_data+0x66e>
    8000479e:	6eea                	ld	t4,152(sp)
    800047a0:	3c64                	fld	fs1,248(s0)
    800047a2:	6f09                	lui	t5,0x2
    800047a4:	ec4e                	sd	s3,24(sp)
    800047a6:	6f28                	ld	a0,88(a4)
    800047a8:	6f3a5657          	.4byte	0x6f3a5657
    800047ac:	bc8d                	j	8000421e <verify_data+0x1656>
    800047ae:	6f59                	lui	t5,0x16
    800047b0:	d541                	beqz	a0,80004738 <verify_data+0x1b70>
    800047b2:	b5926f5b          	.4byte	0xb5926f5b
    800047b6:	6f6a                	ld	t5,152(sp)
    800047b8:	6f793433          	.4byte	0x6f793433
    800047bc:	0ec2                	slli	t4,t4,0x10
    800047be:	1d7a6f83          	lwu	t6,471(s4) # 121d7 <buflen.0+0x12197>
    800047c2:	6f86                	ld	t6,64(sp)
    800047c4:	a3d2                	fsd	fs4,448(sp)
    800047c6:	73bb6f8f          	.4byte	0x73bb6f8f
    800047ca:	6fb1                	lui	t6,0xc
    800047cc:	6fb360db          	.4byte	0x6fb360db
    800047d0:	6fc00817          	auipc	a6,0x6fc00
    800047d4:	6241                	lui	tp,0x10
    800047d6:	6fd5                	lui	t6,0x15
    800047d8:	e188                	sd	a0,0(a1)
    800047da:	a4ac6ff3          	csrrsi	t6,0xa4a,24
    800047de:	6ff6                	ld	t6,344(sp)
    800047e0:	7008f7cb          	fnmsub.s	fa5,fa7,ft0,fa4
    800047e4:	e7fa                	sd	t5,456(sp)
    800047e6:	7015                	c.lui	zero,0xfffe5
    800047e8:	701755cb          	fnmsub.s	fa1,fa4,ft1,fa4,unknown
    800047ec:	a7de                	fsd	fs7,456(sp)
    800047ee:	7021                	c.lui	zero,0xfffe8
    800047f0:	e0a1                	bnez	s1,80004830 <verify_data+0x1c68>
    800047f2:	703e                	.2byte	0x703e
    800047f4:	8c1c                	.2byte	0x8c1c
    800047f6:	ed6c704b          	.4byte	0xed6c704b
    800047fa:	706e                	.2byte	0x706e
    800047fc:	70b4af37          	lui	t5,0x70b4a
    80004800:	6f0e                	ld	t5,192(sp)
    80004802:	70b5                	lui	ra,0xfffed
    80004804:	fc69                	bnez	s0,800047de <verify_data+0x1c16>
    80004806:	2dc170bf 482e70c4 	.8byte	0x482e70c42dc170bf
    8000480e:	584070cb          	fnmsub.s	ft1,ft0,ft4,fa1
    80004812:	70d6                	ld	ra,368(sp)
    80004814:	3381                	addiw	t2,t2,-32
    80004816:	7111                	addi	sp,sp,-256
    80004818:	711c785b          	.4byte	0x711c785b
    8000481c:	c500                	sw	s0,8(a0)
    8000481e:	711f 12ec 712a      	.byte	0x1f, 0x71, 0xec, 0x12, 0x2a, 0x71
    80004824:	71422f0f          	.4byte	0x71422f0f
    80004828:	71490dbf 7157291f 	.8byte	0x7157291f71490dbf
    80004830:	df4c                	sw	a1,60(a4)
    80004832:	7165                	addi	sp,sp,-400
    80004834:	4d82                	lw	s11,0(sp)
    80004836:	74f47167          	.4byte	0x74f47167
    8000483a:	7180                	ld	s0,32(a1)
    8000483c:	94e1                	srai	s1,s1,0x38
    8000483e:	7184                	ld	s1,32(a1)
    80004840:	88e1                	andi	s1,s1,24
    80004842:	7185                	lui	gp,0xfffe1
    80004844:	7f30                	ld	a2,120(a4)
    80004846:	7188                	ld	a0,32(a1)
    80004848:	420c                	lw	a1,0(a2)
    8000484a:	7190                	ld	a2,32(a1)
    8000484c:	86fc                	.2byte	0x86fc
    8000484e:	71a0                	ld	s0,96(a1)
    80004850:	9e52                	add	t3,t3,s4
    80004852:	71b6                	ld	gp,360(sp)
    80004854:	328d                	addiw	t0,t0,-29
    80004856:	6c2a71bb          	.4byte	0x6c2a71bb
    8000485a:	364471d3          	.4byte	0x364471d3
    8000485e:	ceae71e7          	.4byte	0xceae71e7
    80004862:	887a71f7          	.4byte	0x887a71f7
    80004866:	720d                	lui	tp,0xfffe3
    80004868:	ee24                	sd	s1,88(a2)
    8000486a:	720e                	ld	tp,224(sp)
    8000486c:	32b5                	addiw	t0,t0,-19
    8000486e:	7214                	ld	a3,32(a2)
    80004870:	7220fd73          	csrrci	s10,0x722,1
    80004874:	adc9                	j	80004f46 <input_data+0x37e>
    80004876:	7221                	lui	tp,0xfffe8
    80004878:	3950                	fld	fa2,176(a0)
    8000487a:	06f2722b          	.4byte	0x6f2722b
    8000487e:	723d                	lui	tp,0xfffef
    80004880:	c58d                	beqz	a1,800048aa <verify_data+0x1ce2>
    80004882:	a9257257          	.4byte	0xa9257257
    80004886:	1f647273          	csrrci	tp,0x1f6,8
    8000488a:	5fea72b7          	lui	t0,0x5fea7
    8000488e:	496172d7          	.4byte	0x496172d7
    80004892:	72e1                	lui	t0,0xffff8
    80004894:	ac02                	fsd	ft0,24(sp)
    80004896:	58a272ef          	jal	t0,8002be20 <_tbss_end+0x231dc>
    8000489a:	90f072f3          	csrrci	t0,0x90f,0
    8000489e:	e6287313          	andi	t1,a6,-414
    800048a2:	7316                	ld	t1,352(sp)
    800048a4:	0655                	addi	a2,a2,21 # 15015 <buflen.0+0x14fd5>
    800048a6:	731d                	lui	t1,0xfffe7
    800048a8:	4038                	lw	a4,64(s0)
    800048aa:	7320                	ld	s0,96(a4)
    800048ac:	a425                	j	80004ad4 <verify_data+0x1f0c>
    800048ae:	7329                	lui	t1,0xfffea
    800048b0:	5cd4                	lw	a3,60(s1)
    800048b2:	53ad733f e6707345 	.8byte	0xe670734553ad733f
    800048ba:	7359                	lui	t1,0xffff6
    800048bc:	736f35b7          	lui	a1,0x736f3
    800048c0:	73877afb          	.4byte	0x73877afb
    800048c4:	739d378b          	.4byte	0x739d378b
    800048c8:	eeb2                	sd	a2,344(sp)
    800048ca:	73c1                	lui	t2,0xffff0
    800048cc:	ee10                	sd	a2,24(a2)
    800048ce:	73d1                	lui	t2,0xffff4
    800048d0:	73d9c2c7          	fmsub.d	ft5,fs3,ft9,fa4,rmm
    800048d4:	73e9750b          	.4byte	0x73e9750b
    800048d8:	0760                	addi	s0,sp,908
    800048da:	73f0                	ld	a2,224(a5)
    800048dc:	aae2                	fsd	fs8,336(sp)
    800048de:	73fd                	lui	t2,0xfffff
    800048e0:	fa75                	bnez	a2,800048d4 <verify_data+0x1d0c>
    800048e2:	741d                	lui	s0,0xfffe7
    800048e4:	1086                	slli	ra,ra,0x21
    800048e6:	7439                	lui	s0,0xfffee
    800048e8:	8909                	andi	a0,a0,2
    800048ea:	743c                	ld	a5,104(s0)
    800048ec:	744d6397          	auipc	t2,0x744d6
    800048f0:	dd6a                	sw	s10,184(sp)
    800048f2:	b729745b          	.4byte	0xb729745b
    800048f6:	745e                	ld	s0,496(sp)
    800048f8:	7465                	lui	s0,0xffff9
    800048fa:	7465                	lui	s0,0xffff9
    800048fc:	4bc0                	lw	s0,20(a5)
    800048fe:	7398746f          	jal	s0,8008c836 <_tbss_end+0x83bf2>
    80004902:	7476                	ld	s0,376(sp)
    80004904:	748d9613          	.4byte	0x748d9613
    80004908:	8ffa                	mv	t6,t5
    8000490a:	74b0                	ld	a2,104(s1)
    8000490c:	d7c8                	sw	a0,44(a5)
    8000490e:	74b2                	ld	s1,296(sp)
    80004910:	74bac3d7          	.4byte	0x74bac3d7
    80004914:	5bd8                	lw	a4,52(a5)
    80004916:	6dec74c7          	.4byte	0x6dec74c7
    8000491a:	74c8                	ld	a0,168(s1)
    8000491c:	f214                	sd	a3,32(a2)
    8000491e:	5c8374eb          	.4byte	0x5c8374eb
    80004922:	74ec                	ld	a1,232(s1)
    80004924:	43cd                	li	t2,19
    80004926:	74fc                	ld	a5,232(s1)
    80004928:	d010                	sw	a2,32(s0)
    8000492a:	7501                	lui	a0,0xfffe0
    8000492c:	ff5d                	bnez	a4,800048ea <verify_data+0x1d22>
    8000492e:	7524                	ld	s1,104(a0)
    80004930:	91ec                	.2byte	0x91ec
    80004932:	752c                	ld	a1,104(a0)
    80004934:	cea2                	sw	s0,92(sp)
    80004936:	7548                	ld	a0,168(a0)
    80004938:	7556939b          	.4byte	0x7556939b
    8000493c:	ce81                	beqz	a3,80004954 <verify_data+0x1d8c>
    8000493e:	7556                	ld	a0,368(sp)
    80004940:	ae6e                	fsd	fs11,280(sp)
    80004942:	fa5f7567          	.4byte	0xfa5f7567
    80004946:	76de7577          	.4byte	0x76de7577
    8000494a:	7582                	ld	a1,32(sp)
    8000494c:	10d0                	addi	a2,sp,100
    8000494e:	7585                	lui	a1,0xfffe1
    80004950:	d4b4                	sw	a3,104(s1)
    80004952:	803b75e3          	bgeu	s6,gp,8000415c <verify_data+0x1594>
    80004956:	7612                	ld	a2,288(sp)
    80004958:	01e6                	slli	gp,gp,0x19
    8000495a:	f891761b          	.4byte	0xf891761b
    8000495e:	a0507637          	lui	a2,0xa0507
    80004962:	c41b7643          	.4byte	0xc41b7643
    80004966:	5c327643          	.4byte	0x5c327643
    8000496a:	765e                	ld	a2,496(sp)
    8000496c:	039c                	addi	a5,sp,448
    8000496e:	766e                	ld	a2,248(sp)
    80004970:	66c4                	ld	s1,136(a3)
    80004972:	7691                	lui	a3,0xfffe4
    80004974:	76c9de3b          	.4byte	0x76c9de3b
    80004978:	76e02b87          	flw	fs7,1902(zero) # 76e <buflen.0+0x72e>
    8000497c:	770d9d97          	auipc	s11,0x770d9
    80004980:	b4d1                	j	80004444 <verify_data+0x187c>
    80004982:	7745                	lui	a4,0xffff1
    80004984:	8a60                	.2byte	0x8a60
    80004986:	7761                	lui	a4,0xffff8
    80004988:	c005                	beqz	s0,800049a8 <verify_data+0x1de0>
    8000498a:	777c                	ld	a5,232(a4)
    8000498c:	5dbc                	lw	a5,120(a1)
    8000498e:	777e                	ld	a4,504(sp)
    80004990:	3159                	addiw	sp,sp,-10
    80004992:	7782                	ld	a5,32(sp)
    80004994:	d711                	beqz	a4,800048a0 <verify_data+0x1cd8>
    80004996:	56c3778b          	.4byte	0x56c3778b
    8000499a:	778e                	ld	a5,224(sp)
    8000499c:	0736                	slli	a4,a4,0xd
    8000499e:	7796                	ld	a5,352(sp)
    800049a0:	779e33eb          	.4byte	0x779e33eb
    800049a4:	a4f9                	j	80004c72 <input_data+0xaa>
    800049a6:	77c2                	ld	a5,48(sp)
    800049a8:	8b1a                	mv	s6,t1
    800049aa:	77d6                	ld	a5,368(sp)
    800049ac:	0db6                	slli	s11,s11,0xd
    800049ae:	77ea                	ld	a5,184(sp)
    800049b0:	96b1                	srai	a3,a3,0x2c
    800049b2:	780c                	ld	a1,48(s0)
    800049b4:	2c8c                	fld	fa1,24(s1)
    800049b6:	780d                	lui	a6,0xfffe3
    800049b8:	78276307          	.4byte	0x78276307
    800049bc:	3012                	fld	ft0,288(sp)
    800049be:	782c                	ld	a1,112(s0)
    800049c0:	d041                	beqz	s0,80004940 <verify_data+0x1d78>
    800049c2:	7830                	ld	a2,112(s0)
    800049c4:	783be667          	.4byte	0x783be667
    800049c8:	5ebc                	lw	a5,120(a3)
    800049ca:	784d                	lui	a6,0xffff3
    800049cc:	b865                	j	80004284 <verify_data+0x16bc>
    800049ce:	7889                	lui	a7,0xfffe2
    800049d0:	1f55                	addi	t5,t5,-11 # 70b49ff5 <buflen.0+0x70b49fb5>
    800049d2:	7894                	ld	a3,48(s1)
    800049d4:	23fa                	fld	ft7,408(sp)
    800049d6:	789c                	ld	a5,48(s1)
    800049d8:	d08a                	sw	sp,96(sp)
    800049da:	78b0                	ld	a2,112(s1)
    800049dc:	5dae                	lw	s11,232(sp)
    800049de:	78d8                	ld	a4,176(s1)
    800049e0:	fd24                	sd	s1,120(a0)
    800049e2:	78dd                	lui	a7,0xffff7
    800049e4:	35aa                	fld	fa1,168(sp)
    800049e6:	78de                	ld	a7,496(sp)
    800049e8:	7171                	addi	sp,sp,-176
    800049ea:	78df 9a07 78e2      	.byte	0xdf, 0x78, 0x07, 0x9a, 0xe2, 0x78
    800049f0:	78f220af          	.4byte	0x78f220af
    800049f4:	f786                	sd	ra,488(sp)
    800049f6:	78fd                	lui	a7,0xfffff
    800049f8:	2c44                	fld	fs1,152(s0)
    800049fa:	792d                	lui	s2,0xfffeb
    800049fc:	c459                	beqz	s0,80004a8a <verify_data+0x1ec2>
    800049fe:	7939                	lui	s2,0xfffee
    80004a00:	1798                	addi	a4,sp,992
    80004a02:	7948                	ld	a0,176(a0)
    80004a04:	d530                	sw	a2,104(a0)
    80004a06:	574d795b          	.4byte	0x574d795b
    80004a0a:	7966                	ld	s2,120(sp)
    80004a0c:	ee36                	sd	a3,280(sp)
    80004a0e:	796c                	ld	a1,240(a0)
    80004a10:	89e9                	andi	a1,a1,26
    80004a12:	de277987          	.4byte	0xde277987
    80004a16:	7988                	ld	a0,48(a1)
    80004a18:	79b5933b          	.4byte	0x79b5933b
    80004a1c:	79c39977          	.4byte	0x79c39977
    80004a20:	35d0                	fld	fa2,168(a1)
    80004a22:	79d5                	lui	s3,0xffff5
    80004a24:	79ea714f          	fnmadd.s	ft2,fs4,ft10,fa5
    80004a28:	c122                	sw	s0,128(sp)
    80004a2a:	79f0                	ld	a2,240(a1)
    80004a2c:	135a                	slli	t1,t1,0x36
    80004a2e:	79ff                	.2byte	0x79ff
    80004a30:	d7ff                	.2byte	0xd7ff
    80004a32:	7a02                	ld	s4,32(sp)
    80004a34:	7a0e7c57          	.4byte	0x7a0e7c57
    80004a38:	2399                	addiw	t2,t2,6 # fffffffff44da8f2 <dram_end_address_reg+0xffffffff244da8e2>
    80004a3a:	7a15                	lui	s4,0xfffe5
    80004a3c:	8d0d                	sub	a0,a0,a1
    80004a3e:	7a1a                	ld	s4,416(sp)
    80004a40:	ec61                	bnez	s0,80004b18 <verify_data+0x1f50>
    80004a42:	f0f97a2b          	.4byte	0xf0f97a2b
    80004a46:	0e127a53          	.4byte	0xe127a53
    80004a4a:	7a54                	ld	a3,176(a2)
    80004a4c:	7a54488b          	.4byte	0x7a54488b
    80004a50:	039a                	slli	t2,t2,0x6
    80004a52:	7a6c                	ld	a1,240(a2)
    80004a54:	cbd4                	sw	a3,20(a5)
    80004a56:	7a70                	ld	a2,240(a2)
    80004a58:	c442                	sw	a6,8(sp)
    80004a5a:	7a88                	ld	a0,48(a3)
    80004a5c:	e546                	sd	a7,136(sp)
    80004a5e:	939c7ad7          	.4byte	0x939c7ad7
    80004a62:	7ada                	ld	s5,432(sp)
    80004a64:	7afd1cd3          	.4byte	0x7afd1cd3
    80004a68:	5c90                	lw	a2,56(s1)
    80004a6a:	7b08                	ld	a0,48(a4)
    80004a6c:	d916                	sw	t0,176(sp)
    80004a6e:	7b0a                	ld	s6,160(sp)
    80004a70:	7b2b5f8b          	.4byte	0x7b2b5f8b
    80004a74:	de31                	beqz	a2,800049d0 <verify_data+0x1e08>
    80004a76:	7b31                	lui	s6,0xfffec
    80004a78:	7b35733f 7b3b8ae9 	.8byte	0x7b3b8ae97b35733f
    80004a80:	69d2                	ld	s3,272(sp)
    80004a82:	7b48                	ld	a0,176(a4)
    80004a84:	84c1                	srai	s1,s1,0x10
    80004a86:	7b4e                	ld	s6,240(sp)
    80004a88:	26e9                	addiw	a3,a3,26 # fffffffffffe401a <dram_end_address_reg+0xffffffff2ffe400a>
    80004a8a:	7b55                	lui	s6,0xffff5
    80004a8c:	d215                	beqz	a2,800049b0 <verify_data+0x1de8>
    80004a8e:	7b68                	ld	a0,240(a4)
    80004a90:	7b86eff3          	csrrsi	t6,0x7b8,13
    80004a94:	d676                	sw	t4,44(sp)
    80004a96:	7b96                	ld	s7,352(sp)
    80004a98:	8d3a                	mv	s10,a4
    80004a9a:	678e7bab          	.4byte	0x678e7bab
    80004a9e:	7bac                	ld	a1,112(a5)
    80004aa0:	7bc697fb          	.4byte	0x7bc697fb
    80004aa4:	b108                	fsd	fa0,32(a0)
    80004aa6:	7bd6                	ld	s7,368(sp)
    80004aa8:	7be3d2d7          	.4byte	0x7be3d2d7
    80004aac:	8a2c                	.2byte	0x8a2c
    80004aae:	7bf2                	ld	s7,312(sp)
    80004ab0:	80f5                	srli	s1,s1,0x1d
    80004ab2:	7c05                	lui	s8,0xfffe1
    80004ab4:	da01                	beqz	a2,800049c4 <verify_data+0x1dfc>
    80004ab6:	7c11                	lui	s8,0xfffe4
    80004ab8:	67a4                	ld	s1,72(a5)
    80004aba:	7c24                	ld	s1,120(s0)
    80004abc:	7c45df3b          	.4byte	0x7c45df3b
    80004ac0:	8234                	.2byte	0x8234
    80004ac2:	2dab7c4b          	.4byte	0x2dab7c4b
    80004ac6:	27d67c6f          	jal	s8,8006c542 <_tbss_end+0x638fe>
    80004aca:	7c7d                	lui	s8,0xfffff
    80004acc:	5be8                	lw	a0,116(a5)
    80004ace:	7c80                	ld	s0,56(s1)
    80004ad0:	ee66                	sd	s9,280(sp)
    80004ad2:	7c82                	ld	s9,32(sp)
    80004ad4:	7c9296e3          	bne	t0,s1,80005aa0 <input_data+0xed8>
    80004ad8:	7c93425b          	.4byte	0x7c93425b
    80004adc:	29ad                	addiw	s3,s3,11 # ffffffffffff500b <dram_end_address_reg+0xffffffff2fff4ffb>
    80004ade:	91207c9b          	.4byte	0x91207c9b
    80004ae2:	4ee17c9b          	.4byte	0x4ee17c9b
    80004ae6:	7c9d                	lui	s9,0xfffe7
    80004ae8:	ae2c                	fsd	fa1,88(a2)
    80004aea:	da267cab          	.4byte	0xda267cab
    80004aee:	35837cc7          	.4byte	0x35837cc7
    80004af2:	7cd1                	lui	s9,0xffff4
    80004af4:	5531                	li	a0,-20
    80004af6:	7cd2                	ld	s9,304(sp)
    80004af8:	ed64                	sd	s1,216(a0)
    80004afa:	7cd8                	ld	a4,184(s1)
    80004afc:	172d                	addi	a4,a4,-21 # ffffffffffff7feb <dram_end_address_reg+0xffffffff2fff7fdb>
    80004afe:	7cdd                	lui	s9,0xffff7
    80004b00:	8ed0                	.2byte	0x8ed0
    80004b02:	7cfe                	ld	s9,504(sp)
    80004b04:	7d199933          	.4byte	0x7d199933
    80004b08:	0d94                	addi	a3,sp,720
    80004b0a:	d9767d33          	.4byte	0xd9767d33
    80004b0e:	7d5c                	ld	a5,184(a0)
    80004b10:	a826                	fsd	fs1,16(sp)
    80004b12:	7d7c                	ld	a5,248(a0)
    80004b14:	7dc1                	lui	s11,0xffff0
    80004b16:	7d81                	lui	s11,0xfffe0
    80004b18:	b7c8                	fsd	fa0,168(a5)
    80004b1a:	7d82                	ld	s11,32(sp)
    80004b1c:	2f96                	fld	ft11,320(sp)
    80004b1e:	7d84                	ld	s1,56(a1)
    80004b20:	3b66                	fld	fs6,120(sp)
    80004b22:	7dac                	ld	a1,120(a1)
    80004b24:	97d6                	add	a5,a5,s5
    80004b26:	7db5                	lui	s11,0xfffed
    80004b28:	7dbce1f7          	.4byte	0x7dbce1f7
    80004b2c:	c751                	beqz	a4,80004bb8 <verify_data+0x1ff0>
    80004b2e:	7dc1                	lui	s11,0xffff0
    80004b30:	7558                	ld	a4,168(a0)
    80004b32:	7df8                	ld	a4,248(a1)
    80004b34:	7e0a0b8f          	.4byte	0x7e0a0b8f
    80004b38:	7e1723f7          	.4byte	0x7e1723f7
    80004b3c:	287c                	fld	fa5,208(s0)
    80004b3e:	48c77e27          	.4byte	0x48c77e27
    80004b42:	7e3c                	ld	a5,120(a2)
    80004b44:	3888                	fld	fa0,48(s1)
    80004b46:	7e41                	lui	t3,0xffff0
    80004b48:	b8ee                	fsd	fs11,112(sp)
    80004b4a:	7e44                	ld	s1,184(a2)
    80004b4c:	69c4                	ld	s1,144(a1)
    80004b4e:	7e4a                	ld	t3,176(sp)
    80004b50:	a6bd                	j	80004ebe <input_data+0x2f6>
    80004b52:	7e4a                	ld	t3,176(sp)
    80004b54:	de88                	sw	a0,56(a3)
    80004b56:	282b7e53          	.4byte	0x282b7e53
    80004b5a:	7e7f                	.2byte	0x7e7f
    80004b5c:	2a5f 7e88 3314      	.byte	0x5f, 0x2a, 0x88, 0x7e, 0x14, 0x33
    80004b62:	7e90                	ld	a2,56(a3)
    80004b64:	1b69                	addi	s6,s6,-6 # ffffffffffff4ffa <dram_end_address_reg+0xffffffff2fff4fea>
    80004b66:	7ea5                	lui	t4,0xfffe9
    80004b68:	8eb9                	xor	a3,a3,a4
    80004b6a:	a1f87eb7          	lui	t4,0xa1f87
    80004b6e:	7eb8                	ld	a4,120(a3)
    80004b70:	8b3e                	mv	s6,a5
    80004b72:	7ec6                	ld	t4,112(sp)
    80004b74:	7ec6e397          	auipc	t2,0x7ec6e
    80004b78:	e55e                	sd	s7,136(sp)
    80004b7a:	50687ed7          	.4byte	0x50687ed7
    80004b7e:	cc317ee3          	bgeu	sp,gp,8000485a <verify_data+0x1c92>
    80004b82:	7eed                	lui	t4,0xffffb
    80004b84:	2954                	fld	fa3,144(a0)
    80004b86:	7ef4                	ld	a3,248(a3)
    80004b88:	7ef912b7          	lui	t0,0x7ef91
    80004b8c:	a5cd                	j	8000526e <input_data+0x6a6>
    80004b8e:	7f02                	ld	t5,32(sp)
    80004b90:	1831                	addi	a6,a6,-20 # ffffffffffff2fec <dram_end_address_reg+0xffffffff2fff2fdc>
    80004b92:	7f10                	ld	a2,56(a4)
    80004b94:	a605                	j	80004eb4 <input_data+0x2ec>
    80004b96:	7f10                	ld	a2,56(a4)
    80004b98:	0434                	addi	a3,sp,520
    80004b9a:	7f24                	ld	s1,120(a4)
    80004b9c:	c95e                	sw	s7,144(sp)
    80004b9e:	731f7f4b          	fnmsub.d	ft10,ft10,fa7,fa4
    80004ba2:	7f8d                	lui	t6,0xfffe3
    80004ba4:	3385                	addiw	t2,t2,-31 # fffffffffec72b55 <dram_end_address_reg+0xffffffff2ec72b45>
    80004ba6:	58997f8f          	.4byte	0x58997f8f
    80004baa:	7f99                	lui	t6,0xfffe6
    80004bac:	1715                	addi	a4,a4,-27
    80004bae:	7fa6                	ld	t6,104(sp)
    80004bb0:	c8f2                	sw	t3,80(sp)
    80004bb2:	7fb1                	lui	t6,0xfffec
    80004bb4:	8976                	mv	s2,t4
    80004bb6:	7fc0                	ld	s0,184(a5)
    80004bb8:	d2d0                	sw	a2,36(a3)
    80004bba:	7fc0                	ld	s0,184(a5)
    80004bbc:	5d7f                	.2byte	0x5d7f
    80004bbe:	7fca                	ld	t6,176(sp)
    80004bc0:	3900                	fld	fs0,48(a0)
    80004bc2:	4e467fdb          	.4byte	0x4e467fdb
    80004bc6:	7fe8                	ld	a0,248(a5)

0000000080004bc8 <input_data>:
    80004bc8:	24a4                	fld	fs1,72(s1)
    80004bca:	0554                	addi	a3,sp,644
    80004bcc:	cef4                	sw	a3,92(a3)
    80004bce:	3a2c                	fld	fa1,112(a2)
    80004bd0:	4a64                	lw	s1,84(a2)
    80004bd2:	97196adb          	.4byte	0x97196adb
    80004bd6:	2b01                	sext.w	s6,s6
    80004bd8:	f4ee                	sd	s11,104(sp)
    80004bda:	4861                	li	a6,24
    80004bdc:	0039e5ef          	jal	a1,800a33de <_tbss_end+0x9a79a>
    80004be0:	eeec                	sd	a1,216(a3)
    80004be2:	1802                	slli	a6,a6,0x20
    80004be4:	8b3e                	mv	s6,a5
    80004be6:	7ec6                	ld	t4,112(sp)
    80004be8:	4a40                	lw	s0,20(a2)
    80004bea:	6010                	ld	a2,0(s0)
    80004bec:	0df8                	addi	a4,sp,732
    80004bee:	2ee2                	fld	ft9,24(sp)
    80004bf0:	6b72                	ld	s6,280(sp)
    80004bf2:	2cf4                	fld	fa3,216(s1)
    80004bf4:	49635f53          	.4byte	0x49635f53
    80004bf8:	8979                	andi	a0,a0,30
    80004bfa:	9b6810f7          	.4byte	0x9b6810f7
    80004bfe:	0836                	slli	a6,a6,0xd
    80004c00:	79b5933b          	.4byte	0x79b5933b
    80004c04:	db86                	sw	ra,244(sp)
    80004c06:	ca5913a7          	.4byte	0xca5913a7
    80004c0a:	4ad5                	li	s5,21
    80004c0c:	28d5                	addiw	a7,a7,21 # fffffffffffff015 <dram_end_address_reg+0xffffffff2ffff005>
    80004c0e:	1bb9                	addi	s7,s7,-18 # cfee <buflen.0+0xcfae>
    80004c10:	72c2                	ld	t0,48(sp)
    80004c12:	04bd673b          	.4byte	0x4bd673b
    80004c16:	9f1011fb          	.4byte	0x9f1011fb
    80004c1a:	4f9f 88d5 1afe      	.byte	0x9f, 0x4f, 0xd5, 0x88, 0xfe, 0x1a
    80004c20:	8b4c                	.2byte	0x8b4c
    80004c22:	d92d00d7          	.4byte	0xd92d00d7
    80004c26:	4961                	li	s2,24
    80004c28:	8a60                	.2byte	0x8a60
    80004c2a:	7761                	lui	a4,0xffff8
    80004c2c:	d1e1                	beqz	a1,80004bec <input_data+0x24>
    80004c2e:	ee242b8f          	.4byte	0xee242b8f
    80004c32:	720e                	ld	tp,224(sp)
    80004c34:	040c                	addi	a1,sp,512
    80004c36:	4c04                	lw	s1,24(s0)
    80004c38:	6e71                	lui	t3,0x1c
    80004c3a:	324a                	fld	ft4,176(sp)
    80004c3c:	0655                	addi	a2,a2,21 # ffffffffa0507015 <dram_end_address_reg+0xfffffffed0507005>
    80004c3e:	731d                	lui	t1,0xfffe7
    80004c40:	917d                	srli	a0,a0,0x3f
    80004c42:	58f5                	li	a7,-3
    80004c44:	da5f 1d42 de31      	.byte	0x5f, 0xda, 0x42, 0x1d, 0x31, 0xde
    80004c4a:	7b31                	lui	s6,0xfffec
    80004c4c:	fa95                	bnez	a3,80004b80 <verify_data+0x1fb8>
    80004c4e:	018a                	slli	gp,gp,0x2
    80004c50:	d8e0                	sw	s0,116(s1)
    80004c52:	12ec0e33          	.4byte	0x12ec0e33
    80004c56:	712a                	ld	sp,168(sp)
    80004c58:	db66                	sw	s9,180(sp)
    80004c5a:	0ef1                	addi	t4,t4,28 # ffffffffffffb01c <dram_end_address_reg+0xffffffff2fffb00c>
    80004c5c:	3b49                	addiw	s6,s6,-14 # fffffffffffebff2 <dram_end_address_reg+0xffffffff2ffebfe2>
    80004c5e:	601e                	.2byte	0x601e
    80004c60:	2601eb4f          	.4byte	0x2601eb4f
    80004c64:	cb54                	sw	a3,20(a4)
    80004c66:	52c6                	lw	t0,112(sp)
    80004c68:	2b51                	addiw	s6,s6,20
    80004c6a:	369a                	fld	fa3,416(sp)
    80004c6c:	d5c8                	sw	a0,44(a1)
    80004c6e:	401e                	.2byte	0x401e
    80004c70:	10f8                	addi	a4,sp,108
    80004c72:	2844                	fld	fs1,144(s0)
    80004c74:	8c39                	xor	s0,s0,a4
    80004c76:	37e8                	fld	fa0,232(a5)
    80004c78:	0c00                	addi	s0,sp,528
    80004c7a:	547c                	lw	a5,108(s0)
    80004c7c:	0492                	slli	s1,s1,0x4
    80004c7e:	59ed                	li	s3,-5
    80004c80:	632cf297          	auipc	t0,0x632cf
    80004c84:	1e9a                	slli	t4,t4,0x26
    80004c86:	6819                	lui	a6,0x6
    80004c88:	b431                	j	80004694 <verify_data+0x1acc>
    80004c8a:	e1f728ef          	jal	a7,7ff77aa8 <buflen.0+0x7ff77a68>
    80004c8e:	7dbc                	ld	a5,120(a1)
    80004c90:	3468                	fld	fa0,232(s0)
    80004c92:	56fe                	lw	a3,252(sp)
    80004c94:	2441                	addiw	s0,s0,16 # ffffffffffff9010 <dram_end_address_reg+0xffffffff2fff9000>
    80004c96:	a7de1353          	.4byte	0xa7de1353
    80004c9a:	7021                	c.lui	zero,0xfffe8
    80004c9c:	62d6                	ld	t0,336(sp)
    80004c9e:	86c8592f          	.4byte	0x86c8592f
    80004ca2:	304d                	.2byte	0x304d
    80004ca4:	8551                	srai	a0,a0,0x14
    80004ca6:	484c                	lw	a1,20(s0)
    80004ca8:	8b6a                	mv	s6,s10
    80004caa:	3ccc                	fld	fa1,184(s1)
    80004cac:	fb81                	bnez	a5,80004bbc <verify_data+0x1ff4>
    80004cae:	22e0                	fld	fs0,192(a3)
    80004cb0:	783be667          	.4byte	0x783be667
    80004cb4:	2128e503          	lwu	a0,530(a7)
    80004cb8:	bf66                	fsd	fs9,440(sp)
    80004cba:	4524                	lw	s1,72(a0)
    80004cbc:	52ea70bb          	.4byte	0x52ea70bb
    80004cc0:	662c                	ld	a1,72(a2)
    80004cc2:	48ee                	lw	a7,216(sp)
    80004cc4:	6f6a                	ld	t5,152(sp)
    80004cc6:	4139                	li	sp,14
    80004cc8:	af00                	fsd	fs0,24(a4)
    80004cca:	1a05                	addi	s4,s4,-31 # fffffffffffe4fe1 <dram_end_address_reg+0xffffffff2ffe4fd1>
    80004ccc:	0b5676e3          	bgeu	a2,s5,80005578 <input_data+0x9b0>
    80004cd0:	7ca6                	ld	s9,104(sp)
    80004cd2:	727123f3          	csrrs	t2,0x727,sp
    80004cd6:	5a32                	lw	s4,44(sp)
    80004cd8:	5b08                	lw	a0,48(a4)
    80004cda:	6145                	addi	sp,sp,48
    80004cdc:	e12a                	sd	a0,128(sp)
    80004cde:	55d6                	lw	a1,116(sp)
    80004ce0:	6f29                	lui	t5,0xa
    80004ce2:	4db5                	li	s11,13
    80004ce4:	301453e7          	.4byte	0x301453e7
    80004ce8:	4ba0                	lw	s0,80(a5)
    80004cea:	4191                	li	gp,4
    80004cec:	42ff                	.2byte	0x42ff
    80004cee:	46ae                	lw	a3,200(sp)
    80004cf0:	148d                	addi	s1,s1,-29
    80004cf2:	544a                	lw	s0,176(sp)
    80004cf4:	96b1                	srai	a3,a3,0x2c
    80004cf6:	780c                	ld	a1,48(s0)
    80004cf8:	b280                	fsd	fs0,32(a3)
    80004cfa:	1900                	addi	s0,sp,176
    80004cfc:	058c                	addi	a1,sp,704
    80004cfe:	c97f4bef          	jal	s7,7fff9994 <buflen.0+0x7fff9954>
    80004d02:	0a79                	addi	s4,s4,30
    80004d04:	c11e                	sw	t2,128(sp)
    80004d06:	48ec                	lw	a1,84(s1)
    80004d08:	27e4                	fld	fs1,200(a5)
    80004d0a:	223a                	fld	ft4,392(sp)
    80004d0c:	135a                	slli	t1,t1,0x36
    80004d0e:	79ff                	.2byte	0x79ff
    80004d10:	1082                	slli	ra,ra,0x20
    80004d12:	16571d5b          	.4byte	0x16571d5b
    80004d16:	66a0                	ld	s0,72(a3)
    80004d18:	0c12                	slli	s8,s8,0x4
    80004d1a:	2b48                	fld	fa0,144(a4)
    80004d1c:	5c10                	lw	a2,56(s0)
    80004d1e:	4adf f786 78fd      	.byte	0xdf, 0x4a, 0x86, 0xf7, 0xfd, 0x78
    80004d24:	34f5                	addiw	s1,s1,-3
    80004d26:	5266                	lw	tp,120(sp)
    80004d28:	739d378b          	.4byte	0x739d378b
    80004d2c:	9259                	srli	a2,a2,0x36
    80004d2e:	2f28                	fld	fa0,88(a4)
    80004d30:	1ef9fd23          	.4byte	0x1ef9fd23
    80004d34:	ccad                	beqz	s1,80004dae <input_data+0x1e6>
    80004d36:	43cd3ea7          	fsd	ft8,1085(s10) # 1b43d <buflen.0+0x1b3fd>
    80004d3a:	74fc                	ld	a5,232(s1)
    80004d3c:	2a22a5e3          	.4byte	0x2a22a5e3
    80004d40:	cf72                	sw	t3,156(sp)
    80004d42:	69e2                	ld	s3,24(sp)
    80004d44:	281bbd27          	fsd	ft1,666(s7)
    80004d48:	778e56c3          	.4byte	0x778e56c3
    80004d4c:	4bf29b83          	lh	s7,1215(t0) # e32d413f <dram_end_address_reg+0x132d412f>
    80004d50:	de88                	sw	a0,56(a3)
    80004d52:	0fec7e53          	.4byte	0xfec7e53
    80004d56:	31c6                	fld	ft3,112(sp)
    80004d58:	191afacb          	fnmsub.s	fs5,fs5,fa7,ft3
    80004d5c:	8575                	srai	a0,a0,0x1d
    80004d5e:	45b2                	lw	a1,12(sp)
    80004d60:	5c90                	lw	a2,56(s1)
    80004d62:	7b08                	ld	a0,48(a4)
    80004d64:	5f7c                	lw	a5,124(a4)
    80004d66:	2d61533f 7dc148a1 	.8byte	0x7dc148a12d61533f
    80004d6e:	7d81                	lui	s11,0xfffe0
    80004d70:	e584                	sd	s1,8(a1)
    80004d72:	2cf4                	fld	fa3,216(s1)
    80004d74:	5d7f                	.2byte	0x5d7f
    80004d76:	7fca                	ld	t6,176(sp)
    80004d78:	6e6c                	ld	a1,216(a2)
    80004d7a:	532a                	lw	t1,168(sp)
    80004d7c:	a4ba                	fsd	fa4,72(sp)
    80004d7e:	6855                	lui	a6,0x15
    80004d80:	a888                	fsd	fa0,16(s1)
    80004d82:	5431                	li	s0,-20
    80004d84:	4a15                	li	s4,5
    80004d86:	0a26                	slli	s4,s4,0x9
    80004d88:	3a26                	fld	fs4,104(sp)
    80004d8a:	45a11733          	.4byte	0x45a11733
    80004d8e:	1ab8                	addi	a4,sp,376
    80004d90:	0e578ce3          	beq	a5,t0,80005688 <input_data+0xac0>
    80004d94:	4e46                	lw	t3,80(sp)
    80004d96:	7fe8                	ld	a0,248(a5)
    80004d98:	f7a0                	sd	s0,104(a5)
    80004d9a:	6e10                	ld	a2,24(a2)
    80004d9c:	6366                	ld	t1,88(sp)
    80004d9e:	50b4                	lw	a3,96(s1)
    80004da0:	08606c9b          	.4byte	0x8606c9b
    80004da4:	cb9d                	beqz	a5,80004dda <input_data+0x212>
    80004da6:	6c92                	ld	s9,256(sp)
    80004da8:	05f9                	addi	a1,a1,30 # fffffffffffe101e <dram_end_address_reg+0xffffffff2ffe100e>
    80004daa:	24f4                	fld	fa3,200(s1)
    80004dac:	0f8e                	slli	t6,t6,0x3
    80004dae:	5a42                	lw	s4,48(sp)
    80004db0:	2cc21eab          	.4byte	0x2cc21eab
    80004db4:	d2d0                	sw	a2,36(a3)
    80004db6:	7fc0                	ld	s0,184(a5)
    80004db8:	321c                	fld	fa5,32(a2)
    80004dba:	1225                	addi	tp,tp,-23 # fffffffffffeefe9 <dram_end_address_reg+0xffffffff2ffeefd9>
    80004dbc:	0d30                	addi	a2,sp,664
    80004dbe:	207d                	.2byte	0x207d
    80004dc0:	aae2                	fsd	fs8,336(sp)
    80004dc2:	73fd                	lui	t2,0xfffff
    80004dc4:	1398                	addi	a4,sp,480
    80004dc6:	5bad                	li	s7,-21
    80004dc8:	7f30                	ld	a2,120(a4)
    80004dca:	7188                	ld	a0,32(a1)
    80004dcc:	6219                	lui	tp,0x6
    80004dce:	a15d371b          	.4byte	0xa15d371b
    80004dd2:	b79f21d7          	.4byte	0xb79f21d7
    80004dd6:	353e                	fld	fa0,488(sp)
    80004dd8:	cba1                	beqz	a5,80004e28 <input_data+0x260>
    80004dda:	980f49e3          	bltz	t5,8000476c <verify_data+0x1ba4>
    80004dde:	4500                	lw	s0,8(a0)
    80004de0:	2f96                	fld	ft11,320(sp)
    80004de2:	7d84                	ld	s1,56(a1)
    80004de4:	59bbba97          	auipc	s5,0x59bbb
    80004de8:	7cc8                	ld	a0,184(s1)
    80004dea:	6186                	ld	gp,64(sp)
    80004dec:	00949033          	sll	zero,s1,s1
    80004df0:	2d32                	fld	fs10,264(sp)
    80004df2:	1ee1                	addi	t4,t4,-8
    80004df4:	7168                	ld	a0,224(a0)
    80004df6:	fb3a3f67          	.4byte	0xfb3a3f67
    80004dfa:	ea803d57          	.4byte	0xea803d57
    80004dfe:	0cd0                	addi	a2,sp,596
    80004e00:	fa46                	sd	a7,304(sp)
    80004e02:	4001                	c.li	zero,0
    80004e04:	1281                	addi	t0,t0,-32
    80004e06:	6ecd                	lui	t4,0x13
    80004e08:	69aa                	ld	s3,136(sp)
    80004e0a:	33a5                	addiw	t2,t2,-23 # ffffffffffffefe9 <dram_end_address_reg+0xffffffff2fffefd9>
    80004e0c:	58e6236f          	jal	t1,8006739a <_tbss_end+0x5e756>
    80004e10:	a960                	fsd	fs0,208(a0)
    80004e12:	1c74                	addi	a3,sp,572
    80004e14:	3150                	fld	fa2,160(a0)
    80004e16:	3561                	addiw	a0,a0,-8 # fffffffffffdfff8 <dram_end_address_reg+0xffffffff2ffdffe8>
    80004e18:	a07c                	fsd	fa5,192(s0)
    80004e1a:	a9bd38e3          	.4byte	0xa9bd38e3
    80004e1e:	2609                	addiw	a2,a2,2
    80004e20:	8f18                	.2byte	0x8f18
    80004e22:	5c65                	li	s8,-7
    80004e24:	3ecd                	addiw	t4,t4,-13 # 12ff3 <buflen.0+0x12fb3>
    80004e26:	24a2                	fld	fs1,8(sp)
    80004e28:	17e6                	slli	a5,a5,0x39
    80004e2a:	56a1                	li	a3,-24
    80004e2c:	4e44                	lw	s1,28(a2)
    80004e2e:	4f90                	lw	a2,24(a5)
    80004e30:	28bdf153          	.4byte	0x28bdf153
    80004e34:	4130                	lw	a2,64(a0)
    80004e36:	0ac50a0f          	.4byte	0xac50a0f
    80004e3a:	1cb4                	addi	a3,sp,632
    80004e3c:	9006                	c.add	zero,ra
    80004e3e:	2d0c                	fld	fa1,24(a0)
    80004e40:	3012                	fld	ft0,288(sp)
    80004e42:	782c                	ld	a1,112(s0)
    80004e44:	14c2                	slli	s1,s1,0x30
    80004e46:	454d                	li	a0,19
    80004e48:	bbfa                	fsd	ft10,496(sp)
    80004e4a:	664924eb          	.4byte	0x664924eb
    80004e4e:	52de                	lw	t0,244(sp)
    80004e50:	61f6                	ld	gp,344(sp)
    80004e52:	a7d10f4f          	.4byte	0xa7d10f4f
    80004e56:	15c5                	addi	a1,a1,-15
    80004e58:	687e                	ld	a6,472(sp)
    80004e5a:	4ed0                	lw	a2,28(a3)
    80004e5c:	4adc                	lw	a5,20(a3)
    80004e5e:	439a                	lw	t2,132(sp)
    80004e60:	fe51                	bnez	a2,80004dfc <input_data+0x234>
    80004e62:	4da5                	li	s11,9
    80004e64:	c3bd                	beqz	a5,80004eca <input_data+0x302>
    80004e66:	2511                	addiw	a0,a0,4
    80004e68:	100a                	c.slli	zero,0x22
    80004e6a:	31ec                	fld	fa1,224(a1)
    80004e6c:	66076677          	.4byte	0x66076677
    80004e70:	ceea                	sw	s10,92(sp)
    80004e72:	2cfe                	fld	fs9,472(sp)
    80004e74:	152e                	slli	a0,a0,0x2b
    80004e76:	66b5                	lui	a3,0xd
    80004e78:	de5c                	sw	a5,60(a2)
    80004e7a:	3a4e                	fld	fs4,240(sp)
    80004e7c:	e140                	sd	s0,128(a0)
    80004e7e:	5c50                	lw	a2,60(s0)
    80004e80:	034d                	addi	t1,t1,19 # fffffffffffe7013 <dram_end_address_reg+0xffffffff2ffe7003>
    80004e82:	23a5                	addiw	t2,t2,9
    80004e84:	4569                	li	a0,26
    80004e86:	613d                	addi	sp,sp,480
    80004e88:	9f26                	add	t5,t5,s1
    80004e8a:	2f24                	fld	fs1,88(a4)
    80004e8c:	796a                	ld	s2,184(sp)
    80004e8e:	5f84                	lw	s1,56(a5)
    80004e90:	2df3dfcb          	.4byte	0x2df3dfcb
    80004e94:	16b9                	addi	a3,a3,-18 # cfee <buflen.0+0xcfae>
    80004e96:	0bd0                	addi	a2,sp,468
    80004e98:	4699                	li	a3,6
    80004e9a:	4add                	li	s5,23
    80004e9c:	a1f8                	fsd	fa4,192(a1)
    80004e9e:	7eb8                	ld	a4,120(a3)
    80004ea0:	2215                	addiw	tp,tp,5 # 6005 <buflen.0+0x5fc5>
    80004ea2:	080c                	addi	a1,sp,16
    80004ea4:	9608                	.2byte	0x9608
    80004ea6:	22c1                	addiw	t0,t0,16
    80004ea8:	3888                	fld	fa0,48(s1)
    80004eaa:	7e41                	lui	t3,0xffff0
    80004eac:	8b9f 6d56 d570      	.byte	0x9f, 0x8b, 0x56, 0x6d, 0x70, 0xd5
    80004eb2:	33ac                	fld	fa1,96(a5)
    80004eb4:	938e                	add	t2,t2,gp
    80004eb6:	650a                	ld	a0,128(sp)
    80004eb8:	983d                	andi	s0,s0,-17
    80004eba:	2c6a                	fld	fs8,152(sp)
    80004ebc:	99ca                	add	s3,s3,s2
    80004ebe:	4428                	lw	a0,72(s0)
    80004ec0:	f095                	bnez	s1,80004de4 <input_data+0x21c>
    80004ec2:	4252                	lw	tp,20(sp)
    80004ec4:	b4a9                	j	8000490e <verify_data+0x1d46>
    80004ec6:	1c88                	addi	a0,sp,624
    80004ec8:	8ad5                	andi	a3,a3,21
    80004eca:	e5b747a7          	.4byte	0xe5b747a7
    80004ece:	b7293b13          	sltiu	s6,s2,-1166
    80004ed2:	745e                	ld	s0,496(sp)
    80004ed4:	1ef490c3          	.4byte	0x1ef490c3
    80004ed8:	f658                	sd	a4,168(a2)
    80004eda:	635d                	lui	t1,0x17
    80004edc:	2deb91bf 20b378d4 	.8byte	0x20b378d42deb91bf
    80004ee4:	2a8f6b6f          	jal	s6,800fb18c <_tbss_end+0xf2548>
    80004ee8:	e759                	bnez	a4,80004f76 <input_data+0x3ae>
    80004eea:	ceb263c7          	.4byte	0xceb263c7
    80004eee:	57b6                	lw	a5,108(sp)
    80004ef0:	e800                	sd	s0,16(s0)
    80004ef2:	4cb5                	li	s9,13
    80004ef4:	3d98                	fld	fa4,56(a1)
    80004ef6:	5ed1                	li	t4,-12
    80004ef8:	6746                	ld	a4,80(sp)
    80004efa:	1268                	addi	a0,sp,300
    80004efc:	9561                	srai	a0,a0,0x38
    80004efe:	392e                	fld	fs2,232(sp)
    80004f00:	e231                	bnez	a2,80004f44 <input_data+0x37c>
    80004f02:	0456                	slli	s0,s0,0x15
    80004f04:	dfd0                	sw	a2,60(a5)
    80004f06:	27f8                	fld	fa4,200(a5)
    80004f08:	2d4e                	fld	fs10,208(sp)
    80004f0a:	3635100b          	.4byte	0x3635100b
    80004f0e:	5f46                	lw	t5,112(sp)
    80004f10:	23fa                	fld	ft7,408(sp)
    80004f12:	789c                	ld	a5,48(s1)
    80004f14:	47c5                	li	a5,17
    80004f16:	33eb476b          	.4byte	0x33eb476b
    80004f1a:	779e                	ld	a5,480(sp)
    80004f1c:	00fc                	addi	a5,sp,76
    80004f1e:	3d62                	fld	fs10,56(sp)
    80004f20:	02a2                	slli	t0,t0,0x8
    80004f22:	6676                	ld	a2,344(sp)
    80004f24:	476bead3          	.4byte	0x476bead3
    80004f28:	46dadd13          	.4byte	0x46dadd13
    80004f2c:	66c4                	ld	s1,136(a3)
    80004f2e:	7691                	lui	a3,0xfffe4
    80004f30:	e555                	bnez	a0,80004fdc <input_data+0x414>
    80004f32:	3748                	fld	fa0,168(a4)
    80004f34:	77b2                	ld	a5,296(sp)
    80004f36:	eef76607          	.4byte	0xeef76607
    80004f3a:	5324                	lw	s1,96(a4)
    80004f3c:	17e0                	addi	s0,sp,1004
    80004f3e:	2dd6                	fld	fs11,336(sp)
    80004f40:	d7ff                	.2byte	0xd7ff
    80004f42:	7a02                	ld	s4,32(sp)
    80004f44:	3950                	fld	fa2,176(a0)
    80004f46:	5376722b          	.4byte	0x5376722b
    80004f4a:	24e0                	fld	fs0,200(s1)
    80004f4c:	5557c007          	.4byte	0x5557c007
    80004f50:	31ca                	fld	ft3,176(sp)
    80004f52:	0281                	addi	t0,t0,0
    80004f54:	94ba                	add	s1,s1,a4
    80004f56:	41f6                	lw	gp,92(sp)
    80004f58:	2422                	fld	fs0,8(sp)
    80004f5a:	229c0663          	beq	s8,s1,80005186 <input_data+0x5be>
    80004f5e:	477c                	lw	a5,76(a4)
    80004f60:	0b0fe933          	.4byte	0xb0fe933
    80004f64:	6f793433          	.4byte	0x6f793433
    80004f68:	2cec                	fld	fa1,216(s1)
    80004f6a:	0c38                	addi	a4,sp,536
    80004f6c:	7909                	lui	s2,0xfffe2
    80004f6e:	6d55                	lui	s10,0x15
    80004f70:	cfc9                	beqz	a5,8000500a <input_data+0x442>
    80004f72:	9167388b          	.4byte	0x9167388b
    80004f76:	af6d3867          	.4byte	0xaf6d3867
    80004f7a:	4b3e                	lw	s6,204(sp)
    80004f7c:	1545                	addi	a0,a0,-15
    80004f7e:	07d5                	addi	a5,a5,21 # 7015 <buflen.0+0x6fd5>
    80004f80:	8f85                	sub	a5,a5,s1
    80004f82:	4eca                	lw	t4,144(sp)
    80004f84:	b0b9                	j	800047d2 <verify_data+0x1c0a>
    80004f86:	56f8                	lw	a4,108(a3)
    80004f88:	d0d4                	sw	a3,36(s1)
    80004f8a:	30f6                	fld	ft1,376(sp)
    80004f8c:	6a74                	ld	a3,208(a2)
    80004f8e:	32ce                	fld	ft5,240(sp)
    80004f90:	e3c1                	bnez	a5,80005010 <input_data+0x448>
    80004f92:	23fe                	fld	ft7,472(sp)
    80004f94:	ffb9                	bnez	a5,80004ef2 <input_data+0x32a>
    80004f96:	013a                	slli	sp,sp,0xe
    80004f98:	6796bc67          	.4byte	0x6796bc67
    80004f9c:	bdad                	j	80004e16 <input_data+0x24e>
    80004f9e:	0236                	slli	tp,tp,0xd
    80004fa0:	27d6                	fld	fa5,336(sp)
    80004fa2:	7c7d                	lui	s8,0xfffff
    80004fa4:	68b2                	ld	a7,264(sp)
    80004fa6:	24b915db          	.4byte	0x24b915db
    80004faa:	e0d668fb          	.4byte	0xe0d668fb
    80004fae:	f557254f          	.4byte	0xf557254f
    80004fb2:	cd5f2c2b          	.4byte	0xcd5f2c2b
    80004fb6:	30b8                	fld	fa4,96(s1)
    80004fb8:	6d68                	ld	a0,216(a0)
    80004fba:	39c6                	fld	fs3,112(sp)
    80004fbc:	44b079ab          	.4byte	0x44b079ab
    80004fc0:	2be4                	fld	fs1,208(a5)
    80004fc2:	41ae                	lw	gp,200(sp)
    80004fc4:	3abd                	addiw	s5,s5,-17 # ffffffffd9bbfdd3 <dram_end_address_reg+0xffffffff09bbfdc3>
    80004fc6:	678e17cf          	.4byte	0x678e17cf
    80004fca:	7bac                	ld	a1,112(a5)
    80004fcc:	76de                	ld	a3,496(sp)
    80004fce:	7582                	ld	a1,32(sp)
    80004fd0:	2c8f5cab          	.4byte	0x2c8f5cab
    80004fd4:	452947fb          	.4byte	0x452947fb
    80004fd8:	2ace                	fld	fs5,208(sp)
    80004fda:	679d                	lui	a5,0x7
    80004fdc:	7558                	ld	a4,168(a0)
    80004fde:	7df8                	ld	a4,248(a1)
    80004fe0:	3381                	addiw	t2,t2,-32
    80004fe2:	7111                	addi	sp,sp,-256
    80004fe4:	328d                	addiw	t0,t0,-29
    80004fe6:	34f371bb          	.4byte	0x34f371bb
    80004fea:	44e0                	lw	s0,76(s1)
    80004fec:	f79f 0704 1798      	.byte	0x9f, 0xf7, 0x04, 0x07, 0x98, 0x17
    80004ff2:	7948                	ld	a0,176(a0)
    80004ff4:	6961                	lui	s2,0x18
    80004ff6:	4e72                	lw	t3,28(sp)
    80004ff8:	9a45                	andi	a2,a2,-15
    80004ffa:	59d9                	li	s3,-10
    80004ffc:	79ea714f          	fnmadd.s	ft2,fs4,ft10,fa5
    80005000:	ddde                	sw	s7,248(sp)
    80005002:	2d9e                	fld	fs11,448(sp)
    80005004:	592a                	lw	s2,168(sp)
    80005006:	3d7d                	addiw	s10,s10,-1 # 14fff <buflen.0+0x14fbf>
    80005008:	b06d                	j	800048b2 <verify_data+0x1cea>
    8000500a:	48c5                	li	a7,17
    8000500c:	136948cb          	fnmsub.d	fa7,fs2,fs6,ft2,rmm
    80005010:	06f2                	slli	a3,a3,0x1c
    80005012:	723d                	lui	tp,0xfffef
    80005014:	6bd8                	ld	a4,144(a5)
    80005016:	00fa                	slli	ra,ra,0x1e
    80005018:	3e02                	fld	ft8,32(sp)
    8000501a:	02d4                	addi	a3,sp,324
    8000501c:	10ed                	addi	ra,ra,-5 # fffffffffffecffb <dram_end_address_reg+0xffffffff2ffecfeb>
    8000501e:	5241                	li	tp,-16
    80005020:	a2c4                	fsd	fs1,128(a3)
    80005022:	48c8                	lw	a0,20(s1)
    80005024:	4d28                	lw	a0,88(a0)
    80005026:	2afa                	fld	fs5,408(sp)
    80005028:	5552d8af          	.4byte	0x5552d8af
    8000502c:	5cf8                	lw	a4,124(s1)
    8000502e:	5d8c                	lw	a1,56(a1)
    80005030:	93c9                	srli	a5,a5,0x32
    80005032:	3634                	fld	fa3,104(a2)
    80005034:	0c30a657          	.4byte	0xc30a657
    80005038:	37a6bc03          	ld	s8,890(a3) # fffffffffffe437a <dram_end_address_reg+0xffffffff2ffe436a>
    8000503c:	5d52b08f          	.4byte	0x5d52b08f
    80005040:	145d8bd7          	.4byte	0x145d8bd7
    80005044:	a2f2                	fsd	ft8,320(sp)
    80005046:	02d623ef          	jal	t2,80067872 <_tbss_end+0x5ec2e>
    8000504a:	0051                	c.nop	20
    8000504c:	2dde                	fld	fs11,464(sp)
    8000504e:	32a2                	fld	ft5,40(sp)
    80005050:	0ac3bca3          	sd	a2,185(t2)
    80005054:	b0c8                	fsd	fa0,160(s1)
    80005056:	583d                	li	a6,-17
    80005058:	1fbccd53          	.4byte	0x1fbccd53
    8000505c:	74bac3d7          	.4byte	0x74bac3d7
    80005060:	d5d4                	sw	a3,44(a1)
    80005062:	0654                	addi	a3,sp,772
    80005064:	0d01                	addi	s10,s10,0
    80005066:	3d1a                	fld	fs10,416(sp)
    80005068:	7da5                	lui	s11,0xfffe9
    8000506a:	37c5                	addiw	a5,a5,-15 # 6ff1 <buflen.0+0x6fb1>
    8000506c:	686ebe97          	auipc	t4,0x686eb
    80005070:	8ac2                	mv	s5,a6
    80005072:	6599                	lui	a1,0x6
    80005074:	d049                	beqz	s0,80004ff6 <input_data+0x42e>
    80005076:	d5415d7b          	.4byte	0xd5415d7b
    8000507a:	bbe76f5b          	.4byte	0xbbe76f5b
    8000507e:	21f8                	fld	fa4,192(a1)
    80005080:	79d1                	lui	s3,0xffff4
    80005082:	4c253e53          	.4byte	0x4c253e53
    80005086:	1060                	addi	s0,sp,44
    80005088:	5cce                	lw	s9,240(sp)
    8000508a:	25de3513          	sltiu	a0,t3,605
    8000508e:	1e45                	addi	t3,t3,-15 # fffffffffffefff1 <dram_end_address_reg+0xffffffff2ffeffe1>
    80005090:	ef64                	sd	s1,216(a4)
    80005092:	ab662f4b          	fnmsub.d	ft10,fa2,fs6,fs5,rdn
    80005096:	1b78                	addi	a4,sp,444
    80005098:	20ae                	fld	ft1,200(sp)
    8000509a:	464e                	lw	a2,208(sp)
    8000509c:	172d75a3          	.4byte	0x172d75a3
    800050a0:	9e80                	.2byte	0x9e80
    800050a2:	4261                	li	tp,24
    800050a4:	00d3e7bb          	.4byte	0xd3e7bb
    800050a8:	6c2a                	ld	s8,136(sp)
    800050aa:	a05071d3          	.4byte	0xa05071d3
    800050ae:	4085                	li	ra,1
    800050b0:	08ff                	.2byte	0x8ff
    800050b2:	465f576b          	.4byte	0x465f576b
    800050b6:	4c61                	li	s8,24
    800050b8:	cd3e                	sw	a5,152(sp)
    800050ba:	247e                	fld	fs0,472(sp)
    800050bc:	2ff2                	fld	ft11,280(sp)
    800050be:	1640                	addi	s0,sp,804
    800050c0:	f16e                	sd	s11,160(sp)
    800050c2:	21e4                	fld	fs1,192(a1)
    800050c4:	5278adf3          	csrrs	s11,0x527,a7
    800050c8:	4afd                	li	s5,31
    800050ca:	3fff                	.2byte	0x3fff
    800050cc:	aaad                	j	80005246 <input_data+0x67e>
    800050ce:	d0832c73          	csrrs	s8,0xd08,t1
    800050d2:	4768253f 58a24cd9 	.8byte	0x58a24cd94768253f
    800050da:	09fd72f3          	csrrci	t0,0x9f,26
    800050de:	08d4                	addi	a3,sp,84
    800050e0:	e83e                	sd	a5,16(sp)
    800050e2:	1b94                	addi	a3,sp,496
    800050e4:	6ce3fc13          	andi	s8,t2,1742
    800050e8:	af35                	j	80005824 <input_data+0xc5c>
    800050ea:	5dac                	lw	a1,120(a1)
    800050ec:	2416                	fld	fs0,320(sp)
    800050ee:	545d                	li	s0,-9
    800050f0:	2e9a                	fld	ft9,384(sp)
    800050f2:	82e3583b          	.4byte	0x82e3583b
    800050f6:	4f5e                	lw	t5,212(sp)
    800050f8:	202fd7d7          	.4byte	0x202fd7d7
    800050fc:	096e                	slli	s2,s2,0x1b
    800050fe:	e9f00f97          	auipc	t6,0xe9f00
    80005102:	64bd                	lui	s1,0xf
    80005104:	10e4ceaf          	.4byte	0x10e4ceaf
    80005108:	d0aa                	sw	a0,96(sp)
    8000510a:	4735                	li	a4,13
    8000510c:	7850                	ld	a2,176(s0)
    8000510e:	78e96a2b          	.4byte	0x78e96a2b
    80005112:	26ba                	fld	fa3,392(sp)
    80005114:	5579cfa7          	.4byte	0x5579cfa7
    80005118:	d65f 43b2 a8b1      	.byte	0x5f, 0xd6, 0xb2, 0x43, 0xb1, 0xa8
    8000511e:	601e3793          	sltiu	a5,t3,1537
    80005122:	45c8                	lw	a0,12(a1)
    80005124:	99ec                	.2byte	0x99ec
    80005126:	3e85                	addiw	t4,t4,-31 # ffffffffe86f004d <dram_end_address_reg+0xffffffff186f003d>
    80005128:	fc5d                	bnez	s0,800050e6 <input_data+0x51e>
    8000512a:	d200294b          	fnmsub.d	fs2,ft0,ft0,fs10,rdn
    8000512e:	574d6097          	auipc	ra,0x574d6
    80005132:	7966                	ld	s2,120(sp)
    80005134:	233d                	addiw	t1,t1,15 # 1700f <buflen.0+0x16fcf>
    80005136:	101e                	c.slli	zero,0x27
    80005138:	24d5dd8b          	.4byte	0x24d5dd8b
    8000513c:	ed35                	bnez	a0,800051b8 <input_data+0x5f0>
    8000513e:	504d                	c.li	zero,-13
    80005140:	b03a                	fsd	fa4,32(sp)
    80005142:	6998                	ld	a4,16(a1)
    80005144:	01d8e9c7          	fmsub.s	fs3,fa7,ft9,ft0,unknown
    80005148:	4fba                	lw	t6,140(sp)
    8000514a:	2711                	addiw	a4,a4,4 # ffffffffffff8004 <dram_end_address_reg+0xffffffff2fff7ff4>
    8000514c:	54ee                	lw	s1,248(sp)
    8000514e:	1121015b          	.4byte	0x1121015b
    80005152:	6511                	lui	a0,0x4
    80005154:	f61d                	bnez	a2,80005082 <input_data+0x4ba>
    80005156:	33b6                	fld	ft7,360(sp)
    80005158:	a3b2                	fsd	fa2,448(sp)
    8000515a:	5dff                	.2byte	0x5dff
    8000515c:	05ac                	addi	a1,sp,712
    8000515e:	0d95                	addi	s11,s11,5 # fffffffffffe9005 <dram_end_address_reg+0xffffffff2ffe8ff5>
    80005160:	7afd1cd3          	.4byte	0x7afd1cd3
    80005164:	ca46                	sw	a7,20(sp)
    80005166:	5a21                	li	s4,-24
    80005168:	9bd8                	.2byte	0x9bd8
    8000516a:	2ef6                	fld	ft9,344(sp)
    8000516c:	6041                	c.lui	zero,0x10
    8000516e:	68d4                	ld	a3,144(s1)
    80005170:	4274                	lw	a3,68(a2)
    80005172:	5c99                	li	s9,-26
    80005174:	7b86eff3          	csrrsi	t6,0x7b8,13
    80005178:	e378                	sd	a4,192(a4)
    8000517a:	25b4                	fld	fa3,72(a1)
    8000517c:	34127047          	.4byte	0x34127047
    80005180:	8ed0                	.2byte	0x8ed0
    80005182:	7cfe                	ld	s9,504(sp)
    80005184:	7008f7cb          	fnmsub.s	fa5,fa7,ft0,fa4
    80005188:	70b5                	lui	ra,0xfffed
    8000518a:	53ba                	lw	t2,172(sp)
    8000518c:	6db9d8c7          	.4byte	0x6db9d8c7
    80005190:	f955                	bnez	a0,80005144 <input_data+0x57c>
    80005192:	5ff5                	li	t6,-3
    80005194:	dbe0                	sw	s0,116(a5)
    80005196:	db0a0b17          	auipc	s6,0xdb0a0
    8000519a:	0bb4                	addi	a3,sp,472
    8000519c:	a8fc                	fsd	fa5,208(s1)
    8000519e:	46b207bf d7423089 	.8byte	0xd742308946b207bf
    800051a6:	507c54af          	.4byte	0x507c54af
    800051aa:	0d86                	slli	s11,s11,0x1
    800051ac:	7b2e                	ld	s6,232(sp)
    800051ae:	5595                	li	a1,-27
    800051b0:	3b0a                	fld	fs6,160(sp)
    800051b2:	0d31                	addi	s10,s10,12
    800051b4:	e4b2                	sd	a2,72(sp)
    800051b6:	139c                	addi	a5,sp,480
    800051b8:	735e                	ld	t1,496(sp)
    800051ba:	30ee                	fld	ft1,248(sp)
    800051bc:	0f8b5fbf 538275d3 	.8byte	0x538275d30f8b5fbf
    800051c4:	366e                	fld	fa2,248(sp)
    800051c6:	0c92                	slli	s9,s9,0x4
    800051c8:	0ac0                	addi	s0,sp,340
    800051ca:	364469c7          	.4byte	0x364469c7
    800051ce:	34de                	fld	fs1,496(sp)
    800051d0:	f150                	sd	a2,160(a0)
    800051d2:	6bb5                	lui	s7,0xd
    800051d4:	1e48192b          	.4byte	0x1e48192b
    800051d8:	0f76                	slli	t5,t5,0x1d
    800051da:	36cb2dbb          	.4byte	0x36cb2dbb
    800051de:	bfaa0197          	auipc	gp,0xbfaa0
    800051e2:	12ff                	.2byte	0x12ff
    800051e4:	d420                	sw	s0,104(s0)
    800051e6:	3fc03647          	.4byte	0x3fc03647
    800051ea:	06fd                	addi	a3,a3,31
    800051ec:	8d3a                	mv	s10,a4
    800051ee:	3fa67bab          	.4byte	0x3fa67bab
    800051f2:	11f6                	slli	gp,gp,0x3d
    800051f4:	1bb4383f 7a6c039a 	.8byte	0x7a6c039a1bb4383f
    800051fc:	08d9                	addi	a7,a7,22
    800051fe:	a3054f97          	auipc	t6,0xa3054
    80005202:	2bf5                	addiw	s7,s7,29 # d01d <buflen.0+0xcfdd>
    80005204:	b07f                	.2byte	0xb07f
    80005206:	2e56                	fld	ft8,336(sp)
    80005208:	44630ba3          	sb	t1,1111(t1)
    8000520c:	01e6                	slli	gp,gp,0x19
    8000520e:	407d761b          	.4byte	0x407d761b
    80005212:	c554610f          	.4byte	0xc554610f
    80005216:	b4a35ba3          	.4byte	0xb4a35ba3
    8000521a:	b76642d7          	.4byte	0xb76642d7
    8000521e:	52fa                	lw	t0,188(sp)
    80005220:	6b51cb4f          	fnmadd.d	fs6,ft3,fs5,fa3,rmm
    80005224:	2540                	fld	fs0,136(a0)
    80005226:	d9bb2667          	.4byte	0xd9bb2667
    8000522a:	86fc4be3          	blt	s8,a5,80004aa0 <verify_data+0x1ed8>
    8000522e:	71a0                	ld	s0,96(a1)
    80005230:	2a85                	addiw	s5,s5,1
    80005232:	648301af          	.4byte	0x648301af
    80005236:	5776                	lw	a4,124(sp)
    80005238:	5f2d                	li	t5,-21
    8000523a:	80f21633          	.4byte	0x80f21633
    8000523e:	49ca04ab          	.4byte	0x49ca04ab
    80005242:	0816                	slli	a6,a6,0x5
    80005244:	c5ee                	sw	s11,200(sp)
    80005246:	3f4a                	fld	ft10,176(sp)
    80005248:	5fc4                	lw	s1,60(a5)
    8000524a:	fa540f83          	lb	t6,-91(s0)
    8000524e:	469a                	lw	a3,132(sp)
    80005250:	dde6                	sw	s9,248(sp)
    80005252:	1122                	slli	sp,sp,0x28
    80005254:	7ed5                	lui	t4,0xffff5
    80005256:	44d5                	li	s1,21
    80005258:	86e0                	.2byte	0x86e0
    8000525a:	6126                	ld	sp,72(sp)
    8000525c:	7c45df3b          	.4byte	0x7c45df3b
    80005260:	b6d4                	fsd	fa3,168(a3)
    80005262:	2faa                	fld	ft11,136(sp)
    80005264:	52670823          	sb	t1,1328(a4)
    80005268:	c122                	sw	s0,128(sp)
    8000526a:	79f0                	ld	a2,240(a1)
    8000526c:	37a5a727          	fsw	fs10,878(a1) # 636e <buflen.0+0x632e>
    80005270:	d981                	beqz	a1,80005180 <input_data+0x5b8>
    80005272:	2e88050f          	.4byte	0x2e88050f
    80005276:	3539                	addiw	a0,a0,-18 # 3fee <buflen.0+0x3fae>
    80005278:	0db2                	slli	s11,s11,0xc
    8000527a:	10a5                	addi	ra,ra,-23 # fffffffffffecfe9 <dram_end_address_reg+0xffffffff2ffecfd9>
    8000527c:	ed86                	sd	ra,216(sp)
    8000527e:	26d8                	fld	fa4,136(a3)
    80005280:	3b24                	fld	fs1,112(a4)
    80005282:	0e38                	addi	a4,sp,792
    80005284:	b3cd                	j	80005066 <input_data+0x49e>
    80005286:	3834                	fld	fa3,112(s0)
    80005288:	da28                	sw	a0,112(a2)
    8000528a:	6ca2                	ld	s9,8(sp)
    8000528c:	d051                	beqz	s0,80005210 <input_data+0x648>
    8000528e:	98346e3f 734737ff 	.8byte	0x734737ff98346e3f
    80005296:	1a06                	slli	s4,s4,0x21
    80005298:	f31d                	bnez	a4,800051be <input_data+0x5f6>
    8000529a:	20bc                	fld	fa5,64(s1)
    8000529c:	56d6                	lw	a3,116(sp)
    8000529e:	3d54                	fld	fa3,184(a0)
    800052a0:	810a                	mv	sp,sp
    800052a2:	2285                	addiw	t0,t0,1
    800052a4:	1b69                	addi	s6,s6,-6 # 5b0a5190 <buflen.0+0x5b0a5150>
    800052a6:	7ea5                	lui	t4,0xfffe9
    800052a8:	b34e                	fsd	fs3,416(sp)
    800052aa:	347a                	fld	fs0,440(sp)
    800052ac:	4290                	lw	a2,0(a3)
    800052ae:	56155683          	lhu	a3,1377(a0)
    800052b2:	5081                	li	ra,-32
    800052b4:	ae74                	fsd	fa3,216(a2)
    800052b6:	bb695c27          	.4byte	0xbb695c27
    800052ba:	3324                	fld	fs1,96(a4)
    800052bc:	cc31                	beqz	s0,80005318 <input_data+0x750>
    800052be:	7eed                	lui	t4,0xffffb
    800052c0:	8db4                	.2byte	0x8db4
    800052c2:	1c4b4667          	.4byte	0x1c4b4667
    800052c6:	2b5e                	fld	fs6,464(sp)
    800052c8:	1c78                	addi	a4,sp,572
    800052ca:	6089                	lui	ra,0x2
    800052cc:	39c2eec3          	fmadd.s	ft9,ft5,ft8,ft7,unknown
    800052d0:	48473db3          	.4byte	0x48473db3
    800052d4:	6762                	ld	a4,24(sp)
    800052d6:	5120                	lw	s0,96(a0)
    800052d8:	15f77ee7          	.4byte	0x15f77ee7
    800052dc:	13e702e3          	beq	a4,t5,80005c00 <input_data+0x1038>
    800052e0:	8266                	mv	tp,s9
    800052e2:	027c                	addi	a5,sp,268
    800052e4:	e6d4                	sd	a3,136(a3)
    800052e6:	52dd                	li	t0,-9
    800052e8:	5d347033          	.4byte	0x5d347033
    800052ec:	3a0a8c2b          	.4byte	0x3a0a8c2b
    800052f0:	4043fd5b          	.4byte	0x4043fd5b
    800052f4:	36bd5793          	.4byte	0x36bd5793
    800052f8:	a131                	j	80005704 <input_data+0xb3c>
    800052fa:	3ab263ab          	.4byte	0x3ab263ab
    800052fe:	413d                	li	sp,15
    80005300:	058545bf 7eb78eb9 	.8byte	0x7eb78eb9058545bf
    80005308:	7ef8                	ld	a4,248(a3)
    8000530a:	42ad609b          	.4byte	0x42ad609b
    8000530e:	3698                	fld	fa4,40(a3)
    80005310:	0a6dc44f          	fnmadd.d	fs0,fs11,ft6,ft1,rmm
    80005314:	befe                	fsd	ft11,376(sp)
    80005316:	01a1                	addi	gp,gp,8 # 3faa51e6 <buflen.0+0x3faa51a6>
    80005318:	306d                	.2byte	0x306d
    8000531a:	19f1                	addi	s3,s3,-4 # ffffffffffff3ffc <dram_end_address_reg+0xffffffff2fff3fec>
    8000531c:	4c2e                	lw	s8,200(sp)
    8000531e:	14f73deb          	.4byte	0x14f73deb
    80005322:	63436d53          	.4byte	0x63436d53
    80005326:	1239                	addi	tp,tp,-18 # fffffffffffeefee <dram_end_address_reg+0xffffffff2ffeefde>
    80005328:	a26a                	fsd	fs10,256(sp)
    8000532a:	13b2                	slli	t2,t2,0x2c
    8000532c:	5d0d                	li	s10,-29
    8000532e:	2b89                	addiw	s7,s7,2
    80005330:	a80d                	j	80005362 <input_data+0x79a>
    80005332:	004b616b          	.4byte	0x4b616b
    80005336:	ec893213          	sltiu	tp,s2,-312
    8000533a:	2dc4                	fld	fs1,152(a1)
    8000533c:	3ee4                	fld	fs1,248(a3)
    8000533e:	fd240687          	.4byte	0xfd240687
    80005342:	78dd                	lui	a7,0xffff7
    80005344:	0f89                	addi	t6,t6,2 # 23059200 <buflen.0+0x230591c0>
    80005346:	15ee                	slli	a1,a1,0x3b
    80005348:	f891                	bnez	s1,8000525c <input_data+0x694>
    8000534a:	03337637          	lui	a2,0x3337
    8000534e:	718f4d13          	xori	s10,t5,1816
    80005352:	2a12                	fld	fs4,256(sp)
    80005354:	8514                	.2byte	0x8514
    80005356:	f67d0d83          	lb	s11,-153(s10)
    8000535a:	3fa4                	fld	fs1,120(a5)
    8000535c:	67a4                	ld	s1,72(a5)
    8000535e:	7c24                	ld	s1,120(s0)
    80005360:	38b93c73          	csrrc	s8,0x38b,s2
    80005364:	0f8982b7          	lui	t0,0xf898
    80005368:	c726                	sw	s1,140(sp)
    8000536a:	fc69423b          	.4byte	0xfc69423b
    8000536e:	d28770bf ea255235 	.8byte	0xea255235d28770bf
    80005376:	0a7d                	addi	s4,s4,31
    80005378:	278e                	fld	fa5,192(sp)
    8000537a:	2374                	fld	fa3,192(a4)
    8000537c:	0ec2                	slli	t4,t4,0x10
    8000537e:	8b6a6f83          	lwu	t6,-1866(s4)
    80005382:	64ba                	ld	s1,392(sp)
    80005384:	a049                	j	80005406 <input_data+0x83e>
    80005386:	4cf2                	lw	s9,28(sp)
    80005388:	06c9                	addi	a3,a3,18
    8000538a:	0e9a                	slli	t4,t4,0x6
    8000538c:	4d4c799b          	.4byte	0x4d4c799b
    80005390:	02a0                	addi	s0,sp,328
    80005392:	73bb6bf3          	csrrsi	s7,0x73b,22
    80005396:	6fb1                	lui	t6,0xc
    80005398:	1086                	slli	ra,ra,0x21
    8000539a:	7439                	lui	s0,0xfffee
    8000539c:	9e52                	add	t3,t3,s4
    8000539e:	71b6                	ld	gp,360(sp)
    800053a0:	23494e2b          	.4byte	0x23494e2b
    800053a4:	b850                	fsd	fa2,176(s0)
    800053a6:	4e3a                	lw	t3,140(sp)
    800053a8:	1641                	addi	a2,a2,-16 # 3336ff0 <buflen.0+0x3336fb0>
    800053aa:	1e62                	slli	t3,t3,0x38
    800053ac:	e796                	sd	t0,456(sp)
    800053ae:	33d8                	fld	fa4,160(a5)
    800053b0:	c4c2                	sw	a6,72(sp)
    800053b2:	0439                	addi	s0,s0,14 # fffffffffffee00e <dram_end_address_reg+0xffffffff2ffedffe>
    800053b4:	c9c9                	beqz	a1,80005446 <input_data+0x87e>
    800053b6:	1e00                	addi	s0,sp,816
    800053b8:	a0ff                	.2byte	0xa0ff
    800053ba:	6485                	lui	s1,0x1
    800053bc:	5f8b586b          	.4byte	0x5f8b586b
    800053c0:	adb0                	fsd	fa2,88(a1)
    800053c2:	486a                	lw	a6,152(sp)
    800053c4:	4373c7ab          	.4byte	0x4373c7ab
    800053c8:	95c4                	.2byte	0x95c4
    800053ca:	2dc9                	addiw	s11,s11,18
    800053cc:	c94a                	sw	s2,144(sp)
    800053ce:	234c                	fld	fa1,128(a4)
    800053d0:	d44c                	sw	a1,44(s0)
    800053d2:	66f8                	ld	a4,200(a3)
    800053d4:	3893fc2f          	.4byte	0x3893fc2f
    800053d8:	68f47697          	auipc	a3,0x68f47
    800053dc:	9565                	srai	a0,a0,0x39
    800053de:	1d14                	addi	a3,sp,688
    800053e0:	9910                	.2byte	0x9910
    800053e2:	804f603f 6a306076 	.8byte	0x6a306076804f603f
    800053ea:	9a0723e7          	.4byte	0x9a0723e7
    800053ee:	78e2                	ld	a7,56(sp)
    800053f0:	ba5a                	fsd	fs6,304(sp)
    800053f2:	0af2                	slli	s5,s5,0x1c
    800053f4:	cf00                	sw	s0,24(a4)
    800053f6:	5d0e                	lw	s10,224(sp)
    800053f8:	3ac8d43b          	.4byte	0x3ac8d43b
    800053fc:	8a1a                	mv	s4,t1
    800053fe:	5aec                	lw	a1,116(a3)
    80005400:	3a49aebb          	.4byte	0x3a49aebb
    80005404:	1980                	addi	s0,sp,240
    80005406:	19c9                	addi	s3,s3,-14
    80005408:	5b13e84b          	fnmsub.d	fa6,ft7,fa7,fa1,unknown
    8000540c:	06f5b7c3          	.4byte	0x6f5b7c3
    80005410:	0afe                	slli	s5,s5,0x1f
    80005412:	3ae0                	fld	fs0,240(a3)
    80005414:	4ec4                	lw	s1,28(a3)
    80005416:	612c                	ld	a1,64(a0)
    80005418:	415f 055e 9628      	.byte	0x5f, 0x41, 0x5e, 0x05, 0x28, 0x96
    8000541e:	06ce                	slli	a3,a3,0x13
    80005420:	0db8                	addi	a4,sp,728
    80005422:	206c                	fld	fa1,192(s0)
    80005424:	e815                	bnez	s0,80005458 <input_data+0x890>
    80005426:	280932f7          	.4byte	0x280932f7
    8000542a:	5552306b          	.4byte	0x5552306b
    8000542e:	0a87054b          	fnmsub.d	fa0,fa4,fs0,ft1,rne
    80005432:	4124                	lw	s1,64(a0)
    80005434:	acb4                	fsd	fa3,88(s1)
    80005436:	1220                	addi	s0,sp,296
    80005438:	d140                	sw	s0,36(a0)
    8000543a:	59b4                	lw	a3,112(a1)
    8000543c:	1a2c                	addi	a1,sp,312
    8000543e:	3555                	addiw	a0,a0,-11
    80005440:	6e3d0eeb          	.4byte	0x6e3d0eeb
    80005444:	beb6                	fsd	fa3,376(sp)
    80005446:	5fd0                	lw	a2,60(a5)
    80005448:	7fc4                	ld	s1,184(a5)
    8000544a:	3d8e                	fld	fs11,224(sp)
    8000544c:	1c2f74ab          	.4byte	0x1c2f74ab
    80005450:	babe                	fsd	fa5,368(sp)
    80005452:	5ef8                	lw	a4,124(a3)
    80005454:	3d4262f7          	.4byte	0x3d4262f7
    80005458:	1229                	addi	tp,tp,-22 # ffffffffffffffea <dram_end_address_reg+0xffffffff2fffffda>
    8000545a:	d6074007          	.4byte	0xd6074007
    8000545e:	e65262c3          	.4byte	0xe65262c3
    80005462:	5add                	li	s5,-9
    80005464:	1621                	addi	a2,a2,-24
    80005466:	1712                	slli	a4,a4,0x24
    80005468:	06622783          	lw	a5,102(tp) # 66 <buflen.0+0x26>
    8000546c:	e928                	sd	a0,80(a0)
    8000546e:	3dde                	fld	fs11,496(sp)
    80005470:	5026                	.2byte	0x5026
    80005472:	a0ea2f97          	auipc	t6,0xa0ea2
    80005476:	a4ac589b          	.4byte	0xa4ac589b
    8000547a:	6ff6                	ld	t6,344(sp)
    8000547c:	cf1d                	beqz	a4,800054ba <input_data+0x8f2>
    8000547e:	2c445ce7          	.4byte	0x2c445ce7
    80005482:	792d                	lui	s2,0xfffeb
    80005484:	fd61                	bnez	a0,8000545c <input_data+0x894>
    80005486:	163e                	slli	a2,a2,0x2f
    80005488:	0434                	addi	a3,sp,520
    8000548a:	7f24                	ld	s1,120(a4)
    8000548c:	61c6                	ld	gp,80(sp)
    8000548e:	0f3a17d7          	.4byte	0xf3a17d7
    80005492:	4382                	lw	t2,0(sp)
    80005494:	ff5d                	bnez	a4,80005452 <input_data+0x88a>
    80005496:	7524                	ld	s1,104(a0)
    80005498:	5c7c7ae7          	.4byte	0x5c7c7ae7
    8000549c:	be92                	fsd	ft4,376(sp)
    8000549e:	0035                	c.nop	13
    800054a0:	37c94eb3          	.4byte	0x37c94eb3
    800054a4:	d215                	beqz	a2,800053c8 <input_data+0x800>
    800054a6:	7b68                	ld	a0,240(a4)
    800054a8:	9af5                	andi	a3,a3,-3
    800054aa:	1dd8                	addi	a4,sp,756
    800054ac:	7b61                	lui	s6,0xffff8
    800054ae:	1fc6                	slli	t6,t6,0x31
    800054b0:	91b1                	srli	a1,a1,0x2c
    800054b2:	3fb4                	fld	fa3,120(a5)
    800054b4:	7cce                	ld	s9,240(sp)
    800054b6:	3b8a                	fld	fs7,160(sp)
    800054b8:	5969bfbf 2e70078a 	.8byte	0x2e70078a5969bfbf
    800054c0:	ea69                	bnez	a2,80005592 <input_data+0x9ca>
    800054c2:	c0af03f7          	.4byte	0xc0af03f7
    800054c6:	42df 2c45 2cab      	.byte	0xdf, 0x42, 0x45, 0x2c, 0xab, 0x2c
    800054cc:	daf9                	beqz	a3,800054a2 <input_data+0x8da>
    800054ce:	1df0                	addi	a2,sp,764
    800054d0:	201f73bb          	.4byte	0x201f73bb
    800054d4:	c1b1                	beqz	a1,80005518 <input_data+0x950>
    800054d6:	66270f7b          	.4byte	0x66270f7b
    800054da:	2ce6                	fld	fs9,88(sp)
    800054dc:	3571                	addiw	a0,a0,-4
    800054de:	053d                	addi	a0,a0,15
    800054e0:	0c4c                	addi	a1,sp,532
    800054e2:	0cb12027          	fsw	fa1,192(sp)
    800054e6:	f75463db          	.4byte	0xf75463db
    800054ea:	497d                	li	s2,31
    800054ec:	4ff0                	lw	a2,92(a5)
    800054ee:	190a                	slli	s2,s2,0x22
    800054f0:	6941                	lui	s2,0x10
    800054f2:	6474                	ld	a3,200(s0)
    800054f4:	14a8aca7          	fsw	fa0,345(a7) # ffffffffffff7159 <dram_end_address_reg+0xffffffff2fff7149>
    800054f8:	5ffa6057          	.4byte	0x5ffa6057
    800054fc:	0230                	addi	a2,sp,264
    800054fe:	5f38                	lw	a4,120(a4)
    80005500:	405d5a9b          	sraiw	s5,s10,0x5
    80005504:	20f1                	addiw	ra,ra,28 # 201c <buflen.0+0x1fdc>
    80005506:	384a                	fld	fa6,176(sp)
    80005508:	a53a                	fsd	fa4,136(sp)
    8000550a:	fe496987          	.4byte	0xfe496987
    8000550e:	bb2a2d97          	auipc	s11,0xbb2a2
    80005512:	26c969e7          	.4byte	0x26c969e7
    80005516:	7f1633ab          	.4byte	0x7f1633ab
    8000551a:	15ce                	slli	a1,a1,0x33
    8000551c:	e474                	sd	a3,200(s0)
    8000551e:	1221                	addi	tp,tp,-24 # ffffffffffffffe8 <dram_end_address_reg+0xffffffff2fffffd8>
    80005520:	2630                	fld	fa2,72(a2)
    80005522:	148e                	slli	s1,s1,0x23
    80005524:	67d5                	lui	a5,0x15
    80005526:	511f dc38 567a      	.byte	0x1f, 0x51, 0x38, 0xdc, 0x7a, 0x56
    8000552c:	90ea                	add	ra,ra,s10
    8000552e:	2515                	addiw	a0,a0,5
    80005530:	042c2c93          	slti	s9,s8,66
    80005534:	3fdd                	addiw	t6,t6,-9 # 20ea7469 <buflen.0+0x20ea7429>
    80005536:	f8f2643f 25ea19f1 	.8byte	0x25ea19f1f8f2643f
    8000553e:	2901                	sext.w	s2,s2
    80005540:	63be                	ld	t2,456(sp)
    80005542:	1266                	slli	tp,tp,0x39
    80005544:	eb98                	sd	a4,16(a5)
    80005546:	5185                	li	gp,-31
    80005548:	6d54fafb          	.4byte	0x6d54fafb
    8000554c:	73da                	ld	t2,432(sp)
    8000554e:	0f36                	slli	t5,t5,0xd
    80005550:	4814                	lw	a3,16(s0)
    80005552:	0b8e                	slli	s7,s7,0x3
    80005554:	929f 6d4a 9983      	.byte	0x9f, 0x92, 0x4a, 0x6d, 0x83, 0x99
    8000555a:	3291                	addiw	t0,t0,-28 # f897fe4 <buflen.0+0xf897fa4>
    8000555c:	8185                	srli	a1,a1,0x1
    8000555e:	8d110913          	addi	s2,sp,-1839
    80005562:	be830dc7          	.4byte	0xbe830dc7
    80005566:	6892                	ld	a7,256(sp)
    80005568:	6d90fbd7          	.4byte	0x6d90fbd7
    8000556c:	31bc1683          	lh	a3,795(s8) # fffffffffffff31b <dram_end_address_reg+0xffffffff2ffff30b>
    80005570:	1500                	addi	s0,sp,672
    80005572:	0db4                	addi	a3,sp,728
    80005574:	f0f9                	bnez	s1,8000553a <input_data+0x972>
    80005576:	98ae7a53          	.4byte	0x98ae7a53
    8000557a:	142d                	addi	s0,s0,-21
    8000557c:	49b6                	lw	s3,76(sp)
    8000557e:	049e                	slli	s1,s1,0x7
    80005580:	00c56a53          	fadd.s	fs4,fa0,fa2,unknown
    80005584:	2b34                	fld	fa3,80(a4)
    80005586:	800e0223          	sb	zero,-2044(t3)
    8000558a:	35f0621b          	.4byte	0x35f0621b
    8000558e:	597a                	lw	s2,188(sp)
    80005590:	34a2                	fld	fs1,40(sp)
    80005592:	1a26                	slli	s4,s4,0x29
    80005594:	592c584b          	fnmsub.s	fa6,fs8,fs2,fa1,unknown
    80005598:	19de                	slli	s3,s3,0x37
    8000559a:	16b218fb          	.4byte	0x16b218fb
    8000559e:	56c5                	li	a3,-15
    800055a0:	c342                	sw	a6,132(sp)
    800055a2:	acda499b          	.4byte	0xacda499b
    800055a6:	4cb8                	lw	a4,88(s1)
    800055a8:	0309                	addi	t1,t1,2
    800055aa:	1c05                	addi	s8,s8,-31
    800055ac:	71422f0f          	.4byte	0x71422f0f
    800055b0:	6781                	.2byte	0x6781
    800055b2:	2da44367          	.4byte	0x2da44367
    800055b6:	69aa                	ld	s3,136(sp)
    800055b8:	16be534b          	.4byte	0x16be534b
    800055bc:	5faffcaf          	.4byte	0x5faffcaf
    800055c0:	f87d                	bnez	s0,800055b6 <input_data+0x9ee>
    800055c2:	1eb0                	addi	a2,sp,888
    800055c4:	af76                	fsd	ft9,408(sp)
    800055c6:	359a3b43          	.4byte	0x359a3b43
    800055ca:	58f0598f          	.4byte	0x58f0598f
    800055ce:	418e                	lw	gp,192(sp)
    800055d0:	7a9e                	ld	s5,480(sp)
    800055d2:	60ff                	.2byte	0x60ff
    800055d4:	4477c207          	.4byte	0x4477c207
    800055d8:	5d34                	lw	a3,120(a0)
    800055da:	5a8a                	lw	s5,160(sp)
    800055dc:	386a4a27          	.4byte	0x386a4a27
    800055e0:	065a84b7          	lui	s1,0x65a8
    800055e4:	181a                	slli	a6,a6,0x26
    800055e6:	36ee                	fld	fa3,248(sp)
    800055e8:	8142                	mv	sp,a6
    800055ea:	0ad2                	slli	s5,s5,0x14
    800055ec:	6704                	ld	s1,8(a4)
    800055ee:	5de6                	lw	s11,120(sp)
    800055f0:	667e9cb3          	.4byte	0x667e9cb3
    800055f4:	5d161ea7          	.4byte	0x5d161ea7
    800055f8:	a925                	j	80005a30 <input_data+0xe68>
    800055fa:	ce147273          	csrrci	tp,0xce1,8
    800055fe:	5a02                	lw	s4,32(sp)
    80005600:	65ff                	.2byte	0x65ff
    80005602:	41b8                	lw	a4,64(a1)
    80005604:	952d                	srai	a0,a0,0x2b
    80005606:	4616                	lw	a2,68(sp)
    80005608:	b366                	fsd	fs9,416(sp)
    8000560a:	2fd8                	fld	fa4,152(a5)
    8000560c:	d360                	sw	s0,100(a4)
    8000560e:	0b15                	addi	s6,s6,5 # ffffffffffff8005 <dram_end_address_reg+0xffffffff2fff7ff5>
    80005610:	1b75                	addi	s6,s6,-3
    80005612:	3f1e                	fld	ft10,480(sp)
    80005614:	192a                	slli	s2,s2,0x2a
    80005616:	6655                	lui	a2,0x15
    80005618:	2134                	fld	fa3,64(a0)
    8000561a:	01e2                	slli	gp,gp,0x18
    8000561c:	a632                	fsd	fa2,264(sp)
    8000561e:	1b96                	slli	s7,s7,0x25
    80005620:	6eff                	.2byte	0x6eff
    80005622:	4f9c                	lw	a5,24(a5)
    80005624:	b6a6                	fsd	fs1,360(sp)
    80005626:	02cd                	addi	t0,t0,19
    80005628:	d099                	beqz	s1,8000552e <input_data+0x966>
    8000562a:	0aa9                	addi	s5,s5,10
    8000562c:	50f6                	lw	ra,124(sp)
    8000562e:	536d                	li	t1,-5
    80005630:	88d1                	andi	s1,s1,20
    80005632:	afe90d43          	.4byte	0xafe90d43
    80005636:	07a1                	addi	a5,a5,8 # 15008 <buflen.0+0x14fc8>
    80005638:	ef3e                	sd	a5,408(sp)
    8000563a:	953f65cf          	.4byte	0x953f65cf
    8000563e:	803b370f          	.4byte	0x803b370f
    80005642:	7612                	ld	a2,288(sp)
    80005644:	ce4c                	sw	a1,28(a2)
    80005646:	5445                	li	s0,-15
    80005648:	52680fd7          	.4byte	0x52680fd7
    8000564c:	45e2                	lw	a1,24(sp)
    8000564e:	0c68                	addi	a0,sp,540
    80005650:	482e                	lw	a6,200(sp)
    80005652:	ae2c70cb          	.4byte	0xae2c70cb
    80005656:	ec2c7cab          	.4byte	0xec2c7cab
    8000565a:	6ae1                	lui	s5,0x18
    8000565c:	e13c                	sd	a5,64(a0)
    8000565e:	547e                	lw	s0,252(sp)
    80005660:	a950                	fsd	fa2,144(a0)
    80005662:	1ebe                	slli	t4,t4,0x2f
    80005664:	7bc697fb          	.4byte	0x7bc697fb
    80005668:	fdc5                	bnez	a1,80005620 <input_data+0xa58>
    8000566a:	4d993b37          	lui	s6,0x4d993
    8000566e:	83b2432f          	.4byte	0x83b2432f
    80005672:	0e9f 9873 0803      	.byte	0x9f, 0x0e, 0x73, 0x98, 0x03, 0x08
    80005678:	b732                	fsd	fa2,424(sp)
    8000567a:	47e6                	lw	a5,88(sp)
    8000567c:	b9ad                	j	800052f6 <input_data+0x72e>
    8000567e:	501d                	c.li	zero,-25
    80005680:	3234                	fld	fa3,96(a2)
    80005682:	43e6                	lw	t2,88(sp)
    80005684:	a9e2                	fsd	fs8,208(sp)
    80005686:	26d5                	addiw	a3,a3,21 # ffffffffe8f4c3ed <dram_end_address_reg+0xffffffff18f4c3dd>
    80005688:	c7f5                	beqz	a5,80005774 <input_data+0xbac>
    8000568a:	0151                	addi	sp,sp,20
    8000568c:	c33a                	sw	a4,132(sp)
    8000568e:	5b90                	lw	a2,48(a5)
    80005690:	8976                	mv	s2,t4
    80005692:	7fc0                	ld	s0,184(a5)
    80005694:	e0a8                	sd	a0,64(s1)
    80005696:	3471                	addiw	s0,s0,-4
    80005698:	73e9750b          	.4byte	0x73e9750b
    8000569c:	25d6                	fld	fa1,336(sp)
    8000569e:	071c                	addi	a5,sp,896
    800056a0:	8c7a                	mv	s8,t5
    800056a2:	3198                	fld	fa4,32(a1)
    800056a4:	acbd                	j	80005922 <input_data+0xd5a>
    800056a6:	5d64                	lw	s1,124(a0)
    800056a8:	b01d                	j	80004ece <input_data+0x306>
    800056aa:	3438                	fld	fa4,104(s0)
    800056ac:	53c2                	lw	t2,48(sp)
    800056ae:	2728                	fld	fa0,72(a4)
    800056b0:	90d4                	.2byte	0x90d4
    800056b2:	626c0d83          	lb	s11,1574(s8)
    800056b6:	37e8                	fld	fa0,232(a5)
    800056b8:	3740                	fld	fs0,168(a4)
    800056ba:	47a5                	li	a5,9
    800056bc:	73877afb          	.4byte	0x73877afb
    800056c0:	2c8c                	fld	fa1,24(s1)
    800056c2:	780d                	lui	a6,0xfffe3
    800056c4:	5c1f 4bf6 a764      	.byte	0x1f, 0x5c, 0xf6, 0x4b, 0x64, 0xa7
    800056ca:	41b5                	li	gp,13
    800056cc:	9850                	.2byte	0x9850
    800056ce:	588e                	lw	a7,224(sp)
    800056d0:	e798                	sd	a4,8(a5)
    800056d2:	346c                	fld	fa1,232(s0)
    800056d4:	660f2753          	.4byte	0x660f2753
    800056d8:	0b60                	addi	s0,sp,412
    800056da:	26c6                	fld	fa3,80(sp)
    800056dc:	5aa8                	lw	a0,112(a3)
    800056de:	3fb1                	addiw	t6,t6,-20
    800056e0:	4af1                	li	s5,28
    800056e2:	4eab19eb          	.4byte	0x4eab19eb
    800056e6:	119716cb          	fnmsub.s	fa3,fa4,fs9,ft2,rtz
    800056ea:	36d2                	fld	fa3,304(sp)
    800056ec:	b865                	j	80004fa4 <input_data+0x3dc>
    800056ee:	7889                	lui	a7,0xfffe2
    800056f0:	4eaa874f          	.4byte	0x4eaa874f
    800056f4:	731f 7f8d b247      	.byte	0x1f, 0x73, 0x8d, 0x7f, 0x47, 0xb2
    800056fa:	2e04                	fld	fs1,24(a2)
    800056fc:	38e6                	fld	fa7,120(sp)
    800056fe:	3da0                	fld	fs0,120(a1)
    80005700:	8d86                	mv	s11,ra
    80005702:	42d0                	lw	a2,4(a3)
    80005704:	8655                	srai	a2,a2,0x15
    80005706:	b06e1447          	fmsub.s	fs0,ft8,ft6,fs6,rtz
    8000570a:	142657af          	.4byte	0x142657af
    8000570e:	6958                	ld	a4,144(a0)
    80005710:	127d                	addi	tp,tp,-1
    80005712:	02d4                	addi	a3,sp,324
    80005714:	1808                	addi	a0,sp,48
    80005716:	4e50                	lw	a2,28(a2)
    80005718:	ff59                	bnez	a4,800056b6 <input_data+0xaee>
    8000571a:	17c9                	addi	a5,a5,-14
    8000571c:	6a81                	.2byte	0x6a81
    8000571e:	5732                	lw	a4,44(sp)
    80005720:	280b98c7          	fmsub.s	fa7,fs7,ft0,ft5,rtz
    80005724:	c8a5                	beqz	s1,80005794 <input_data+0xbcc>
    80005726:	01e1                	addi	gp,gp,24 # 800073e0 <__global_pointer$+0x18>
    80005728:	b6ca                	fsd	fs2,360(sp)
    8000572a:	0dba                	slli	s11,s11,0xe
    8000572c:	f698                	sd	a4,40(a3)
    8000572e:	0e4d                	addi	t3,t3,19
    80005730:	39df 2335 12f4      	.byte	0xdf, 0x39, 0x35, 0x23, 0xf4, 0x12
    80005736:	662e                	ld	a2,200(sp)
    80005738:	dfc5                	beqz	a5,800056f0 <input_data+0xb28>
    8000573a:	31a6                	fld	ft3,104(sp)
    8000573c:	bb4a                	fsd	fs2,432(sp)
    8000573e:	17bc                	addi	a5,sp,1000
    80005740:	8905                	andi	a0,a0,1
    80005742:	1f1f bef4 000d      	.byte	0x1f, 0x1f, 0xf4, 0xbe, 0x0d, 0x00
    80005748:	3e5303f7          	.4byte	0x3e5303f7
    8000574c:	4fe1                	li	t6,24
    8000574e:	5c1f 89af 0d87      	.byte	0x1f, 0x5c, 0xaf, 0x89, 0x87, 0x0d
    80005754:	6fc0                	ld	s0,152(a5)
    80005756:	0c6c                	addi	a1,sp,540
    80005758:	09c4                	addi	s1,sp,212
    8000575a:	598e                	lw	s3,224(sp)
    8000575c:	8c4e                	mv	s8,s3
    8000575e:	600d                	c.lui	zero,0x3
    80005760:	53ad                	li	t2,-21
    80005762:	7345                	lui	t1,0xffff1
    80005764:	5eb1deab          	.4byte	0x5eb1deab
    80005768:	62a986eb          	.4byte	0x62a986eb
    8000576c:	778c                	ld	a1,40(a5)
    8000576e:	684e                	ld	a6,208(sp)
    80005770:	9ede                	add	t4,t4,s7
    80005772:	52a0                	lw	s0,96(a3)
    80005774:	7574                	ld	a3,232(a0)
    80005776:	37c2                	fld	fa5,48(sp)
    80005778:	53d9                	li	t2,-10
    8000577a:	0a5c                	addi	a5,sp,276
    8000577c:	7a22                	ld	s4,40(sp)
    8000577e:	29dd                	addiw	s3,s3,23
    80005780:	108a                	slli	ra,ra,0x22
    80005782:	14c0                	addi	s0,sp,612
    80005784:	04da198b          	.4byte	0x4da198b
    80005788:	342ec987          	.4byte	0x342ec987
    8000578c:	f6c6                	sd	a7,360(sp)
    8000578e:	0458                	addi	a4,sp,516
    80005790:	c459                	beqz	s0,8000581e <input_data+0xc56>
    80005792:	7939                	lui	s2,0xfffee
    80005794:	1a90                	addi	a2,sp,368
    80005796:	4d9f b410 03dc      	.byte	0x9f, 0x4d, 0x10, 0xb4, 0xdc, 0x03
    8000579c:	8b1a                	mv	s6,t1
    8000579e:	77d6                	ld	a5,368(sp)
    800057a0:	2af9                	addiw	s5,s5,30 # 1801e <buflen.0+0x17fde>
    800057a2:	6279                	lui	tp,0x1e
    800057a4:	55e0                	lw	s0,108(a1)
    800057a6:	0378                	addi	a4,sp,396
    800057a8:	a3d2                	fsd	fs4,448(sp)
    800057aa:	5a9a6f8f          	.4byte	0x5a9a6f8f
    800057ae:	f8480b5b          	.4byte	0xf8480b5b
    800057b2:	0e95                	addi	t4,t4,5 # ffffffffffffb005 <dram_end_address_reg+0xffffffff2fffaff5>
    800057b4:	c145                	beqz	a0,80005854 <input_data+0xc8c>
    800057b6:	3890                	fld	fa2,48(s1)
    800057b8:	e741                	bnez	a4,80005840 <input_data+0xc78>
    800057ba:	1314                	addi	a3,sp,416
    800057bc:	e58d                	bnez	a1,800057e6 <input_data+0xc1e>
    800057be:	2b7a                	fld	fs6,408(sp)
    800057c0:	7b38                	ld	a4,112(a4)
    800057c2:	07f9                	addi	a5,a5,30
    800057c4:	aecc                	fsd	fa1,152(a3)
    800057c6:	17442c23          	sw	s4,376(s0)
    800057ca:	12dd                	addi	t0,t0,-9
    800057cc:	0e38                	addi	a4,sp,792
    800057ce:	4705                	li	a4,1
    800057d0:	6b6b5947          	fmsub.d	fs2,fs6,fs6,fa3,unknown
    800057d4:	3bb4                	fld	fa3,112(a5)
    800057d6:	2ed0                	fld	fa2,152(a3)
    800057d8:	6c47c04b          	.4byte	0x6c47c04b
    800057dc:	0e12                	slli	t3,t3,0x4
    800057de:	7a54                	ld	a3,176(a2)
    800057e0:	3774479b          	.4byte	0x3774479b
    800057e4:	7c82                	ld	s9,32(sp)
    800057e6:	51f651e7          	.4byte	0x51f651e7
    800057ea:	121c                	addi	a5,sp,288
    800057ec:	3d32                	fld	fs10,296(sp)
    800057ee:	32d5                	addiw	t0,t0,-11
    800057f0:	fbb4                	sd	a3,112(a5)
    800057f2:	1b14                	addi	a3,sp,432
    800057f4:	1831                	addi	a6,a6,-20 # fffffffffffe2fec <dram_end_address_reg+0xffffffff2ffe2fdc>
    800057f6:	7f10                	ld	a2,56(a4)
    800057f8:	1f5a                	slli	t5,t5,0x36
    800057fa:	68ba                	ld	a7,392(sp)
    800057fc:	adc6                	fsd	fa7,216(sp)
    800057fe:	2dd11ff3          	csrrw	t6,0x2dd,sp
    80005802:	6939                	lui	s2,0xe
    80005804:	2488                	fld	fa0,8(s1)
    80005806:	d9f32b53          	.4byte	0xd9f32b53
    8000580a:	bdbc481b          	.4byte	0xbdbc481b
    8000580e:	6ab9                	lui	s5,0xe
    80005810:	26e2                	fld	fa3,24(sp)
    80005812:	2eb2                	fld	ft9,264(sp)
    80005814:	7cd13583          	ld	a1,1997(sp)
    80005818:	9124                	.2byte	0x9124
    8000581a:	e0844ee7          	.4byte	0xe0844ee7
    8000581e:	326e                	fld	ft4,248(sp)
    80005820:	f425                	bnez	s0,80005788 <input_data+0xbc0>
    80005822:	3f81                	addiw	t6,t6,-32
    80005824:	221bb1f3          	csrrc	gp,0x221,s7
    80005828:	680ae06b          	.4byte	0x680ae06b
    8000582c:	02ec                	addi	a1,sp,332
    8000582e:	3c49                	addiw	s8,s8,-14
    80005830:	fa5f 7577 9f22      	.byte	0x5f, 0xfa, 0x77, 0x75, 0x22, 0x9f
    80005836:	2c9d                	addiw	s9,s9,7 # ffffffffffff7007 <dram_end_address_reg+0xffffffff2fff6ff7>
    80005838:	14739627          	.4byte	0x14739627
    8000583c:	0b2a                	slli	s6,s6,0xa
    8000583e:	2b1d                	addiw	s6,s6,7 # 4d993007 <buflen.0+0x4d992fc7>
    80005840:	42b9                	li	t0,14
    80005842:	3731                	addiw	a4,a4,-20
    80005844:	35ae                	fld	fa1,232(sp)
    80005846:	35c0                	fld	fs0,168(a1)
    80005848:	bcfc                	fsd	fa5,248(s1)
    8000584a:	16f966ef          	jal	a3,8009c1b8 <_tbss_end+0x93574>
    8000584e:	1ff0                	addi	a2,sp,1020
    80005850:	7b35                	lui	s6,0xfffed
    80005852:	171a                	slli	a4,a4,0x26
    80005854:	1baab177          	.4byte	0x1baab177
    80005858:	91ea                	add	gp,gp,s10
    8000585a:	45c4                	lw	s1,12(a1)
    8000585c:	39da                	fld	fs3,432(sp)
    8000585e:	44cb4583          	lbu	a1,1100(s6) # fffffffffffed44c <dram_end_address_reg+0xffffffff2ffed43c>
    80005862:	eeb26bb7          	lui	s7,0xeeb26
    80005866:	73c1                	lui	t2,0xffff0
    80005868:	3aba90eb          	.4byte	0x3aba90eb
    8000586c:	518d9d7b          	.4byte	0x518d9d7b
    80005870:	0924                	addi	s1,sp,152
    80005872:	64d2                	ld	s1,272(sp)
    80005874:	861e                	mv	a2,t2
    80005876:	62415d83          	lhu	s11,1572(sp)
    8000587a:	6fd5                	lui	t6,0x15
    8000587c:	0635                	addi	a2,a2,13 # 1500d <buflen.0+0x14fcd>
    8000587e:	4a75                	li	s4,29
    80005880:	31f2                	fld	ft3,312(sp)
    80005882:	65f1                	lui	a1,0x1c
    80005884:	69213a4f          	fnmadd.s	fs4,ft2,fs2,fa3,rup
    80005888:	1266                	slli	tp,tp,0x39
    8000588a:	6751                	lui	a4,0x14
    8000588c:	ddb0                	sw	a2,120(a1)
    8000588e:	5612                	lw	a2,36(sp)
    80005890:	3bea                	fld	fs7,184(sp)
    80005892:	6122                	ld	sp,8(sp)
    80005894:	a826                	fsd	fs1,16(sp)
    80005896:	7d7c                	ld	a5,248(a0)
    80005898:	0d6a9e8b          	.4byte	0xd6a9e8b
    8000589c:	05a2                	slli	a1,a1,0x8
    8000589e:	3594                	fld	fa3,40(a1)
    800058a0:	bf5f 3378 4c62      	.byte	0x5f, 0xbf, 0x78, 0x33, 0x62, 0x4c
    800058a6:	55f0                	lw	a2,108(a1)
    800058a8:	7fc9                	lui	t6,0xffff2
    800058aa:	2090                	fld	fa2,0(s1)
    800058ac:	d4b4                	sw	a3,104(s1)
    800058ae:	287c75e3          	bgeu	s8,t2,80006338 <input_data+0x1770>
    800058b2:	104f7e27          	.4byte	0x104f7e27
    800058b6:	48d2                	lw	a7,20(sp)
    800058b8:	7eec                	ld	a1,248(a3)
    800058ba:	1178                	addi	a4,sp,172
    800058bc:	bf85                	j	8000582c <input_data+0xc64>
    800058be:	5f76                	lw	t5,124(sp)
    800058c0:	791e                	ld	s2,480(sp)
    800058c2:	5d78                	lw	a4,124(a0)
    800058c4:	af9c                	fsd	fa5,24(a5)
    800058c6:	54ec                	lw	a1,108(s1)
    800058c8:	bad6                	fsd	fs5,368(sp)
    800058ca:	4ae2                	lw	s5,24(sp)
    800058cc:	4fc8                	lw	a0,28(a5)
    800058ce:	0e4c11cf          	.4byte	0xe4c11cf
    800058d2:	65ce                	ld	a1,208(sp)
    800058d4:	3170694b          	fnmsub.s	fs2,ft0,fs7,ft6,unknown
    800058d8:	6b95                	lui	s7,0x5
    800058da:	3526                	fld	fa0,104(sp)
    800058dc:	76e02b87          	flw	fs7,1902(zero) # 76e <buflen.0+0x72e>
    800058e0:	0354                	addi	a3,sp,388
    800058e2:	43ba                	lw	t2,140(sp)
    800058e4:	8dc1                	or	a1,a1,s0
    800058e6:	1630                	addi	a2,sp,808
    800058e8:	8bfd                	andi	a5,a5,31
    800058ea:	0e8b5aa3          	.4byte	0xe8b5aa3
    800058ee:	3a98                	fld	fa4,48(a3)
    800058f0:	46fe6c83          	lwu	s9,1135(t3)
    800058f4:	9bfd                	andi	a5,a5,-1
    800058f6:	288a                	fld	fa7,128(sp)
    800058f8:	3401                	addiw	s0,s0,-32
    800058fa:	307d                	.2byte	0x307d
    800058fc:	b7d5                	j	800058e0 <input_data+0xd18>
    800058fe:	1790                	addi	a2,sp,992
    80005900:	4380                	lw	s0,0(a5)
    80005902:	bfe56243          	.4byte	0xbfe56243
    80005906:	3d2c                	fld	fa1,120(a0)
    80005908:	0d94                	addi	a3,sp,720
    8000590a:	ed447d33          	.4byte	0xed447d33
    8000590e:	7f461927          	.4byte	0x7f461927
    80005912:	1e58                	addi	a4,sp,820
    80005914:	a3bc                	fsd	fa5,64(a5)
    80005916:	333c                	fld	fa5,96(a4)
    80005918:	ee36                	sd	a3,280(sp)
    8000591a:	796c                	ld	a1,240(a0)
    8000591c:	d758                	sw	a4,44(a4)
    8000591e:	3559                	addiw	a0,a0,-10
    80005920:	71bc                	ld	a5,96(a1)
    80005922:	a6b01d77          	.4byte	0xa6b01d77
    80005926:	673c                	ld	a5,72(a4)
    80005928:	3f1e                	fld	ft10,480(sp)
    8000592a:	1532                	slli	a0,a0,0x2c
    8000592c:	1715                	addi	a4,a4,-27 # 13fe5 <buflen.0+0x13fa5>
    8000592e:	7fa6                	ld	t6,104(sp)
    80005930:	24f2                	fld	fs1,280(sp)
    80005932:	40ce                	lw	ra,208(sp)
    80005934:	aa91                	j	80005a88 <input_data+0xec0>
    80005936:	229c                	fld	fa5,0(a3)
    80005938:	0d777e03          	.4byte	0xd777e03
    8000593c:	1801                	addi	a6,a6,-32
    8000593e:	5e3d                	li	t3,-17
    80005940:	11fa                	slli	gp,gp,0x3e
    80005942:	5a51                	li	s4,-12
    80005944:	5944ca9b          	.4byte	0x5944ca9b
    80005948:	c086                	sw	ra,64(sp)
    8000594a:	6606                	ld	a2,64(sp)
    8000594c:	4048                	lw	a0,4(s0)
    8000594e:	69c9                	lui	s3,0x12
    80005950:	2b61                	addiw	s6,s6,24
    80005952:	6d7411fb          	.4byte	0x6d7411fb
    80005956:	c43f43bb          	.4byte	0xc43f43bb
    8000595a:	26ec                	fld	fa1,200(a3)
    8000595c:	c100                	sw	s0,0(a0)
    8000595e:	067f                	.2byte	0x67f
    80005960:	d548                	sw	a0,44(a0)
    80005962:	65e9                	lui	a1,0x1a
    80005964:	4431                	li	s0,12
    80005966:	4fed                	li	t6,27
    80005968:	b562                	fsd	fs8,168(sp)
    8000596a:	5162                	lw	sp,56(sp)
    8000596c:	e886                	sd	ra,80(sp)
    8000596e:	44de                	lw	s1,212(sp)
    80005970:	0524                	addi	s1,sp,648
    80005972:	47c2                	lw	a5,16(sp)
    80005974:	e892                	sd	tp,80(sp)
    80005976:	0b34                	addi	a3,sp,408
    80005978:	760e                	ld	a2,224(sp)
    8000597a:	0f45                	addi	t5,t5,17 # a011 <buflen.0+0x9fd1>
    8000597c:	25bbf907          	.4byte	0x25bbf907
    80005980:	0125630f          	.4byte	0x125630f
    80005984:	ec4e                	sd	s3,24(sp)
    80005986:	6f28                	ld	a0,88(a4)
    80005988:	d032                	sw	a2,32(sp)
    8000598a:	442d                	li	s0,11
    8000598c:	0e20a51b          	.4byte	0xe20a51b
    80005990:	e6c8                	sd	a0,136(a3)
    80005992:	6851                	lui	a6,0x14
    80005994:	4b8a                	lw	s7,128(sp)
    80005996:	3312                	fld	ft6,288(sp)
    80005998:	9c1c                	.2byte	0x9c1c
    8000599a:	04c9                	addi	s1,s1,18 # 65a8012 <buflen.0+0x65a7fd2>
    8000599c:	6418748b          	.4byte	0x6418748b
    800059a0:	0a4e                	slli	s4,s4,0x13
    800059a2:	4af4                	lw	a3,84(a3)
    800059a4:	52da5463          	bge	s4,a3,80005ecc <input_data+0x1304>
    800059a8:	859f 5ecc 7333      	.byte	0x9f, 0x85, 0xcc, 0x5e, 0x33, 0x73
    800059ae:	3010                	fld	fa2,32(s0)
    800059b0:	4c14                	lw	a3,24(s0)
    800059b2:	35aa4f5b          	.4byte	0x35aa4f5b
    800059b6:	78de                	ld	a7,496(sp)
    800059b8:	b9e0                	fsd	fs0,240(a1)
    800059ba:	ac02624f          	.4byte	0xac02624f
    800059be:	5ae172ef          	jal	t0,8001cf6c <_tbss_end+0x14328>
    800059c2:	3d42                	fld	fs10,48(sp)
    800059c4:	4b8786af          	.4byte	0x4b8786af
    800059c8:	076267bf 05b51220 	.8byte	0x5b51220076267bf
    800059d0:	e546                	sd	a7,136(sp)
    800059d2:	3a367ad7          	.4byte	0x3a367ad7
    800059d6:	24ec                	fld	fa1,200(s1)
    800059d8:	9cdc                	.2byte	0x9cdc
    800059da:	6481                	.2byte	0x6481
    800059dc:	9a26                	add	s4,s4,s1
    800059de:	a6bd6c4f          	.4byte	0xa6bd6c4f
    800059e2:	7e4a                	ld	t3,176(sp)
    800059e4:	5f2d8e87          	.4byte	0x5f2d8e87
    800059e8:	a94d                	j	80005e9a <input_data+0x12d2>
    800059ea:	6b4c                	ld	a1,144(a4)
    800059ec:	6591                	lui	a1,0x4
    800059ee:	ec5c0caf          	.4byte	0xec5c0caf
    800059f2:	276a                	fld	fa4,152(sp)
    800059f4:	aca1                	j	80005c4c <input_data+0x1084>
    800059f6:	42f4                	lw	a3,68(a3)
    800059f8:	08b3d3db          	.4byte	0x8b3d3db
    800059fc:	0231                	addi	tp,tp,12 # 1e00c <buflen.0+0x1dfcc>
    800059fe:	6b3238db          	.4byte	0x6b3238db
    80005a02:	699d                	lui	s3,0x7
    80005a04:	c88e                	sw	gp,80(sp)
    80005a06:	3764                	fld	fs1,232(a4)
    80005a08:	c8f2                	sw	t3,80(sp)
    80005a0a:	7fb1                	lui	t6,0xfffec
    80005a0c:	1541dfdb          	.4byte	0x1541dfdb
    80005a10:	e246                	sd	a7,256(sp)
    80005a12:	5ffe                	lw	t6,252(sp)
    80005a14:	b4d1                	j	800054d8 <input_data+0x910>
    80005a16:	7745                	lui	a4,0xffff1
    80005a18:	15fcce2f          	.4byte	0x15fcce2f
    80005a1c:	3e1f 03b5 a229      	.byte	0x1f, 0x3e, 0xb5, 0x03, 0x29, 0xa2
    80005a22:	69d5                	lui	s3,0x15
    80005a24:	fafd                	bnez	a3,80005a1a <input_data+0xe52>
    80005a26:	3b26                	fld	fs6,104(sp)
    80005a28:	6481                	.2byte	0x6481
    80005a2a:	f4324fa3          	.4byte	0xf4324fa3
    80005a2e:	2982                	fld	fs3,0(sp)
    80005a30:	b436                	fsd	fa3,40(sp)
    80005a32:	13e5                	addi	t2,t2,-7 # fffffffffffefff9 <dram_end_address_reg+0xffffffff2ffeffe9>
    80005a34:	ab60                	fsd	fs0,208(a4)
    80005a36:	22ea                	fld	ft5,152(sp)
    80005a38:	a2f9                	j	80005c06 <input_data+0x103e>
    80005a3a:	69d8                	ld	a4,144(a1)
    80005a3c:	94ee                	add	s1,s1,s11
    80005a3e:	3041                	.2byte	0x3041
    80005a40:	058dfb67          	.4byte	0x58dfb67
    80005a44:	35dc                	fld	fa5,168(a1)
    80005a46:	2ba8                	fld	fa0,80(a5)
    80005a48:	3434                	fld	fa3,104(s0)
    80005a4a:	90f058ef          	jal	a7,7ff0b358 <buflen.0+0x7ff0b318>
    80005a4e:	48d27313          	andi	t1,tp,1165
    80005a52:	0a60                	addi	s0,sp,284
    80005a54:	bdd6                	fsd	fs5,248(sp)
    80005a56:	144a                	slli	s0,s0,0x32
    80005a58:	8062                	c.mv	zero,s8
    80005a5a:	1e46                	slli	t3,t3,0x31
    80005a5c:	18e0                	addi	s0,sp,124
    80005a5e:	159f fdc5 5fcb      	.byte	0x9f, 0x15, 0xc5, 0xfd, 0xcb, 0x5f
    80005a64:	7b46                	ld	s6,112(sp)
    80005a66:	2df238d3          	.4byte	0x2df238d3
    80005a6a:	5f5c                	lw	a5,60(a4)
    80005a6c:	a1ce                	fsd	fs3,192(sp)
    80005a6e:	18d2                	slli	a7,a7,0x34
    80005a70:	757d                	lui	a0,0xfffff
    80005a72:	2212                	fld	ft4,256(sp)
    80005a74:	50dfdaef          	jal	s5,80103780 <_tbss_end+0xfab3c>
    80005a78:	c2dc                	sw	a5,4(a3)
    80005a7a:	0fec                	addi	a1,sp,988
    80005a7c:	0db6                	slli	s11,s11,0xd
    80005a7e:	77ea                	ld	a5,184(sp)
    80005a80:	107f                	.2byte	0x107f
    80005a82:	5db6                	lw	s11,108(sp)
    80005a84:	2fa9                	addiw	t6,t6,10 # fffffffffffec00a <dram_end_address_reg+0xffffffff2ffebffa>
    80005a86:	231c                	fld	fa5,0(a4)
    80005a88:	d08a                	sw	sp,96(sp)
    80005a8a:	78b0                	ld	a2,112(s1)
    80005a8c:	9a25                	andi	a2,a2,-23
    80005a8e:	6426                	ld	s0,72(sp)
    80005a90:	5b94                	lw	a3,48(a5)
    80005a92:	3688                	fld	fa0,40(a3)
    80005a94:	e6da                	sd	s6,328(sp)
    80005a96:	17c6                	slli	a5,a5,0x31
    80005a98:	b464                	fsd	fs1,232(s0)
    80005a9a:	2f70                	fld	fa2,216(a4)
    80005a9c:	d6f6                	sw	t4,108(sp)
    80005a9e:	6c644f6b          	.4byte	0x6c644f6b
    80005aa2:	2909                	addiw	s2,s2,2 # e002 <buflen.0+0xdfc2>
    80005aa4:	25755203          	lhu	tp,599(a0) # fffffffffffff257 <dram_end_address_reg+0xffffffff2ffff247>
    80005aa8:	227f96f7          	.4byte	0x227f96f7
    80005aac:	0736                	slli	a4,a4,0xd
    80005aae:	7796                	ld	a5,352(sp)
    80005ab0:	2dac                	fld	fa1,88(a1)
    80005ab2:	4592                	lw	a1,4(sp)
    80005ab4:	140a3777          	.4byte	0x140a3777
    80005ab8:	f3c1                	bnez	a5,80005a38 <input_data+0xe70>
    80005aba:	61ce                	ld	gp,208(sp)
    80005abc:	6e26                	ld	t3,72(sp)
    80005abe:	6a02                	ld	s4,0(sp)
    80005ac0:	f51e                	sd	t2,168(sp)
    80005ac2:	6064                	ld	s1,192(s0)
    80005ac4:	7c26                	ld	s8,104(sp)
    80005ac6:	0b5f 939b 7556      	.byte	0x5f, 0x0b, 0x9b, 0x93, 0x56, 0x75
    80005acc:	2a5f 7e88 5cd7      	.byte	0x5f, 0x2a, 0x88, 0x7e, 0xd7, 0x5c
    80005ad2:	589601db          	.4byte	0x589601db
    80005ad6:	83c450a7          	.4byte	0x83c450a7
    80005ada:	0021                	c.nop	8
    80005adc:	5328610f          	.4byte	0x5328610f
    80005ae0:	fa75                	bnez	a2,80005ad4 <input_data+0xf0c>
    80005ae2:	741d                	lui	s0,0xfffe7
    80005ae4:	aaf4                	fsd	fa3,208(a3)
    80005ae6:	041e                	slli	s0,s0,0x7
    80005ae8:	3385                	addiw	t2,t2,-31
    80005aea:	9b627f8f          	.4byte	0x9b627f8f
    80005aee:	0026                	c.slli	zero,0x9
    80005af0:	2ddd                	addiw	s11,s11,23 # 3b2a7525 <buflen.0+0x3b2a74e5>
    80005af2:	67c2                	ld	a5,16(sp)
    80005af4:	183e                	slli	a6,a6,0x2f
    80005af6:	5f71                	li	t5,-4
    80005af8:	8286                	mv	t0,ra
    80005afa:	47e0                	lw	s0,76(a5)
    80005afc:	57fc                	lw	a5,108(a5)
    80005afe:	3326                	fld	ft6,104(sp)
    80005b00:	e188                	sd	a0,0(a1)
    80005b02:	cea26ff3          	csrrsi	t6,0xcea,4
    80005b06:	7548                	ld	a0,168(a0)
    80005b08:	29ad                	addiw	s3,s3,11 # 1500b <buflen.0+0x14fcb>
    80005b0a:	f2a17c9b          	.4byte	0xf2a17c9b
    80005b0e:	6578                	ld	a4,200(a0)
    80005b10:	b685                	j	80005670 <input_data+0xaa8>
    80005b12:	2514                	fld	fa3,8(a0)
    80005b14:	dae5                	beqz	a3,80005b04 <input_data+0xf3c>
    80005b16:	470e                	lw	a4,192(sp)
    80005b18:	88ae                	mv	a7,a1
    80005b1a:	414a                	lw	sp,144(sp)
    80005b1c:	7e1723f7          	.4byte	0x7e1723f7
    80005b20:	4797b60f          	.4byte	0x4797b60f
    80005b24:	22f9                	addiw	t0,t0,30
    80005b26:	43fe                	lw	t2,220(sp)
    80005b28:	8234                	.2byte	0x8234
    80005b2a:	7b647c4b          	fnmsub.d	fs8,fs0,fs6,fa5
    80005b2e:	42cb4cf3          	.4byte	0x42cb4cf3
    80005b32:	33f8                	fld	fa4,224(a5)
    80005b34:	37b1                	addiw	a5,a5,-20
    80005b36:	337a                	fld	ft6,440(sp)
    80005b38:	4a41b0ab          	.4byte	0x4a41b0ab
    80005b3c:	5511                	li	a0,-28
    80005b3e:	a39e5787          	.4byte	0xa39e5787
    80005b42:	259c                	fld	fa5,8(a1)
    80005b44:	4f90                	lw	a2,24(a5)
    80005b46:	453c                	lw	a5,72(a0)
    80005b48:	202edda7          	.4byte	0x202edda7
    80005b4c:	ee10                	sd	a2,24(a2)
    80005b4e:	73d1                	lui	t2,0xffff4
    80005b50:	2228                	fld	fa0,64(a2)
    80005b52:	6ce0                	ld	s0,216(s1)
    80005b54:	dcbd                	beqz	s1,80005ad2 <input_data+0xf0a>
    80005b56:	45f50f7b          	.4byte	0x45f50f7b
    80005b5a:	108a                	slli	ra,ra,0x22
    80005b5c:	5899                	li	a7,-26
    80005b5e:	7f99                	lui	t6,0xfffe6
    80005b60:	56e2                	lw	a3,56(sp)
    80005b62:	3a06                	fld	fs4,96(sp)
    80005b64:	42dd5013          	srai	zero,s10,0x2d
    80005b68:	5bc3d43b          	.4byte	0x5bc3d43b
    80005b6c:	3271                	addiw	tp,tp,-4 # fffffffffffffffc <dram_end_address_reg+0xffffffff2fffffec>
    80005b6e:	dcd04fb7          	lui	t6,0xdcd04
    80005b72:	0b18                	addi	a4,sp,400
    80005b74:	bb55                	j	80005928 <input_data+0xd60>
    80005b76:	1cc8                	addi	a0,sp,628
    80005b78:	1c4d                	addi	s8,s8,-13
    80005b7a:	56f8                	lw	a4,108(a3)
    80005b7c:	1f64                	addi	s1,sp,956
    80005b7e:	46e372b7          	lui	t0,0x46e37
    80005b82:	174a                	slli	a4,a4,0x32
    80005b84:	247f                	.2byte	0x247f
    80005b86:	811043f3          	.4byte	0x811043f3
    80005b8a:	1edc                	addi	a5,sp,884
    80005b8c:	29f1                	addiw	s3,s3,28
    80005b8e:	d0ed692b          	.4byte	0xd0ed692b
    80005b92:	2b0c                	fld	fa1,16(a4)
    80005b94:	53807c37          	lui	s8,0x53807
    80005b98:	8f02                	jr	t5
    80005b9a:	4c0565b7          	lui	a1,0x4c056
    80005b9e:	1cfa                	slli	s9,s9,0x3e
    80005ba0:	e641                	bnez	a2,80005c28 <input_data+0x1060>
    80005ba2:	5238                	lw	a4,96(a2)
    80005ba4:	0c514963          	blt	sp,t0,80005c76 <input_data+0x10ae>
    80005ba8:	0030356f          	jal	a0,800093aa <_tbss_end+0x766>
    80005bac:	81de                	mv	gp,s7
    80005bae:	37e721af          	.4byte	0x37e721af
    80005bb2:	3bd32907          	flw	fs2,957(t1) # ffffffffffff13bd <dram_end_address_reg+0xffffffff2fff13ad>
    80005bb6:	48ee                	lw	a7,216(sp)
    80005bb8:	7e7f282b          	.4byte	0x7e7f282b
    80005bbc:	e911                	bnez	a0,80005bd0 <input_data+0x1008>
    80005bbe:	bc781e93          	.4byte	0xbc781e93
    80005bc2:	f81f52e3          	bge	t5,ra,80005b46 <input_data+0xf7e>
    80005bc6:	1034                	addi	a3,sp,40
    80005bc8:	540c                	lw	a1,40(s0)
    80005bca:	60b8                	ld	a4,64(s1)
    80005bcc:	4e448da7          	.4byte	0x4e448da7
    80005bd0:	939c                	.2byte	0x939c
    80005bd2:	7ada                	ld	s5,432(sp)
    80005bd4:	8e8d                	sub	a3,a3,a1
    80005bd6:	188c                	addi	a1,sp,112
    80005bd8:	efe9                	bnez	a5,80005cb2 <input_data+0x10ea>
    80005bda:	1a16                	slli	s4,s4,0x25
    80005bdc:	1e9ca763          	.4byte	0x1e9ca763
    80005be0:	671f 1235 2f27      	.byte	0x1f, 0x67, 0x35, 0x12, 0x27, 0x2f
    80005be6:	661d                	lui	a2,0x7
    80005be8:	17155447          	.4byte	0x17155447
    80005bec:	291f 7157 83a9      	.byte	0x1f, 0x29, 0x57, 0x71, 0xa9, 0x83
    80005bf2:	ccf5266f          	jal	a2,7ff588c0 <buflen.0+0x7ff58880>
    80005bf6:	496d                	li	s2,27
    80005bf8:	63a5                	lui	t2,0x9
    80005bfa:	1542                	slli	a0,a0,0x30
    80005bfc:	a455                	j	80005ea0 <input_data+0x12d8>
    80005bfe:	0dd6                	slli	s11,s11,0x15
    80005c00:	8322                	mv	t1,s0
    80005c02:	6190                	ld	a2,0(a1)
    80005c04:	8242                	mv	tp,a6
    80005c06:	ed641203          	lh	tp,-298(s0) # fffffffffffe6ed6 <dram_end_address_reg+0xffffffff2ffe6ec6>
    80005c0a:	7cd8                	ld	a4,184(s1)
    80005c0c:	a2b8                	fsd	fa4,64(a3)
    80005c0e:	6530                	ld	a2,72(a0)
    80005c10:	02a1                	addi	t0,t0,8 # 46e37008 <buflen.0+0x46e36fc8>
    80005c12:	52e1                	li	t0,-8
    80005c14:	a814                	fsd	fa3,16(s0)
    80005c16:	6d49                	lui	s10,0x12
    80005c18:	1554                	addi	a3,sp,676
    80005c1a:	47ba                	lw	a5,140(sp)
    80005c1c:	b802                	fsd	ft0,48(sp)
    80005c1e:	0309                	addi	t1,t1,2
    80005c20:	7e0c                	ld	a1,56(a2)
    80005c22:	4f6a                	lw	t5,152(sp)
    80005c24:	5a46b2c3          	fmadd.d	ft5,fa3,ft4,fa1,rup
    80005c28:	69d9                	lui	s3,0x16
    80005c2a:	3632                	fld	fa2,296(sp)
    80005c2c:	adc9                	j	800062fe <input_data+0x1736>
    80005c2e:	7221                	lui	tp,0xfffe8
    80005c30:	0b52                	slli	s6,s6,0x14
    80005c32:	05a3216b          	.4byte	0x5a3216b
    80005c36:	3d91                	addiw	s11,s11,-28
    80005c38:	4881f2b7          	lui	t0,0x4881f
    80005c3c:	06c34b8b          	.4byte	0x6c34b8b
    80005c40:	4f41                	li	t5,16
    80005c42:	0fd74577          	.4byte	0xfd74577
    80005c46:	2fb8                	fld	fa4,88(a5)
    80005c48:	227f                	.2byte	0x227f
    80005c4a:	3f1a                	fld	ft10,416(sp)
    80005c4c:	5cc9                	li	s9,-14
    80005c4e:	19c1                	addi	s3,s3,-16 # 15ff0 <buflen.0+0x15fb0>
    80005c50:	a605                	j	80005f70 <input_data+0x13a8>
    80005c52:	7f10                	ld	a2,56(a4)
    80005c54:	2449                	addiw	s0,s0,18
    80005c56:	4609                	li	a2,2
    80005c58:	3495                	addiw	s1,s1,-27
    80005c5a:	5f89                	li	t6,-30
    80005c5c:	b74e                	fsd	fs3,424(sp)
    80005c5e:	3462                	fld	fs0,56(sp)
    80005c60:	1a9b193f 0f5c9eb7 	.8byte	0xf5c9eb71a9b193f
    80005c68:	21dc                	fld	fa5,128(a1)
    80005c6a:	2fb9                	addiw	t6,t6,14 # ffffffffdcd0400e <dram_end_address_reg+0xffffffff0cd03ffe>
    80005c6c:	2390                	fld	fa2,0(a5)
    80005c6e:	52b9                	li	t0,-18
    80005c70:	5dbc                	lw	a5,120(a1)
    80005c72:	777e                	ld	a4,504(sp)
    80005c74:	07e4                	addi	s1,sp,972
    80005c76:	f6013b8f          	.4byte	0xf6013b8f
    80005c7a:	5520                	lw	s0,104(a0)
    80005c7c:	2930                	fld	fa2,80(a0)
    80005c7e:	b2da0a7b          	.4byte	0xb2da0a7b
    80005c82:	0476                	slli	s0,s0,0x1d
    80005c84:	0af0                	addi	a2,sp,348
    80005c86:	ef612593          	slti	a1,sp,-266
    80005c8a:	4469                	li	s0,26
    80005c8c:	e19d                	bnez	a1,80005cb2 <input_data+0x10ea>
    80005c8e:	06b6                	slli	a3,a3,0xd
    80005c90:	1d74                	addi	a3,sp,700
    80005c92:	3d4e                	fld	fs10,240(sp)
    80005c94:	2dc1                	addiw	s11,s11,16
    80005c96:	70c4                	ld	s1,160(s1)
    80005c98:	7398                	ld	a4,32(a5)
    80005c9a:	7476                	ld	s0,376(sp)
    80005c9c:	12d4                	addi	a3,sp,356
    80005c9e:	1cb4                	addi	a3,sp,632
    80005ca0:	1886                	slli	a7,a7,0x21
    80005ca2:	1a04                	addi	s1,sp,304
    80005ca4:	5ea0                	lw	s0,120(a3)
    80005ca6:	82a85f6f          	jal	t5,7ff8acd0 <buflen.0+0x7ff8ac90>
    80005caa:	f449044f          	.4byte	0xf449044f
    80005cae:	5e3d                	li	t3,-17
    80005cb0:	1b717563          	bgeu	sp,s7,80005e5a <input_data+0x1292>
    80005cb4:	88e1                	andi	s1,s1,24
    80005cb6:	7185                	lui	gp,0xfffe1
    80005cb8:	f2c1                	bnez	a3,80005c38 <input_data+0x1070>
    80005cba:	2edd                	addiw	t4,t4,23
    80005cbc:	1fe2                	slli	t6,t6,0x38
    80005cbe:	1571                	addi	a0,a0,-4
    80005cc0:	c58d                	beqz	a1,80005cea <input_data+0x1122>
    80005cc2:	82bc7257          	.4byte	0x82bc7257
    80005cc6:	003d                	c.nop	15
    80005cc8:	5eb2                	lw	t4,44(sp)
    80005cca:	641f 5118 4430      	.byte	0x1f, 0x64, 0x18, 0x51, 0x30, 0x44
    80005cd0:	4838                	lw	a4,80(s0)
    80005cd2:	c6375727          	.4byte	0xc6375727
    80005cd6:	292d                	addiw	s2,s2,11
    80005cd8:	50ec                	lw	a1,100(s1)
    80005cda:	b4405a5b          	.4byte	0xb4405a5b
    80005cde:	15aa                	slli	a1,a1,0x2a
    80005ce0:	f556                	sd	s5,168(sp)
    80005ce2:	8743583b          	.4byte	0x8743583b
    80005ce6:	d5303e3b          	.4byte	0xd5303e3b
    80005cea:	a7e9795b          	.4byte	0xa7e9795b
    80005cee:	0d08                	addi	a0,sp,656
    80005cf0:	e05e                	sd	s7,0(sp)
    80005cf2:	3181                	addiw	gp,gp,-32 # fffffffffffe0fe0 <dram_end_address_reg+0xffffffff2ffe0fd0>
    80005cf4:	d8e5                	beqz	s1,80005ce4 <input_data+0x111c>
    80005cf6:	3ad616c3          	fmadd.d	fa3,fa2,fa3,ft7,rtz
    80005cfa:	0675                	addi	a2,a2,29 # 701d <buflen.0+0x6fdd>
    80005cfc:	f25c                	sd	a5,160(a2)
    80005cfe:	057f                	.2byte	0x57f
    80005d00:	cc9f 0cfa b38c      	.byte	0x9f, 0xcc, 0xfa, 0x0c, 0x8c, 0xb3
    80005d06:	5abc                	lw	a5,112(a3)
    80005d08:	71b9                	lui	gp,0xfffee
    80005d0a:	8d403cdb          	.4byte	0x8d403cdb
    80005d0e:	53de                	lw	t2,244(sp)
    80005d10:	33226d3b          	.4byte	0x33226d3b
    80005d14:	ce81                	beqz	a3,80005d2c <input_data+0x1164>
    80005d16:	7556                	ld	a0,368(sp)
    80005d18:	0bc1                	addi	s7,s7,16 # 5010 <buflen.0+0x4fd0>
    80005d1a:	5700                	lw	s0,40(a4)
    80005d1c:	495f 502b 6ac2      	.byte	0x5f, 0x49, 0x2b, 0x50, 0xc2, 0x6a
    80005d22:	2a4c                	fld	fa1,144(a2)
    80005d24:	5e7e                	lw	t3,252(sp)
    80005d26:	1f06                	slli	t5,t5,0x21
    80005d28:	8d0d                	sub	a0,a0,a1
    80005d2a:	7a1a                	ld	s4,416(sp)
    80005d2c:	ac82                	fsd	ft0,88(sp)
    80005d2e:	696d                	lui	s2,0x1b
    80005d30:	3c6ee86b          	.4byte	0x3c6ee86b
    80005d34:	eb55                	bnez	a4,80005de8 <input_data+0x1220>
    80005d36:	54be65e7          	.4byte	0x54be65e7
    80005d3a:	3d2d                	addiw	s10,s10,-21 # 11feb <buflen.0+0x11fab>
    80005d3c:	8b7a                	mv	s6,t5
    80005d3e:	5222                	lw	tp,40(sp)
    80005d40:	e2f0                	sd	a2,192(a3)
    80005d42:	5cfd                	li	s9,-1
    80005d44:	8ed1                	or	a3,a3,a2
    80005d46:	085b2057          	.4byte	0x85b2057
    80005d4a:	5b74                	lw	a3,116(a4)
    80005d4c:	0239                	addi	tp,tp,14 # fffffffffffe800e <dram_end_address_reg+0xffffffff2ffe7ffe>
    80005d4e:	1f79                	addi	t5,t5,-2
    80005d50:	78276307          	.4byte	0x78276307
    80005d54:	13640e9b          	addiw	t4,s0,310
    80005d58:	0be4                	addi	s1,sp,476
    80005d5a:	43cd                	li	t2,19
    80005d5c:	8c1c                	.2byte	0x8c1c
    80005d5e:	1d7a704b          	.4byte	0x1d7a704b
    80005d62:	6f86                	ld	t6,64(sp)
    80005d64:	6351                	lui	t1,0x14
    80005d66:	2aac                	fld	fa1,80(a3)
    80005d68:	09fe3077          	.4byte	0x9fe3077
    80005d6c:	1e4c                	addi	a1,sp,820
    80005d6e:	bae34d03          	lbu	s10,-1106(t1) # 13bae <buflen.0+0x13b6e>
    80005d72:	45df 5ebc 784d      	.byte	0xdf, 0x45, 0xbc, 0x5e, 0x4d, 0x78
    80005d78:	744d6397          	auipc	t2,0x744d6
    80005d7c:	463a                	lw	a2,140(sp)
    80005d7e:	634e                	ld	t1,208(sp)
    80005d80:	a105                	j	800061a0 <input_data+0x15d8>
    80005d82:	6d5d                	lui	s10,0x17
    80005d84:	32ee431b          	.4byte	0x32ee431b
    80005d88:	c920                	sw	s0,80(a0)
    80005d8a:	1268                	addi	a0,sp,300
    80005d8c:	6e48                	ld	a0,152(a2)
    80005d8e:	1df4                	addi	a3,sp,764
    80005d90:	b7c8                	fsd	fa0,168(a5)
    80005d92:	7d82                	ld	s11,32(sp)
    80005d94:	3d99                	addiw	s11,s11,-26
    80005d96:	60d6                	ld	ra,336(sp)
    80005d98:	49c4                	lw	s1,20(a1)
    80005d9a:	1ea6                	slli	t4,t4,0x29
    80005d9c:	8a86                	mv	s5,ra
    80005d9e:	3a2d                	addiw	s4,s4,-21
    80005da0:	0d8e43d3          	.4byte	0xd8e43d3
    80005da4:	d5de                	sw	s7,232(sp)
    80005da6:	3661                	addiw	a2,a2,-8
    80005da8:	4040                	lw	s0,4(s0)
    80005daa:	2ed9                	addiw	t4,t4,22
    80005dac:	8f99                	sub	a5,a5,a4
    80005dae:	1ae8                	addi	a0,sp,380
    80005db0:	90c0                	.2byte	0x90c0
    80005db2:	84c10ca3          	sb	a2,-1959(sp)
    80005db6:	7b4e                	ld	s6,240(sp)
    80005db8:	8f21                	xor	a4,a4,s0
    80005dba:	06fd                	addi	a3,a3,31
    80005dbc:	736f35b7          	lui	a1,0x736f3
    80005dc0:	c4ff                	.2byte	0xc4ff
    80005dc2:	c41b0c8f          	.4byte	0xc41b0c8f
    80005dc6:	092d7643          	fmadd.s	fa2,fs10,fs2,ft1
    80005dca:	3862                	fld	fa6,56(sp)
    80005dcc:	a9d0                	fsd	fa2,144(a1)
    80005dce:	d94853fb          	.4byte	0xd94853fb
    80005dd2:	6202                	ld	tp,0(sp)
    80005dd4:	43e409b7          	lui	s3,0x43e40
    80005dd8:	2870b66f          	jal	a2,8001185e <_tbss_end+0x8c1a>
    80005ddc:	4c3ceec7          	.4byte	0x4c3ceec7
    80005de0:	4dbe                	lw	s11,204(sp)
    80005de2:	2b26                	fld	fs6,72(sp)
    80005de4:	3f66                	fld	ft10,120(sp)
    80005de6:	0ba5                	addi	s7,s7,9
    80005de8:	1fe2                	slli	t6,t6,0x38
    80005dea:	5952                	lw	s2,52(sp)
    80005dec:	d0de                	sw	s7,96(sp)
    80005dee:	3b90                	fld	fa2,48(a5)
    80005df0:	d69d                	beqz	a3,80005d1e <input_data+0x1156>
    80005df2:	6a2e634b          	fnmsub.d	ft6,ft8,ft2,fa3,unknown
    80005df6:	6bb957d7          	.4byte	0x6bb957d7
    80005dfa:	5d11                	li	s10,-28
    80005dfc:	6d30                	ld	a2,88(a0)
    80005dfe:	0906                	slli	s2,s2,0x1
    80005e00:	daa0                	sw	s0,112(a3)
    80005e02:	52a12997          	auipc	s3,0x52a12
    80005e06:	60b9                	lui	ra,0xe
    80005e08:	b44a                	fsd	fs2,40(sp)
    80005e0a:	2439                	addiw	s0,s0,14
    80005e0c:	6f58                	ld	a4,152(a4)
    80005e0e:	042a                	slli	s0,s0,0xa
    80005e10:	3cf2                	fld	fs9,312(sp)
    80005e12:	204c44af          	.4byte	0x204c44af
    80005e16:	3f66                	fld	ft10,120(sp)
    80005e18:	a394                	fsd	fa3,0(a5)
    80005e1a:	4fc1                	li	t6,16
    80005e1c:	472e                	lw	a4,200(sp)
    80005e1e:	034e                	slli	t1,t1,0x13
    80005e20:	8cce                	mv	s9,s3
    80005e22:	4c2d                	li	s8,11
    80005e24:	31e3fa47          	fmsub.s	fs4,ft7,ft10,ft6
    80005e28:	7220fd73          	csrrci	s10,0x722,1
    80005e2c:	b8b0                	fsd	fa2,112(s1)
    80005e2e:	3e8d                	addiw	t4,t4,-29
    80005e30:	54b6                	lw	s1,108(sp)
    80005e32:	09a0                	addi	s0,sp,216
    80005e34:	deea                	sw	s10,124(sp)
    80005e36:	04ca                	slli	s1,s1,0x12
    80005e38:	625f 253c 47ff      	.byte	0x5f, 0x62, 0x3c, 0x25, 0xff, 0x47
    80005e3e:	346a                	fld	fs0,184(sp)
    80005e40:	3f95e34b          	.4byte	0x3f95e34b
    80005e44:	049e                	slli	s1,s1,0x7
    80005e46:	51fc                	lw	a5,100(a1)
    80005e48:	5d0e34db          	.4byte	0x5d0e34db
    80005e4c:	2382                	fld	ft7,0(sp)
    80005e4e:	038a                	slli	t2,t2,0x2
    80005e50:	399987cf          	fnmadd.s	fa5,fs3,fs9,ft7,rne
    80005e54:	35d0                	fld	fa2,168(a1)
    80005e56:	79d5                	lui	s3,0xffff5
    80005e58:	2b82                	fld	fs7,0(sp)
    80005e5a:	4638                	lw	a4,72(a2)
    80005e5c:	4e25                	li	t3,9
    80005e5e:	4520                	lw	s0,72(a0)
    80005e60:	dc36                	sw	a3,56(sp)
    80005e62:	115c                	addi	a5,sp,164
    80005e64:	0a50ba03          	ld	s4,165(ra) # e0a5 <buflen.0+0xe065>
    80005e68:	b9a9                	j	80005ac2 <input_data+0xefa>
    80005e6a:	ebc45297          	auipc	t0,0xebc45
    80005e6e:	26dd                	addiw	a3,a3,23
    80005e70:	56e2                	lw	a3,56(sp)
    80005e72:	6b6d                	lui	s6,0x1b
    80005e74:	7dfd                	lui	s11,0xfffff
    80005e76:	5cb9                	li	s9,-18
    80005e78:	18b0                	addi	a2,sp,120
    80005e7a:	2530                	fld	fa2,72(a0)
    80005e7c:	b1a2                	fsd	fs0,224(sp)
    80005e7e:	5e28                	lw	a0,120(a2)
    80005e80:	624efe03          	.4byte	0x624efe03
    80005e84:	10244d23          	.4byte	0x10244d23
    80005e88:	14df5beb          	.4byte	0x14df5beb
    80005e8c:	46d09d13          	.4byte	0x46d09d13
    80005e90:	3548b68b          	.4byte	0x3548b68b
    80005e94:	0dde                	slli	s11,s11,0x17
    80005e96:	1fda                	slli	t6,t6,0x36
    80005e98:	9926                	add	s2,s2,s1
    80005e9a:	3f00                	fld	fs0,56(a4)
    80005e9c:	323a                	fld	ft4,424(sp)
    80005e9e:	48c70dbf 133b7e3c 	.8byte	0x133b7e3c48c70dbf
    80005ea6:	2e6c                	fld	fa1,216(a2)
    80005ea8:	cfda                	sw	s6,220(sp)
    80005eaa:	a4ed0ef3          	.4byte	0xa4ed0ef3
    80005eae:	063c                	addi	a5,sp,776
    80005eb0:	d49f 4f2b b592      	.byte	0x9f, 0xd4, 0x2b, 0x4f, 0x92, 0xb5
    80005eb6:	6f6a                	ld	t5,152(sp)
    80005eb8:	6e24d8eb          	.4byte	0x6e24d8eb
    80005ebc:	6db5                	lui	s11,0xd
    80005ebe:	0f6b128b          	.4byte	0xf6b128b
    80005ec2:	1e30                	addi	a2,sp,824
    80005ec4:	845e                	mv	s0,s7
    80005ec6:	491c6bc7          	fmsub.s	fs7,fs8,fa7,fs1,unknown
    80005eca:	2435                	addiw	s0,s0,13
    80005ecc:	ecf0                	sd	a2,216(s1)
    80005ece:	5ce0                	lw	s0,124(s1)
    80005ed0:	493e456f          	jal	a0,800eab62 <_tbss_end+0xe1f1e>
    80005ed4:	832c                	.2byte	0x832c
    80005ed6:	d0102aef          	jal	s5,7ff08bd6 <buflen.0+0x7ff08b96>
    80005eda:	7501                	lui	a0,0xfffe0
    80005edc:	de19                	beqz	a2,80005dfa <input_data+0x1232>
    80005ede:	3c49                	addiw	s8,s8,-14 # 53806ff2 <buflen.0+0x53806fb2>
    80005ee0:	b8f5                	j	800057dc <input_data+0xc14>
    80005ee2:	47d2                	lw	a5,20(sp)
    80005ee4:	21bf03af          	.4byte	0x21bf03af
    80005ee8:	3dfe                	fld	fs11,504(sp)
    80005eea:	18fa                	slli	a7,a7,0x3e
    80005eec:	7d20                	ld	s0,120(a0)
    80005eee:	99062bf3          	csrrs	s7,0x990,a2
    80005ef2:	ceef1f03          	lh	t5,-786(t5)
    80005ef6:	f9ef67b7          	lui	a5,0xf9ef6
    80005efa:	5ff3644b          	.4byte	0x5ff3644b
    80005efe:	56be                	lw	a3,236(sp)
    80005f00:	69c4                	ld	s1,144(a1)
    80005f02:	7e4a                	ld	t3,176(sp)
    80005f04:	6fa2                	ld	t6,8(sp)
    80005f06:	52b62b7b          	.4byte	0x52b62b7b
    80005f0a:	5d51                	li	s10,-12
    80005f0c:	261f 2b0e 5867      	.byte	0x1f, 0x26, 0x0e, 0x2b, 0x67, 0x58
    80005f12:	2c15                	addiw	s8,s8,5
    80005f14:	34968f93          	addi	t6,a3,841
    80005f18:	b46e                	fsd	fs11,40(sp)
    80005f1a:	3734                	fld	fa3,104(a4)
    80005f1c:	3b99408f          	.4byte	0x3b99408f
    80005f20:	94d2                	add	s1,s1,s4
    80005f22:	7a3f4e8f          	.4byte	0x7a3f4e8f
    80005f26:	6ca90747          	.4byte	0x6ca90747
    80005f2a:	615d                	addi	sp,sp,432
    80005f2c:	3372                	fld	ft6,312(sp)
    80005f2e:	4bae                	lw	s7,200(sp)
    80005f30:	6ad2                	ld	s5,272(sp)
    80005f32:	f67f16a7          	.4byte	0xf67f16a7
    80005f36:	3e38                	fld	fa4,120(a2)
    80005f38:	27ac473b          	.4byte	0x27ac473b
    80005f3c:	3417d43b          	.4byte	0x3417d43b
    80005f40:	74f2                	ld	s1,312(sp)
    80005f42:	2aca                	fld	fs5,144(sp)
    80005f44:	c95e                	sw	s7,144(sp)
    80005f46:	eda17f4b          	.4byte	0xeda17f4b
    80005f4a:	2d68                	fld	fa0,216(a0)
    80005f4c:	25c2                	fld	fa1,16(sp)
    80005f4e:	5fa0                	lw	s0,120(a5)
    80005f50:	e2fd                	bnez	a3,80006036 <input_data+0x146e>
    80005f52:	540d27bb          	.4byte	0x540d27bb
    80005f56:	1e9c                	addi	a5,sp,880
    80005f58:	930e                	add	t1,t1,gp
    80005f5a:	59a5                	li	s3,-23
    80005f5c:	9488                	.2byte	0x9488
    80005f5e:	4349                	li	t1,18
    80005f60:	6e11                	lui	t3,0x4
    80005f62:	05ee                	slli	a1,a1,0x1b
    80005f64:	deec                	sw	a1,124(a3)
    80005f66:	2b16                	fld	fs6,320(sp)
    80005f68:	1714                	addi	a3,sp,928
    80005f6a:	3e6d                	addiw	t3,t3,-5 # 3ffb <buflen.0+0x3fbb>
    80005f6c:	7518                	ld	a4,40(a0)
    80005f6e:	20d0                	fld	fa2,128(s1)
    80005f70:	345c                	fld	fa5,168(s0)
    80005f72:	43c8408b          	.4byte	0x43c8408b
    80005f76:	1144                	addi	s1,sp,164
    80005f78:	68ec                	ld	a1,208(s1)
    80005f7a:	0ce8                	addi	a0,sp,604
    80005f7c:	c688                	sw	a0,8(a3)
    80005f7e:	4602                	lw	a2,0(sp)
    80005f80:	5676                	lw	a2,124(sp)
    80005f82:	3268                	fld	fa0,224(a2)
    80005f84:	c924                	sw	s1,80(a0)
    80005f86:	5ca1                	li	s9,-24
    80005f88:	9562                	add	a0,a0,s8
    80005f8a:	226a                	fld	ft4,152(sp)
    80005f8c:	5b1f 2f1a d05b      	.byte	0x1f, 0x5b, 0x1a, 0x2f, 0x5b, 0xd0
    80005f92:	2845                	addiw	a6,a6,17 # 14011 <buflen.0+0x13fd1>
    80005f94:	78f220af          	.4byte	0x78f220af
    80005f98:	8960                	.2byte	0x8960
    80005f9a:	099f a911 0da5      	.byte	0x9f, 0x09, 0x11, 0xa9, 0xa5, 0x0d
    80005fa0:	2c54a803          	lw	a6,709(s1)
    80005fa4:	9ad6                	add	s5,s5,s5
    80005fa6:	50a2                	lw	ra,40(sp)
    80005fa8:	3314                	fld	fa3,32(a4)
    80005faa:	7e90                	ld	a2,56(a3)
    80005fac:	a565                	j	80006654 <input_data+0x1a8c>
    80005fae:	32cd                	addiw	t0,t0,-13 # 6bc4ae5d <buflen.0+0x6bc4ae1d>
    80005fb0:	2ba0                	fld	fs0,80(a5)
    80005fb2:	4cf4                	lw	a3,92(s1)
    80005fb4:	c174                	sw	a3,68(a0)
    80005fb6:	1abe                	slli	s5,s5,0x2f
    80005fb8:	4bc0                	lw	s0,20(a5)
    80005fba:	2af7746f          	jal	s0,8007da68 <_tbss_end+0x74e24>
    80005fbe:	9973370b          	.4byte	0x9973370b
    80005fc2:	3152                	fld	ft2,304(sp)
    80005fc4:	aba4                	fsd	fs1,80(a5)
    80005fc6:	431d                	li	t1,7
    80005fc8:	b420                	fsd	fs0,104(s0)
    80005fca:	0bcc                	addi	a1,sp,468
    80005fcc:	8f9a                	mv	t6,t1
    80005fce:	10c4                	addi	s1,sp,100
    80005fd0:	45da2b4b          	.4byte	0x45da2b4b
    80005fd4:	7cb6                	ld	s9,360(sp)
    80005fd6:	ed702d97          	auipc	s11,0xed702
    80005fda:	2381                	sext.w	t2,t2
    80005fdc:	2954                	fld	fa3,144(a0)
    80005fde:	7ef4                	ld	a3,248(a3)
    80005fe0:	1f9c                	addi	a5,sp,1008
    80005fe2:	55a9                	li	a1,-22
    80005fe4:	5646a03f 2d08d921 	.8byte	0x2d08d9215646a03f
    80005fec:	a5cd                	j	800066ce <input_data+0x1b06>
    80005fee:	7f02                	ld	t5,32(sp)
    80005ff0:	fa38                	sd	a4,112(a2)
    80005ff2:	6d62                	ld	s10,24(sp)
    80005ff4:	754a                	ld	a0,176(sp)
    80005ff6:	89185c3f 35c46e96 	.8byte	0x35c46e9689185c3f
    80005ffe:	398c                	fld	fa1,48(a1)
    80006000:	d6ad                	beqz	a3,80005f6a <input_data+0x13a2>
    80006002:	2812                	fld	fa6,256(sp)
    80006004:	3aae                	fld	fs5,232(sp)
    80006006:	0ae2                	slli	s5,s5,0x18
    80006008:	8aa1                	andi	a3,a3,8
    8000600a:	0ce6                	slli	s9,s9,0x19
    8000600c:	aeb6                	fsd	fa3,344(sp)
    8000600e:	4ef5                	li	t4,29
    80006010:	463a                	lw	a2,140(sp)
    80006012:	443a                	lw	s0,140(sp)
    80006014:	2e78                	fld	fa4,216(a2)
    80006016:	1b16                	slli	s6,s6,0x25
    80006018:	48bfb5ef          	jal	a1,80101ca2 <_tbss_end+0xf905e>
    8000601c:	e4a2                	sd	s0,72(sp)
    8000601e:	5aa6                	lw	s5,104(sp)
    80006020:	d36e                	sw	s11,164(sp)
    80006022:	6b25                	lui	s6,0x9
    80006024:	f286                	sd	ra,352(sp)
    80006026:	5e79                	li	t3,-2
    80006028:	2c50                	fld	fa2,152(s0)
    8000602a:	2f82                	fld	ft11,0(sp)
    8000602c:	9de8                	.2byte	0x9de8
    8000602e:	6c91                	lui	s9,0x4
    80006030:	e55e                	sd	s7,136(sp)
    80006032:	68357ed7          	.4byte	0x68357ed7
    80006036:	3a04                	fld	fs1,48(a2)
    80006038:	cef1                	beqz	a3,80006114 <input_data+0x154c>
    8000603a:	3b1e                	fld	fs6,480(sp)
    8000603c:	a34d                	j	800065de <input_data+0x1a16>
    8000603e:	2880                	fld	fs0,16(s1)
    80006040:	74ec5c83          	lhu	s9,1870(s8)
    80006044:	5531                	li	a0,-20
    80006046:	7cd2                	ld	s9,304(sp)
    80006048:	1753184b          	.4byte	0x1753184b
    8000604c:	8e1a                	mv	t3,t1
    8000604e:	5fa0                	lw	s0,120(a5)
    80006050:	e330                	sd	a2,64(a4)
    80006052:	2262                	fld	ft4,24(sp)
    80006054:	436d                	li	t1,27
    80006056:	6610                	ld	a2,8(a2)
    80006058:	e22a                	sd	a0,256(sp)
    8000605a:	1488                	addi	a0,sp,608
    8000605c:	1664                	addi	s1,sp,812
    8000605e:	42ec                	lw	a1,68(a3)
    80006060:	62e38bab          	.4byte	0x62e38bab
    80006064:	2e2c                	fld	fa1,88(a2)
    80006066:	4f35                	li	t5,13
    80006068:	4258                	lw	a4,4(a2)
    8000606a:	02e8                	addi	a0,sp,332
    8000606c:	c368                	sw	a0,68(a4)
    8000606e:	f5ee0ebf ae3b6d70 	.8byte	0xae3b6d70f5ee0ebf
    80006076:	5d39                	li	s10,-18
    80006078:	47ea                	lw	a5,152(sp)
    8000607a:	52a2                	lw	t0,40(sp)
    8000607c:	000d                	c.nop	3
    8000607e:	1cf5                	addi	s9,s9,-3 # 3ffd <buflen.0+0x3fbd>
    80006080:	d6fc                	sw	a5,108(a3)
    80006082:	0234                	addi	a3,sp,264
    80006084:	7742                	ld	a4,48(sp)
    80006086:	1540                	addi	s0,sp,676
    80006088:	0326                	slli	t1,t1,0x9
    8000608a:	63de                	ld	t2,464(sp)
    8000608c:	19a2b58b          	.4byte	0x19a2b58b
    80006090:	5bd8                	lw	a4,52(a5)
    80006092:	182e74c7          	fmsub.s	fs1,ft8,ft2,ft3
    80006096:	6a60                	ld	s0,208(a2)
    80006098:	6d9de20f          	.4byte	0x6d9de20f
    8000609c:	ae28                	fsd	fa0,88(a2)
    8000609e:	5f21                	li	t5,-24
    800060a0:	119f8227          	.4byte	0x119f8227
    800060a4:	10d2                	slli	ra,ra,0x34
    800060a6:	0b8f180b          	.4byte	0xb8f180b
    800060aa:	7e0a                	ld	t3,160(sp)
    800060ac:	2220                	fld	fs0,64(a2)
    800060ae:	5a55                	li	s4,-11
    800060b0:	2062                	fld	ft0,24(sp)
    800060b2:	5be2                	lw	s7,56(sp)
    800060b4:	56126e87          	.4byte	0x56126e87
    800060b8:	0341                	addi	t1,t1,16
    800060ba:	486d                	li	a6,27
    800060bc:	f0a0                	sd	s0,96(s1)
    800060be:	f7b7649b          	.4byte	0xf7b7649b
    800060c2:	5c26                	lw	s8,104(sp)
    800060c4:	420c                	lw	a1,0(a2)
    800060c6:	7190                	ld	a2,32(a1)
    800060c8:	7fd8                	ld	a4,184(a5)
    800060ca:	207a                	fld	ft0,408(sp)
    800060cc:	26e9                	addiw	a3,a3,26
    800060ce:	7b55                	lui	s6,0xffff5
    800060d0:	c97d                	beqz	a0,800061c6 <input_data+0x15fe>
    800060d2:	64a6                	ld	s1,72(sp)
    800060d4:	6075                	c.lui	zero,0x1d
    800060d6:	544a                	lw	s0,176(sp)
    800060d8:	13ccfe2f          	.4byte	0x13ccfe2f
    800060dc:	25aa979b          	.4byte	0x25aa979b
    800060e0:	193b0a53          	fdiv.s	fs4,fs6,fs3,rne
    800060e4:	4f730137          	lui	sp,0x4f730
    800060e8:	3aed                	addiw	s5,s5,-5 # dffb <buflen.0+0xdfbb>
    800060ea:	2085                	addiw	ra,ra,1
    800060ec:	6408                	ld	a0,8(s0)
    800060ee:	127e                	slli	tp,tp,0x3f
    800060f0:	6cd4                	ld	a3,152(s1)
    800060f2:	eb5f3947          	fmsub.d	fs2,ft10,fs5,ft9,rup
    800060f6:	5cd41633          	.4byte	0x5cd41633
    800060fa:	79c3733f 1df96604 	.8byte	0x1df9660479c3733f
    80006102:	03e500af          	.4byte	0x3e500af
    80006106:	094a                	slli	s2,s2,0x12
    80006108:	29c439a7          	fsd	ft8,659(s0)
    8000610c:	263e                	fld	fa2,456(sp)
    8000610e:	56df 2d0a 4efb      	.byte	0xdf, 0x56, 0x0a, 0x2d, 0xfb, 0x4e
    80006114:	2f1a                	fld	ft10,384(sp)
    80006116:	0a42                	slli	s4,s4,0x10
    80006118:	bfb6                	fsd	fa3,504(sp)
    8000611a:	2799                	addiw	a5,a5,6 # fffffffff9ef6006 <dram_end_address_reg+0xffffffff29ef5ff6>
    8000611c:	65a60287          	.4byte	0x65a60287
    80006120:	3942                	fld	fs2,48(sp)
    80006122:	1675                	addi	a2,a2,-3
    80006124:	973c                	.2byte	0x973c
    80006126:	57c5                	li	a5,-15
    80006128:	2e08                	fld	fa0,24(a2)
    8000612a:	147c                	addi	a5,sp,556
    8000612c:	9932                	add	s2,s2,a2
    8000612e:	51b0                	lw	a2,96(a1)
    80006130:	1efe                	slli	t4,t4,0x3f
    80006132:	0fd1                	addi	t6,t6,20
    80006134:	8a2c                	.2byte	0x8a2c
    80006136:	7bf2                	ld	s7,312(sp)
    80006138:	6522                	ld	a0,8(sp)
    8000613a:	6b7a                	ld	s6,408(sp)
    8000613c:	4855                	li	a6,21
    8000613e:	1ef2                	slli	t4,t4,0x3c
    80006140:	fea1                	bnez	a3,80006098 <input_data+0x14d0>
    80006142:	5bb1                	li	s7,-20
    80006144:	4038                	lw	a4,64(s0)
    80006146:	7320                	ld	s0,96(a4)
    80006148:	3a7a                	fld	fs4,440(sp)
    8000614a:	468a                	lw	a3,128(sp)
    8000614c:	58cb01ab          	.4byte	0x58cb01ab
    80006150:	9709                	srai	a4,a4,0x22
    80006152:	1d82                	slli	s11,s11,0x20
    80006154:	2fbefe13          	andi	t3,t4,763
    80006158:	5874                	lw	a3,116(s0)
    8000615a:	0a8e                	slli	s5,s5,0x3
    8000615c:	4d08aadb          	.4byte	0x4d08aadb
    80006160:	8da5                	xor	a1,a1,s1
    80006162:	505e                	.2byte	0x505e
    80006164:	5c6b23e3          	.4byte	0x5c6b23e3
    80006168:	d515                	beqz	a0,80006094 <input_data+0x14cc>
    8000616a:	2995                	addiw	s3,s3,5 # ffffffffffff5005 <dram_end_address_reg+0xffffffff2fff4ff5>
    8000616c:	ffd4                	sd	a3,184(a5)
    8000616e:	330e                	fld	ft6,224(sp)
    80006170:	76c9de3b          	.4byte	0x76c9de3b
    80006174:	db78                	sw	a4,116(a4)
    80006176:	46e0                	lw	s0,76(a3)
    80006178:	0d36494b          	.4byte	0xd36494b
    8000617c:	0957f94f          	fnmadd.s	fs2,fa5,fs5,ft1
    80006180:	4c36                	lw	s8,76(sp)
    80006182:	024d                	addi	tp,tp,19 # 13 <buf.1+0x13>
    80006184:	379a                	fld	fa5,416(sp)
    80006186:	d2d71667          	.4byte	0xd2d71667
    8000618a:	d9767be3          	bgeu	a2,s7,80005f20 <input_data+0x1358>
    8000618e:	7d5c                	ld	a5,184(a0)
    80006190:	14624fa3          	.4byte	0x14624fa3
    80006194:	29a4b67b          	.4byte	0x29a4b67b
    80006198:	0ad6                	slli	s5,s5,0x15
    8000619a:	20a316b7          	lui	a3,0x20a31
    8000619e:	4798                	lw	a4,8(a5)
    800061a0:	97d2                	add	a5,a5,s4
    800061a2:	4c06                	lw	s8,64(sp)
    800061a4:	394c                	fld	fa1,176(a0)
    800061a6:	17bc                	addi	a5,sp,1000
    800061a8:	2fc79aeb          	.4byte	0x2fc79aeb
    800061ac:	cc41                	beqz	s0,80006244 <input_data+0x167c>
    800061ae:	40d2                	lw	ra,20(sp)
    800061b0:	dd86                	sw	ra,248(sp)
    800061b2:	3276                	fld	ft4,376(sp)
    800061b4:	a2ea                	fsd	fs10,320(sp)
    800061b6:	6e30                	ld	a2,88(a2)
    800061b8:	4cc2bb0b          	.4byte	0x4cc2bb0b
    800061bc:	537361cf          	fnmadd.d	ft3,ft6,fs7,fa0,unknown
    800061c0:	5ed6                	lw	t4,116(sp)
    800061c2:	5f92                	lw	t6,36(sp)
    800061c4:	6fb9                	lui	t6,0xe
    800061c6:	497e                	lw	s2,220(sp)
    800061c8:	81e5                	srli	a1,a1,0x19
    800061ca:	6803304f          	fnmadd.s	ft0,ft6,ft0,fa3,rup
    800061ce:	fea4292b          	.4byte	0xfea4292b
    800061d2:	b88a6ee3          	bltu	s4,s0,80005d6e <input_data+0x11a6>
    800061d6:	2cbd                	addiw	s9,s9,15
    800061d8:	91ec                	.2byte	0x91ec
    800061da:	100b4bc7          	fmsub.s	fs7,fs6,ft0,ft2,rmm
    800061de:	3348                	fld	fa0,160(a4)
    800061e0:	a1b8                	fsd	fa4,64(a1)
    800061e2:	32b546e3          	blt	a0,a1,80006d0e <scratch.0+0x146>
    800061e6:	7214                	ld	a3,32(a2)
    800061e8:	4d02                	lw	s10,0(sp)
    800061ea:	3869                	addiw	a6,a6,-6
    800061ec:	f0ee                	sd	s11,96(sp)
    800061ee:	6c34                	ld	a3,88(s0)
    800061f0:	0379                	addi	t1,t1,30
    800061f2:	2c52                	fld	fs8,272(sp)
    800061f4:	df4c                	sw	a1,60(a4)
    800061f6:	7165                	addi	sp,sp,-400
    800061f8:	58c2                	lw	a7,48(sp)
    800061fa:	4c11                	li	s8,4
    800061fc:	d711                	beqz	a4,80006108 <input_data+0x1540>
    800061fe:	dc48778b          	.4byte	0xdc48778b
    80006202:	253a                	fld	fa0,392(sp)
    80006204:	3b66                	fld	fs6,120(sp)
    80006206:	7dac                	ld	a1,120(a1)
    80006208:	dd6a                	sw	s10,184(sp)
    8000620a:	c9d6745b          	.4byte	0xc9d6745b
    8000620e:	397a                	fld	fs2,440(sp)
    80006210:	d378                	sw	a4,100(a4)
    80006212:	45cc                	lw	a1,12(a1)
    80006214:	7ec6e397          	auipc	t2,0x7ec6e
    80006218:	8964                	.2byte	0x8964
    8000621a:	306a                	fld	ft0,184(sp)
    8000621c:	895f 0679 56ec      	.byte	0x5f, 0x89, 0x79, 0x06, 0xec, 0x56
    80006222:	3a74                	fld	fa3,240(a2)
    80006224:	bc82                	fsd	ft0,120(sp)
    80006226:	2a95                	addiw	s5,s5,5
    80006228:	6413036f          	jal	t1,80037068 <_tbss_end+0x2e424>
    8000622c:	e670                	sd	a2,200(a2)
    8000622e:	7359                	lui	t1,0xffff6
    80006230:	0e1e124f          	.4byte	0xe1e124f
    80006234:	d285                	beqz	a3,80006154 <input_data+0x158c>
    80006236:	156e5bdb          	.4byte	0x156e5bdb
    8000623a:	3f8a                	fld	ft11,160(sp)
    8000623c:	7672                	ld	a2,312(sp)
    8000623e:	5fd2                	lw	t6,52(sp)
    80006240:	5fea                	lw	t6,184(sp)
    80006242:	429272d7          	.4byte	0x429272d7
    80006246:	79cd38eb          	.4byte	0x79cd38eb
    8000624a:	675a                	ld	a4,400(sp)
    8000624c:	4595                	li	a1,5
    8000624e:	00d9                	addi	ra,ra,22
    80006250:	ad26                	fsd	fs1,152(sp)
    80006252:	59ce                	lw	s3,240(sp)
    80006254:	9e1e                	add	t3,t3,t2
    80006256:	328d                	addiw	t0,t0,-29
    80006258:	d58c                	sw	a1,40(a1)
    8000625a:	463a                	lw	a2,140(sp)
    8000625c:	490d                	li	s2,3
    8000625e:	249c                	fld	fa5,8(s1)
    80006260:	6ca0                	ld	s0,88(s1)
    80006262:	5c312b9b          	.4byte	0x5c312b9b
    80006266:	5a21                	li	s4,-24
    80006268:	08ea                	slli	a7,a7,0x1a
    8000626a:	03c5                	addi	t2,t2,17 # fec74225 <dram_end_address_reg+0x2ec74215>
    8000626c:	737c                	ld	a5,224(a4)
    8000626e:	cfe139bf 099e6a54 	.8byte	0x99e6a54cfe139bf
    80006276:	539c                	lw	a5,32(a5)
    80006278:	a0ae                	fsd	fa1,64(sp)
    8000627a:	50c9                	li	ra,-14
    8000627c:	62e46d6f          	jal	s10,8004c8aa <_tbss_end+0x43c66>
    80006280:	22c2                	fld	ft5,16(sp)
    80006282:	45f8                	lw	a4,76(a1)
    80006284:	0a4d                	addi	s4,s4,19
    80006286:	3e2a                	fld	ft8,168(sp)
    80006288:	d214                	sw	a3,32(a2)
    8000628a:	4e9c                	lw	a5,24(a3)
    8000628c:	1402                	slli	s0,s0,0x20
    8000628e:	447e                	lw	s0,220(sp)
    80006290:	7c93425b          	.4byte	0x7c93425b
    80006294:	ddb4                	sw	a3,120(a1)
    80006296:	479f 0b53 0ee7      	.byte	0x9f, 0x47, 0x53, 0x0b, 0xe7, 0x0e
    8000629c:	ffa0                	sd	s0,120(a5)
    8000629e:	3db1                	addiw	s11,s11,-20 # 6d707fc2 <buflen.0+0x6d707f82>
    800062a0:	49a5                	li	s3,9
    800062a2:	2835                	addiw	a6,a6,13
    800062a4:	f865                	bnez	s0,80006294 <input_data+0x16cc>
    800062a6:	40fd                	li	ra,31
    800062a8:	73d9c2c7          	fmsub.d	ft5,fs3,ft9,fa4,rmm
    800062ac:	74e5                	lui	s1,0xffff9
    800062ae:	37ac                	fld	fa1,104(a5)
    800062b0:	7c6f2dab          	.4byte	0x7c6f2dab
    800062b4:	64c0                	ld	s0,136(s1)
    800062b6:	cec02c07          	flw	fs8,-788(zero) # fffffffffffffcec <dram_end_address_reg+0xffffffff2ffffcdc>
    800062ba:	4dc9                	li	s11,18
    800062bc:	41a4                	lw	s1,64(a1)
    800062be:	a371056f          	jal	a0,7ff16cf4 <buflen.0+0x7ff16cb4>
    800062c2:	7cc865cf          	.4byte	0x7cc865cf
    800062c6:	647c                	ld	a5,200(s0)
    800062c8:	15bb2fe7          	.4byte	0x15bb2fe7
    800062cc:	6eea2803          	lw	a6,1774(s4)
    800062d0:	4961                	li	s2,24
    800062d2:	72e1                	lui	t0,0xffff8
    800062d4:	360e2f13          	slti	t5,t3,864
    800062d8:	40fed847          	fmsub.s	fa6,ft9,fa5,fs0,unknown
    800062dc:	99c5                	andi	a1,a1,-15
    800062de:	ae6e3533          	.4byte	0xae6e3533
    800062e2:	60db7567          	.4byte	0x60db7567
    800062e6:	98ff6fb3          	.4byte	0x98ff6fb3
    800062ea:	3741                	addiw	a4,a4,-16 # ffffffffffff0ff0 <dram_end_address_reg+0xffffffff2fff0fe0>
    800062ec:	a5a0                	fsd	fs0,72(a1)
    800062ee:	4522                	lw	a0,8(sp)
    800062f0:	70c8                	ld	a0,160(s1)
    800062f2:	1f332b87          	flw	fs7,499(t1) # ffffffffffff61f3 <dram_end_address_reg+0xffffffff2fff61e3>
    800062f6:	14d1                	addi	s1,s1,-12 # ffffffffffff8ff4 <dram_end_address_reg+0xffffffff2fff8fe4>
    800062f8:	12f40083          	lb	ra,303(s0)
    800062fc:	18cd                	addi	a7,a7,-13 # fffffffffffe1ff3 <dram_end_address_reg+0xffffffff2ffe1fe3>
    800062fe:	4e3b0d77          	.4byte	0x4e3b0d77
    80006302:	71531ccf          	fnmadd.s	fs9,ft6,fs5,fa4,rtz
    80006306:	938a3dbf f69e0e65 	.8byte	0xf69e0e65938a3dbf
    8000630e:	4c4a                	lw	s8,144(sp)
    80006310:	4a5ba023          	sw	t0,1184(s7)
    80006314:	be14                	fsd	fa3,56(a2)
    80006316:	6a980ebf 88496aea 	.8byte	0x88496aea6a980ebf
    8000631e:	2cd8                	fld	fa4,152(s1)
    80006320:	112b5d0f          	.4byte	0x112b5d0f
    80006324:	d676                	sw	t4,44(sp)
    80006326:	7b96                	ld	s7,352(sp)
    80006328:	7988de27          	.4byte	0x7988de27
    8000632c:	24d266c3          	.4byte	0x24d266c3
    80006330:	59f1                	li	s3,-4
    80006332:	19d5                	addi	s3,s3,-11
    80006334:	d75f 1dcb 8b75      	.byte	0x5f, 0xd7, 0xcb, 0x1d, 0x75, 0x8b
    8000633a:	3e9d                	addiw	t4,t4,-25
    8000633c:	13bf00c7          	fmsub.d	ft1,ft10,fs11,ft2,rne
    80006340:	24ff                	.2byte	0x24ff
    80006342:	32be                	fld	ft5,488(sp)
    80006344:	345f 4d2e 9be5      	.byte	0x5f, 0x34, 0x2e, 0x4d, 0xe5, 0x9b
    8000634a:	663e                	ld	a2,456(sp)
    8000634c:	3ef5                	addiw	t4,t4,-3
    8000634e:	451f 742a 3d5a      	.byte	0x1f, 0x45, 0x2a, 0x74, 0x5a, 0x3d
    80006354:	5dae                	lw	s11,232(sp)
    80006356:	78d8                	ld	a4,176(s1)
    80006358:	628bd913          	.4byte	0x628bd913
    8000635c:	6fc00817          	auipc	a6,0x6fc00
    80006360:	c139                	beqz	a0,800063a6 <input_data+0x17de>
    80006362:	9338498f          	.4byte	0x9338498f
    80006366:	0f89                	addi	t6,t6,2 # e002 <buflen.0+0xdfc2>
    80006368:	3e27b777          	.4byte	0x3e27b777
    8000636c:	8780                	.2byte	0x8780
    8000636e:	5390                	lw	a2,32(a5)
    80006370:	4d81                	li	s11,0
    80006372:	2b84                	fld	fs1,16(a5)
    80006374:	96cd                	srai	a3,a3,0x33
    80006376:	6808                	ld	a0,16(s0)
    80006378:	21b4                	fld	fa3,64(a1)
    8000637a:	5c6e                	lw	s8,248(sp)
    8000637c:	378e                	fld	fa5,224(sp)
    8000637e:	67435fd3          	.4byte	0x67435fd3
    80006382:	39c9                	addiw	s3,s3,-14
    80006384:	0f7c                	addi	a5,sp,924
    80006386:	2e6a                	fld	ft8,152(sp)
    80006388:	6e7e                	ld	t3,472(sp)
    8000638a:	6940                	ld	s0,144(a0)
    8000638c:	d24e                	sw	s3,36(sp)
    8000638e:	2b9d                	addiw	s7,s7,7
    80006390:	6aa2                	ld	s5,8(sp)
    80006392:	5f5e                	lw	t5,244(sp)
    80006394:	8ffa                	mv	t6,t5
    80006396:	74b0                	ld	a2,104(s1)
    80006398:	000a8b27          	.4byte	0xa8b27
    8000639c:	6a3e                	ld	s4,456(sp)
    8000639e:	1a7c                	addi	a5,sp,316
    800063a0:	4c38983f 4969523d 	.8byte	0x4969523d4c38983f
    800063a8:	04c5                	addi	s1,s1,17
    800063aa:	239c                	fld	fa5,0(a5)
    800063ac:	0d2d                	addi	s10,s10,11 # 1700b <buflen.0+0x16fcb>
    800063ae:	40ce                	lw	ra,208(sp)
    800063b0:	0f637b73          	csrrci	s6,0xf6,6
    800063b4:	da26                	sw	s1,52(sp)
    800063b6:	3a007cc7          	fmsub.d	fs9,ft0,ft0,ft7
    800063ba:	5730                	lw	a2,104(a4)
    800063bc:	7b35733f 610f3a28 	.8byte	0x610f3a287b35733f
    800063c4:	2d73d15b          	.4byte	0x2d73d15b
    800063c8:	9f7d                	.2byte	0x9f7d
    800063ca:	5c0d472b          	.4byte	0x5c0d472b
    800063ce:	505e                	.2byte	0x505e
    800063d0:	c854                	sw	a3,20(s0)
    800063d2:	6c9d                	lui	s9,0x7
    800063d4:	8e32                	mv	t3,a2
    800063d6:	6cdf a0e2 4248      	.byte	0xdf, 0x6c, 0xe2, 0xa0, 0x48, 0x42
    800063dc:	5be8                	lw	a0,116(a5)
    800063de:	7c80                	ld	s0,56(s1)
    800063e0:	9914                	.2byte	0x9914
    800063e2:	3095                	addiw	ra,ra,-27
    800063e4:	d7c8                	sw	a0,44(a5)
    800063e6:	74b2                	ld	s1,296(sp)
    800063e8:	4885                	li	a7,1
    800063ea:	40cd                	li	ra,19
    800063ec:	3491fb3f 73f00760 	.8byte	0x73f007603491fb3f
    800063f4:	9932                	add	s2,s2,a2
    800063f6:	62bc                	ld	a5,64(a3)
    800063f8:	1f8b77b7          	lui	a5,0x1f8b7
    800063fc:	082b2a17          	auipc	s4,0x82b2
    80006400:	5071                	c.li	zero,-4
    80006402:	55cb1f23          	sh	t3,1374(s6) # ffffffffffff555e <dram_end_address_reg+0xffffffff2fff554e>
    80006406:	19a67017          	auipc	zero,0x19a67
    8000640a:	3280                	fld	fs0,32(a3)
    8000640c:	29b6                	fld	fs3,328(sp)
    8000640e:	32c4                	fld	fs1,160(a3)
    80006410:	99ac                	.2byte	0x99ac
    80006412:	50ad372b          	.4byte	0x50ad372b
    80006416:	5af33dd7          	.4byte	0x5af33dd7
    8000641a:	1b82                	slli	s7,s7,0x20
    8000641c:	2e64                	fld	fs1,216(a2)
    8000641e:	4f6e                	lw	t5,216(sp)
    80006420:	1c49                	addi	s8,s8,-14
    80006422:	1f54                	addi	a3,sp,948
    80006424:	52d6793b          	.4byte	0x52d6793b
    80006428:	8fd1                	or	a5,a5,a2
    8000642a:	433a                	lw	t1,140(sp)
    8000642c:	1b49                	addi	s6,s6,-14
    8000642e:	4775                	li	a4,29
    80006430:	3085                	addiw	ra,ra,-31
    80006432:	3339                	addiw	t1,t1,-18
    80006434:	4eda                	lw	t4,148(sp)
    80006436:	2a21                	addiw	s4,s4,8 # ffffffff882b8404 <dram_end_address_reg+0xfffffffeb82b83f4>
    80006438:	12d6                	slli	t0,t0,0x35
    8000643a:	1629                	addi	a2,a2,-22
    8000643c:	da71                	beqz	a2,80006410 <input_data+0x1848>
    8000643e:	08ad                	addi	a7,a7,11
    80006440:	9280                	.2byte	0x9280
    80006442:	270d                	addiw	a4,a4,3
    80006444:	71490dbf 4f800661 	.8byte	0x4f80066171490dbf
    8000644c:	41aaf2ef          	jal	t0,800b5866 <_tbss_end+0xacc22>
    80006450:	dab4                	sw	a3,112(a3)
    80006452:	4c38                	lw	a4,88(s0)
    80006454:	7c9296e3          	bne	t0,s1,80007420 <__global_pointer$+0x58>
    80006458:	82a8                	.2byte	0x82a8
    8000645a:	1f1d4497          	auipc	s1,0x1f1d4
    8000645e:	00c9                	addi	ra,ra,18
    80006460:	c412                	sw	tp,8(sp)
    80006462:	598a                	lw	s3,160(sp)
    80006464:	a514                	fsd	fa3,8(a0)
    80006466:	41be                	lw	gp,204(sp)
    80006468:	5a5e                	lw	s4,244(sp)
    8000646a:	1472                	slli	s0,s0,0x3c
    8000646c:	c500                	sw	s0,8(a0)
    8000646e:	711f 79bb 601e      	.byte	0x1f, 0x71, 0xbb, 0x79, 0x1e, 0x60
    80006474:	0125                	addi	sp,sp,9 # 4f730009 <buflen.0+0x4f72ffc9>
    80006476:	481f 3ffd 67c2      	.byte	0x1f, 0x48, 0xfd, 0x3f, 0xc2, 0x67
    8000647c:	52ca                	lw	t0,176(sp)
    8000647e:	61fd                	lui	gp,0x1f
    80006480:	c658                	sw	a4,12(a2)
    80006482:	3a42                	fld	fs4,48(sp)
    80006484:	8746                	mv	a4,a7
    80006486:	2ef5                	addiw	t4,t4,29
    80006488:	b5b6                	fsd	fa3,232(sp)
    8000648a:	09bc                	addi	a5,sp,216
    8000648c:	a17a                	fsd	ft10,128(sp)
    8000648e:	40d5                	li	ra,21
    80006490:	9f16                	add	t5,t5,t0
    80006492:	ef6e0bef          	jal	s7,7ffe6b88 <buflen.0+0x7ffe6b48>
    80006496:	64d4                	ld	a3,136(s1)
    80006498:	d1f1                	beqz	a1,8000645c <input_data+0x1894>
    8000649a:	157e                	slli	a0,a0,0x3f
    8000649c:	9f9f 6a88 2442      	.byte	0x9f, 0x9f, 0x88, 0x6a, 0x42, 0x24
    800064a2:	021f 6af4 3108      	.byte	0x1f, 0x02, 0xf4, 0x6a, 0x08, 0x31
    800064a8:	8282                	jr	t0
    800064aa:	6d54                	ld	a3,152(a0)
    800064ac:	a63a                	fsd	fa4,264(sp)
    800064ae:	51c9                	li	gp,-14
    800064b0:	d17c                	sw	a5,100(a0)
    800064b2:	493e3f67          	.4byte	0x493e3f67
    800064b6:	3a06                	fld	fs4,96(sp)
    800064b8:	2998986b          	.4byte	0x2998986b
    800064bc:	f9c1                	bnez	a1,8000644c <input_data+0x1884>
    800064be:	379b0953          	.4byte	0x379b0953
    800064c2:	f5910a17          	auipc	s4,0xf5910
    800064c6:	0ac2                	slli	s5,s5,0x10
    800064c8:	8648                	.2byte	0x8648
    800064ca:	06ad                	addi	a3,a3,11 # 20a3100b <buflen.0+0x20a30fcb>
    800064cc:	079f193f 0e683a1d 	.8byte	0xe683a1d079f193f
    800064d4:	c005                	beqz	s0,800064f4 <input_data+0x192c>
    800064d6:	777c                	ld	a5,232(a4)
    800064d8:	01635b5b          	.4byte	0x1635b5b
    800064dc:	770d9d97          	auipc	s11,0x770d9
    800064e0:	6a49                	lui	s4,0x12
    800064e2:	2be5                	addiw	s7,s7,25
    800064e4:	039c                	addi	a5,sp,448
    800064e6:	766e                	ld	a2,248(sp)
    800064e8:	2534                	fld	fa3,72(a0)
    800064ea:	5d9e                	lw	s11,228(sp)
    800064ec:	8ae9                	andi	a3,a3,26
    800064ee:	b9e37b3b          	.4byte	0xb9e37b3b
    800064f2:	5b6b5737          	lui	a4,0x5b6b5
    800064f6:	08da                	slli	a7,a7,0x16
    800064f8:	81fd                	srli	a1,a1,0x1f
    800064fa:	24d8                	fld	fa4,136(s1)
    800064fc:	160e                	slli	a2,a2,0x23
    800064fe:	663d                	lui	a2,0xf
    80006500:	7b2b5f8b          	.4byte	0x7b2b5f8b
    80006504:	b8ee                	fsd	fs11,112(sp)
    80006506:	7e44                	ld	s1,184(a2)
    80006508:	cd60                	sw	s0,92(a0)
    8000650a:	0bd0                	addi	a2,sp,468
    8000650c:	003e                	c.slli	zero,0xf
    8000650e:	6d6d                	lui	s10,0x1b
    80006510:	503866b3          	.4byte	0x503866b3
    80006514:	4d82                	lw	s11,0(sp)
    80006516:	f2147167          	.4byte	0xf2147167
    8000651a:	cad274eb          	.4byte	0xcad274eb
    8000651e:	4cf9                	li	s9,30
    80006520:	4efa053b          	.4byte	0x4efa053b
    80006524:	58ee                	lw	a7,248(sp)
    80006526:	8a0b31e3          	.4byte	0x8a0b31e3
    8000652a:	25246e3f 70ab1dd3 	.8byte	0x70ab1dd325246e3f
    80006532:	0f155f57          	.4byte	0xf155f57
    80006536:	65ae                	ld	a1,200(sp)
    80006538:	9731                	srai	a4,a4,0x2c
    8000653a:	5f65                	li	t5,-7
    8000653c:	1692                	slli	a3,a3,0x24
    8000653e:	170d                	addi	a4,a4,-29 # 5b6b4fe3 <buflen.0+0x5b6b4fa3>
    80006540:	8d0c                	.2byte	0x8d0c
    80006542:	3d52                	fld	fs10,304(sp)
    80006544:	e6d2                	sd	s4,328(sp)
    80006546:	6320                	ld	s0,64(a4)
    80006548:	4ed6bee3          	.4byte	0x4ed6bee3
    8000654c:	86a0                	.2byte	0x86a0
    8000654e:	5864                	lw	s1,116(s0)
    80006550:	411c6f63          	bltu	s8,a7,8000696e <input_data+0x1da6>
    80006554:	c3dd                	beqz	a5,800065fa <input_data+0x1a32>
    80006556:	6366                	ld	t1,88(sp)
    80006558:	91ec                	.2byte	0x91ec
    8000655a:	752c                	ld	a1,104(a0)
    8000655c:	e53c                	sd	a5,72(a0)
    8000655e:	3f68                	fld	fa0,248(a4)
    80006560:	67d54dcb          	.4byte	0x67d54dcb
    80006564:	8de8                	.2byte	0x8de8
    80006566:	11e4                	addi	s1,sp,236
    80006568:	0b3d                	addi	s6,s6,15
    8000656a:	24fc                	fld	fa5,200(s1)
    8000656c:	d51d                	beqz	a0,8000649a <input_data+0x18d2>
    8000656e:	1e08                	addi	a0,sp,816
    80006570:	172d                	addi	a4,a4,-21
    80006572:	7cdd                	lui	s9,0xffff7
    80006574:	3752e6c7          	.4byte	0x3752e6c7
    80006578:	0f29                	addi	t5,t5,10
    8000657a:	1091                	addi	ra,ra,-28
    8000657c:	da45                	beqz	a2,8000652c <input_data+0x1964>
    8000657e:	8c9f63fb          	.4byte	0x8c9f63fb
    80006582:	d1cb4a73          	.4byte	0xd1cb4a73
    80006586:	55582fa7          	fsw	fs5,1375(a6) # efc068bb <dram_end_address_reg+0x1fc068ab>
    8000658a:	4656                	lw	a2,84(sp)
    8000658c:	02e12ea7          	fsw	fa4,61(sp)
    80006590:	6f3a5657          	.4byte	0x6f3a5657
    80006594:	53ca3e2f          	.4byte	0x53ca3e2f
    80006598:	c751                	beqz	a4,80006624 <input_data+0x1a5c>
    8000659a:	7dc1                	lui	s11,0xffff0
    8000659c:	fee2                	sd	s8,376(sp)
    8000659e:	2e4b5f0b          	.4byte	0x2e4b5f0b
    800065a2:	2299                	addiw	t0,t0,6 # ffffffffffff8006 <dram_end_address_reg+0xffffffff2fff7ff6>
    800065a4:	86aa                	mv	a3,a0
    800065a6:	6876                	ld	a6,344(sp)
    800065a8:	fda0                	sd	s0,120(a1)
    800065aa:	712a4fd3          	.4byte	0x712a4fd3
    800065ae:	da6636f7          	.4byte	0xda6636f7
    800065b2:	182653ab          	.4byte	0x182653ab
    800065b6:	11da                	slli	gp,gp,0x36
    800065b8:	259f 503a f848      	.byte	0x9f, 0x25, 0x3a, 0x50, 0x48, 0xf8
    800065be:	4d60                	lw	s0,92(a0)
    800065c0:	5068                	lw	a0,100(s0)
    800065c2:	91897ee3          	bgeu	s2,s8,80005ede <input_data+0x1316>
    800065c6:	285d                	addiw	a6,a6,23
    800065c8:	318c39e7          	.4byte	0x318c39e7
    800065cc:	94b8                	.2byte	0x94b8
    800065ce:	2c2d                	addiw	s8,s8,11
    800065d0:	297efd5b          	.4byte	0x297efd5b
    800065d4:	ceae                	sw	a1,92(sp)
    800065d6:	175271f7          	.4byte	0x175271f7
    800065da:	3c96                	fld	fs9,352(sp)
    800065dc:	c5f0                	sw	a2,76(a1)
    800065de:	28a6                	fld	fa7,72(sp)
    800065e0:	caae                	sw	a1,84(sp)
    800065e2:	1518                	addi	a4,sp,672
    800065e4:	7078                	ld	a4,224(s0)
    800065e6:	2159                	addiw	sp,sp,22
    800065e8:	98ac                	.2byte	0x98ac
    800065ea:	1eb8                	addi	a4,sp,888
    800065ec:	0dc0                	addi	s0,sp,724
    800065ee:	6e66                	ld	t3,88(sp)
    800065f0:	184e1aef          	jal	s5,800e7774 <_tbss_end+0xdeb30>
    800065f4:	93fd                	srli	a5,a5,0x3f
    800065f6:	82f53067          	.4byte	0x82f53067
    800065fa:	6ed8                	ld	a4,152(a3)
    800065fc:	07d4                	addi	a3,sp,964
    800065fe:	4192                	lw	gp,4(sp)
    80006600:	9829                	andi	s0,s0,-22
    80006602:	1db9                	addi	s11,s11,-18 # fffffffffffeffee <dram_end_address_reg+0xffffffff2ffeffde>
    80006604:	8add                	andi	a3,a3,23
    80006606:	26f5                	addiw	a3,a3,29
    80006608:	ac55                	j	800068bc <input_data+0x1cf4>
    8000660a:	37572da3          	sw	s5,891(a4)
    8000660e:	08fe                	slli	a7,a7,0x1f
    80006610:	4dd8                	lw	a4,28(a1)
    80006612:	1395                	addi	t2,t2,-27
    80006614:	86b6                	mv	a3,a3
    80006616:	0498                	addi	a4,sp,576
    80006618:	679c                	ld	a5,8(a5)
    8000661a:	69d1                	lui	s3,0x14
    8000661c:	ccb2                	sw	a2,88(sp)
    8000661e:	6d6e                	ld	s10,216(sp)
    80006620:	2885                	addiw	a7,a7,1
    80006622:	2a1a                	fld	fs4,384(sp)
    80006624:	49b0                	lw	a2,80(a1)
    80006626:	49ed                	li	s3,27
    80006628:	de75                	beqz	a2,80006624 <input_data+0x1a5c>
    8000662a:	3209                	addiw	tp,tp,-30 # ffffffffffffffe2 <dram_end_address_reg+0xffffffff2fffffd2>
    8000662c:	c572                	sw	t3,136(sp)
    8000662e:	95023ed3          	.4byte	0x95023ed3
    80006632:	6ca9                	lui	s9,0xa
    80006634:	29d70e33          	.4byte	0x29d70e33
    80006638:	a428                	fsd	fa0,72(s0)
    8000663a:	04f0                	addi	a2,sp,588
    8000663c:	e848                	sd	a0,144(s0)
    8000663e:	26e2                	fld	fa3,24(sp)
    80006640:	9944                	.2byte	0x9944
    80006642:	339f f7b8 373f      	.byte	0x9f, 0x33, 0xb8, 0xf7, 0x3f, 0x37
    80006648:	6b08                	ld	a0,16(a4)
    8000664a:	4f09                	li	t5,2
    8000664c:	3f29                	addiw	t5,t5,-22
    8000664e:	682e                	ld	a6,200(sp)
    80006650:	60d8                	ld	a4,128(s1)
    80006652:	7ebd45f7          	.4byte	0x7ebd45f7
    80006656:	5ad6                	lw	s5,116(sp)
    80006658:	6680                	ld	s0,8(a3)
    8000665a:	1a72                	slli	s4,s4,0x3c
    8000665c:	d196                	sw	t0,224(sp)
    8000665e:	31cc                	fld	fa1,160(a1)
    80006660:	d704                	sw	s1,40(a4)
    80006662:	0051                	c.nop	20
    80006664:	69d2                	ld	s3,272(sp)
    80006666:	7b48                	ld	a0,176(a4)
    80006668:	83b4                	.2byte	0x83b4
    8000666a:	645e                	ld	s0,464(sp)
    8000666c:	80f5                	srli	s1,s1,0x1d
    8000666e:	7c05                	lui	s8,0xfffe1
    80006670:	887a                	mv	a6,t5
    80006672:	720d                	lui	tp,0xfffe3
    80006674:	05d1                	addi	a1,a1,20 # 736f3014 <buflen.0+0x736f2fd4>
    80006676:	42d638b3          	.4byte	0x42d638b3
    8000667a:	6872                	ld	a6,280(sp)
    8000667c:	091f 0648 a6bb      	.byte	0x1f, 0x09, 0x48, 0x06, 0xbb, 0xa6
    80006682:	6a98                	ld	a4,16(a3)
    80006684:	6f2a                	ld	t5,136(sp)
    80006686:	6a89                	lui	s5,0x2
    80006688:	9b08                	.2byte	0x9b08
    8000668a:	5548                	lw	a0,44(a0)
    8000668c:	46f4                	lw	a3,76(a3)
    8000668e:	203e                	fld	ft0,456(sp)
    80006690:	3499a707          	flw	fa4,841(s3) # 14349 <buflen.0+0x14309>
    80006694:	de5d                	beqz	a2,80006652 <input_data+0x1a8a>
    80006696:	292c                	fld	fa1,80(a0)
    80006698:	f2ea                	sd	s10,352(sp)
    8000669a:	0c11                	addi	s8,s8,4 # fffffffffffe1004 <dram_end_address_reg+0xffffffff2ffe0ff4>
    8000669c:	5f000727          	.4byte	0x5f000727
    800066a0:	96fd                	srai	a3,a3,0x3f
    800066a2:	1f98                	addi	a4,sp,1008
    800066a4:	0981                	addi	s3,s3,0
    800066a6:	1700                	addi	s0,sp,928
    800066a8:	3615d7bf 1695bf1f 	.8byte	0x1695bf1f3615d7bf
    800066b0:	1b1ae0d3          	fdiv.d	ft1,fs5,fa7,unknown
    800066b4:	cd00                	sw	s0,24(a0)
    800066b6:	0efd                	addi	t4,t4,31
    800066b8:	5680bd3f 431ab1f5 	.8byte	0x431ab1f55680bd3f
    800066c0:	d932                	sw	a2,176(sp)
    800066c2:	0144                	addi	s1,sp,132
    800066c4:	6d64                	ld	s1,216(a0)
    800066c6:	61ec                	ld	a1,192(a1)
    800066c8:	2ff1affb          	.4byte	0x2ff1affb
    800066cc:	2399                	addiw	t2,t2,6
    800066ce:	7a15                	lui	s4,0xfffe5
    800066d0:	10ae                	slli	ra,ra,0x2b
    800066d2:	36b0                	fld	fa2,104(a3)
    800066d4:	e44c                	sd	a1,136(s0)
    800066d6:	5a49                	li	s4,-14
    800066d8:	8469                	srai	s0,s0,0x1a
    800066da:	0850                	addi	a2,sp,20
    800066dc:	5c12                	lw	s8,36(sp)
    800066de:	02e24423          	.4byte	0x2e24423
    800066e2:	ca7a06db          	.4byte	0xca7a06db
    800066e6:	6722                	ld	a4,8(sp)
    800066e8:	6133ac8b          	.4byte	0x6133ac8b
    800066ec:	03065ce3          	bge	a2,a6,80006f24 <scratch.0+0x35c>
    800066f0:	5d24                	lw	s1,120(a0)
    800066f2:	6806                	ld	a6,64(sp)
    800066f4:	4e4c9107          	.4byte	0x4e4c9107
    800066f8:	7e40                	ld	s0,184(a2)
    800066fa:	4025                	c.li	zero,9
    800066fc:	4a88                	lw	a0,16(a3)
    800066fe:	6c7f                	.2byte	0x6c7f
    80006700:	b6ea                	fsd	fs10,360(sp)
    80006702:	381d                	addiw	a6,a6,-25
    80006704:	3014dbb7          	lui	s7,0x3014d
    80006708:	2b0b5427          	.4byte	0x2b0b5427
    8000670c:	ac1f 6d82 35ba      	.byte	0x1f, 0xac, 0x82, 0x6d, 0xba, 0x35
    80006712:	2a0d                	addiw	s4,s4,3 # fffffffffffe5003 <dram_end_address_reg+0xffffffff2ffe4ff3>
    80006714:	ee66                	sd	s9,280(sp)
    80006716:	7c82                	ld	s9,32(sp)
    80006718:	932c                	.2byte	0x932c
    8000671a:	1e6d                	addi	t3,t3,-5
    8000671c:	c325                	beqz	a4,8000677c <input_data+0x1bb4>
    8000671e:	0314                	addi	a3,sp,384
    80006720:	36c6                	fld	fa3,112(sp)
    80006722:	3fa13543          	.4byte	0x3fa13543
    80006726:	51e5                	li	gp,-7
    80006728:	3eb0                	fld	fa2,120(a3)
    8000672a:	3c06                	fld	fs8,96(sp)
    8000672c:	5d55                	li	s10,-11
    8000672e:	28d4                	fld	fa3,144(s1)
    80006730:	57b4b82b          	.4byte	0x57b4b82b
    80006734:	6251                	lui	tp,0x14
    80006736:	5cb4                	lw	a3,120(s1)
    80006738:	6559                	lui	a0,0x16
    8000673a:	486c                	lw	a1,84(s0)
    8000673c:	a2b4                	fsd	fa3,64(a3)
    8000673e:	54ed                	li	s1,-5
    80006740:	272cdbc7          	.4byte	0x272cdbc7
    80006744:	9892                	add	a7,a7,tp
    80006746:	52f5                	li	t0,-3
    80006748:	398d5073          	csrwi	0x398,26
    8000674c:	240481ab          	.4byte	0x240481ab
    80006750:	7db2                	ld	s11,296(sp)
    80006752:	81a24c9b          	.4byte	0x81a24c9b
    80006756:	145a                	slli	s0,s0,0x36
    80006758:	0002                	c.slli64	zero
    8000675a:	1189                	addi	gp,gp,-30 # 1efe2 <buflen.0+0x1efa2>
    8000675c:	7b4a                	ld	s6,176(sp)
    8000675e:	25be                	fld	fa1,456(sp)
    80006760:	711c785b          	.4byte	0x711c785b
    80006764:	74f4                	ld	a3,232(s1)
    80006766:	7180                	ld	s0,32(a1)
    80006768:	1d65                	addi	s10,s10,-7 # 1aff9 <buflen.0+0x1afb9>
    8000676a:	3116                	fld	ft2,352(sp)
    8000676c:	b1aa                	fsd	fa0,224(sp)
    8000676e:	5e0d                	li	t3,-29
    80006770:	d041                	beqz	s0,800066f0 <input_data+0x1b28>
    80006772:	7830                	ld	a2,112(s0)
    80006774:	3c64                	fld	fs1,248(s0)
    80006776:	6f09                	lui	t5,0x2
    80006778:	226a2ea7          	fsw	ft6,573(s4)
    8000677c:	3a76                	fld	fs4,376(sp)
    8000677e:	a14b3c5b          	.4byte	0xa14b3c5b
    80006782:	0ebc                	addi	a5,sp,856
    80006784:	ff86                	sd	ra,504(sp)
    80006786:	746525ef          	jal	a1,80058ecc <_tbss_end+0x50288>
    8000678a:	7465                	lui	s0,0xffff9
    8000678c:	d780                	sw	s0,40(a5)
    8000678e:	564c                	lw	a1,44(a2)
    80006790:	47c4                	lw	s1,12(a5)
    80006792:	0670                	addi	a2,sp,780
    80006794:	3c985217          	auipc	tp,0x3c985
    80006798:	7a0e7c57          	.4byte	0x7a0e7c57
    8000679c:	578e                	lw	a5,224(sp)
    8000679e:	3842                	fld	fa6,48(sp)
    800067a0:	def5                	beqz	a3,8000679c <input_data+0x1bd4>
    800067a2:	2ef0                	fld	fa2,216(a3)
    800067a4:	7796                	ld	a5,352(sp)
    800067a6:	00c2                	slli	ra,ra,0x10
    800067a8:	127e                	slli	tp,tp,0x3f
    800067aa:	32e0                	fld	fs0,224(a3)
    800067ac:	0138                	addi	a4,sp,136
    800067ae:	13e9                	addi	t2,t2,-6
    800067b0:	cf61                	beqz	a4,80006888 <input_data+0x1cc0>
    800067b2:	0dea20fb          	.4byte	0xdea20fb
    800067b6:	daea40ef          	jal	ra,7ffaad64 <buflen.0+0x7ffaad24>
    800067ba:	1dac                	addi	a1,sp,760
    800067bc:	89e9                	andi	a1,a1,26
    800067be:	c6977987          	.4byte	0xc6977987
    800067c2:	5582                	lw	a1,32(sp)
    800067c4:	4ced7143          	.4byte	0x4ced7143
    800067c8:	7e24                	ld	s1,120(a2)
    800067ca:	0486                	slli	s1,s1,0x1
    800067cc:	390b3b03          	ld	s6,912(s6)
    800067d0:	7ef912b7          	lui	t0,0x7ef91
    800067d4:	4b00                	lw	s0,16(a4)
    800067d6:	f23d1c73          	csrrw	s8,0xf23,s10
    800067da:	38ca                	fld	fa7,176(sp)
    800067dc:	071f 6487 fb86      	.byte	0x1f, 0x07, 0x87, 0x64, 0x86, 0xfb
    800067e2:	1b60                	addi	s0,sp,444
    800067e4:	ddc4                	sw	s1,60(a1)
    800067e6:	2cd0                	fld	fa2,152(s1)
    800067e8:	0a74                	addi	a3,sp,284
    800067ea:	31d9                	addiw	gp,gp,-10 # ffffffff800073be <dram_end_address_reg+0xfffffffeb00073ae>
    800067ec:	7171                	addi	sp,sp,-176
    800067ee:	78df 5324 01b7      	.byte	0xdf, 0x78, 0x24, 0x53, 0xb7, 0x01
    800067f4:	c0ac                	sw	a1,64(s1)
    800067f6:	133c                	addi	a5,sp,424
    800067f8:	177e                	slli	a4,a4,0x3f
    800067fa:	4f96                	lw	t6,68(sp)
    800067fc:	2eea494b          	.4byte	0x2eea494b
    80006800:	1870                	addi	a2,sp,60
    80006802:	06c5                	addi	a3,a3,17
    80006804:	db9c                	sw	a5,48(a5)
    80006806:	38ea                	fld	fa7,184(sp)
    80006808:	0276                	slli	tp,tp,0x1d
    8000680a:	4e81                	li	t4,0
    8000680c:	5bb8                	lw	a4,112(a5)
    8000680e:	a4f94d77          	.4byte	0xa4f94d77
    80006812:	77c2                	ld	a5,48(sp)
    80006814:	5c4d96b3          	.4byte	0x5c4d96b3
    80006818:	ec61                	bnez	s0,800068f0 <input_data+0x1d28>
    8000681a:	5d497a2b          	.4byte	0x5d497a2b
    8000681e:	809e2ba7          	fsw	fs1,-2025(t3)
    80006822:	6a35                	lui	s4,0xd
    80006824:	4ee1                	li	t4,24
    80006826:	7c9d                	lui	s9,0xfffe7
    80006828:	fc5c                	sd	a5,184(s0)
    8000682a:	6dec3b3b          	.4byte	0x6dec3b3b
    8000682e:	74c8                	ld	a0,168(s1)
    80006830:	94c6                	add	s1,s1,a7
    80006832:	4fa9                	li	t6,10
    80006834:	4190                	lw	a2,0(a1)
    80006836:	2931                	addiw	s2,s2,12 # 1b00c <buflen.0+0x1afcc>
    80006838:	a664                	fsd	fs1,200(a2)
    8000683a:	681f b8f7 37c3      	.byte	0x1f, 0x68, 0xf7, 0xb8, 0xc3, 0x37
    80006840:	1936                	slli	s2,s2,0x2d
    80006842:	42f8                	lw	a4,68(a3)
    80006844:	417f                	.2byte	0x417f
    80006846:	0676                	slli	a2,a2,0x1d
    80006848:	54c2                	lw	s1,48(sp)
    8000684a:	5626                	lw	a2,104(sp)
    8000684c:	d345                	beqz	a4,800067ec <input_data+0x1c24>
    8000684e:	0a1d                	addi	s4,s4,7 # d007 <buflen.0+0xcfc7>
    80006850:	075a3493          	sltiu	s1,s4,117
    80006854:	6182a6ab          	.4byte	0x6182a6ab
    80006858:	fe11                	bnez	a2,80006774 <input_data+0x1bac>
    8000685a:	2828                	fld	fa0,80(s0)
    8000685c:	79c39977          	.4byte	0x79c39977
    80006860:	2d2aea73          	csrrsi	s4,0x2d2,21
    80006864:	0b6e                	slli	s6,s6,0x1b
    80006866:	1e8c                	addi	a1,sp,880
    80006868:	d1ee                	sw	s11,224(sp)
    8000686a:	0721                	addi	a4,a4,8
    8000686c:	705c                	ld	a5,160(s0)
    8000686e:	91200377          	.4byte	0x91200377
    80006872:	88a17c9b          	.4byte	0x88a17c9b
    80006876:	1cfa                	slli	s9,s9,0x3e
    80006878:	c63a                	sw	a4,12(sp)
    8000687a:	6089                	lui	ra,0x2
    8000687c:	19cee96b          	.4byte	0x19cee96b
    80006880:	a8ed                	j	8000697a <input_data+0x1db2>
    80006882:	42fc3557          	.4byte	0x42fc3557
    80006886:	169e                	slli	a3,a3,0x27
    80006888:	6f0e                	ld	t5,192(sp)
    8000688a:	70b5                	lui	ra,0xfffed
    8000688c:	ed6c                	sd	a1,216(a0)
    8000688e:	706e                	.2byte	0x706e
    80006890:	8f2e                	mv	t5,a1
    80006892:	6ec8                	ld	a0,152(a3)
    80006894:	3b7f                	.2byte	0x3b7f
    80006896:	2b3c39c7          	fmsub.d	fs3,fs8,fs3,ft5,rup
    8000689a:	af374957          	.4byte	0xaf374957
    8000689e:	70b4                	ld	a3,96(s1)
    800068a0:	26d6                	fld	fa3,336(sp)
    800068a2:	750914f7          	.4byte	0x750914f7
    800068a6:	0ccc                	addi	a1,sp,596
    800068a8:	4f7e                	lw	t5,220(sp)
    800068aa:	c8955c63          	bge	a0,s1,80005d42 <input_data+0x117a>
    800068ae:	30b0125b          	.4byte	0x30b0125b
    800068b2:	0191                	addi	gp,gp,4 # 800073cc <__global_pointer$+0x4>
    800068b4:	040ea107          	flw	ft2,64(t4)
    800068b8:	9a3e                	add	s4,s4,a5
    800068ba:	03435273          	csrrwi	tp,0x34,6
    800068be:	6816                	ld	a6,320(sp)
    800068c0:	ad38                	fsd	fa4,88(a0)
    800068c2:	40f9                	li	ra,30
    800068c4:	a545                	j	80006f64 <scratch.0+0x39c>
    800068c6:	da0162d3          	.4byte	0xda0162d3
    800068ca:	7c11                	lui	s8,0xfffe4
    800068cc:	7015                	c.lui	zero,0xfffe5
    800068ce:	4216438f          	.4byte	0x4216438f
    800068d2:	6ce86427          	.4byte	0x6ce86427
    800068d6:	50713e9b          	.4byte	0x50713e9b
    800068da:	6ba6                	ld	s7,72(sp)
    800068dc:	8e36                	mv	t3,a3
    800068de:	6621                	lui	a2,0x8
    800068e0:	3d39                	addiw	s10,s10,-18
    800068e2:	1f09                	addi	t5,t5,-30 # 1fe2 <buflen.0+0x1fa2>
    800068e4:	9675                	srai	a2,a2,0x3d
    800068e6:	fc0518e3          	bnez	a0,800068b6 <input_data+0x1cee>
    800068ea:	50c4                	lw	s1,36(s1)
    800068ec:	648d                	lui	s1,0x3
    800068ee:	25a2                	fld	fa1,8(sp)
    800068f0:	6f8c                	ld	a1,24(a5)
    800068f2:	b10867db          	.4byte	0xb10867db
    800068f6:	7bd6                	ld	s7,368(sp)
    800068f8:	65dd924f          	.4byte	0x65dd924f
    800068fc:	23688f3b          	.4byte	0x23688f3b
    80006900:	b958                	fsd	fa4,176(a0)
    80006902:	37da                	fld	fa5,432(sp)
    80006904:	2c3cdaab          	.4byte	0x2c3cdaab
    80006908:	94e1                	srai	s1,s1,0x38
    8000690a:	7184                	ld	s1,32(a1)
    8000690c:	6341                	lui	t1,0x10
    8000690e:	c23634eb          	.4byte	0xc23634eb
    80006912:	b1bf4ccf          	fnmadd.s	fs9,ft10,fs11,fs6,rmm
    80006916:	194e                	slli	s2,s2,0x33
    80006918:	8add                	andi	a3,a3,23
    8000691a:	5948                	lw	a0,52(a0)
    8000691c:	31766a3f 5282f6af 	.8byte	0x5282f6af31766a3f
    80006924:	ab91                	j	80006e78 <scratch.0+0x2b0>
    80006926:	0ee8                	addi	a0,sp,860
    80006928:	0919                	addi	s2,s2,6
    8000692a:	0bed                	addi	s7,s7,27 # 3014d01b <buflen.0+0x3014cfdb>
    8000692c:	29599857          	.4byte	0x29599857
    80006930:	8572                	mv	a0,t3
    80006932:	5b04                	lw	s1,48(a4)
    80006934:	0211                	addi	tp,tp,4 # bc98b798 <_tbss_end+0x3c982b54>
    80006936:	572c                	lw	a1,104(a4)
    80006938:	d2ea                	sw	s10,100(sp)
    8000693a:	6495                	lui	s1,0x5
    8000693c:	be30                	fsd	fa2,120(a2)
    8000693e:	b63144f3          	.4byte	0xb63144f3
    80006942:	0e64                	addi	s1,sp,796
    80006944:	8a9e                	mv	s5,t2
    80006946:	fd9646fb          	.4byte	0xfd9646fb
    8000694a:	4a86                	lw	s5,64(sp)
    8000694c:	d916                	sw	t0,176(sp)
    8000694e:	7b0a                	ld	s6,160(sp)
    80006950:	9418                	.2byte	0x9418
    80006952:	01a4                	addi	s1,sp,200
    80006954:	e7fa                	sd	t5,456(sp)
    80006956:	7015                	c.lui	zero,0xfffe5
    80006958:	a050                	fsd	fa2,128(s0)
    8000695a:	03407643          	fmadd.d	fa2,ft0,fs4,ft0
    8000695e:	063e                	slli	a2,a2,0xf
    80006960:	85ea                	mv	a1,s10
    80006962:	4eec                	lw	a1,92(a3)
    80006964:	a95e                	fsd	fs7,144(sp)
    80006966:	3aef40f3          	.4byte	0x3aef40f3
    8000696a:	e62853a3          	.4byte	0xe62853a3
    8000696e:	7316                	ld	t1,352(sp)
    80006970:	2e160dbb          	.4byte	0x2e160dbb
    80006974:	452708a7          	.4byte	0x452708a7
    80006978:	9d30                	.2byte	0x9d30
    8000697a:	218e                	fld	ft3,192(sp)
    8000697c:	b11e                	fsd	ft7,160(sp)
    8000697e:	3f7c                	fld	fa5,248(a4)
    80006980:	8a44                	.2byte	0x8a44
    80006982:	19ad1def          	jal	s11,800d7b1c <_tbss_end+0xceed8>
    80006986:	61e4                	ld	s1,192(a1)
    80006988:	b8a4                	fsd	fs1,112(s1)
    8000698a:	b5d94e17          	auipc	t3,0xb5d94
    8000698e:	6728                	ld	a0,72(a4)
    80006990:	73e6                	ld	t2,120(sp)
    80006992:	57f4                	lw	a3,108(a5)
    80006994:	5cb5                	li	s9,-19
    80006996:	673824b3          	.4byte	0x673824b3
    8000699a:	452c                	lw	a1,72(a0)
    8000699c:	375ced43          	.4byte	0x375ced43
    800069a0:	2f3e                	fld	ft10,456(sp)
    800069a2:	0f22                	slli	t5,t5,0x8
    800069a4:	c5fc                	sw	a5,76(a1)
    800069a6:	6b3d                	lui	s6,0xf
    800069a8:	d05f 47da c656      	.byte	0x5f, 0xd0, 0xda, 0x47, 0x56, 0xc6
    800069ae:	189e                	slli	a7,a7,0x27
    800069b0:	2f60                	fld	fs0,216(a4)
    800069b2:	5eb9                	li	t4,-18
    800069b4:	69c06c73          	csrrsi	s8,0x69c,0
    800069b8:	b6de                	fsd	fs7,360(sp)
    800069ba:	029e                	slli	t0,t0,0x7
    800069bc:	63bcc123          	.4byte	0x63bcc123
    800069c0:	c1b4                	sw	a3,64(a1)
    800069c2:	318b28bb          	.4byte	0x318b28bb
    800069c6:	99334b27          	.4byte	0x99334b27
    800069ca:	7d19                	lui	s10,0xfffe6
    800069cc:	2e0b77ef          	jal	a5,800bdcac <_tbss_end+0xb5068>
    800069d0:	49777d6b          	.4byte	0x49777d6b
    800069d4:	d426                	sw	s1,40(sp)
    800069d6:	2d30                	fld	fa2,88(a0)
    800069d8:	318c2ea3          	sw	s8,797(s8) # fffffffffffe431d <dram_end_address_reg+0xffffffff2ffe430d>
    800069dc:	5faed877          	.4byte	0x5faed877
    800069e0:	f09c                	sd	a5,32(s1)
    800069e2:	00ad62fb          	.4byte	0xad62fb
    800069e6:	0174                	addi	a3,sp,140
    800069e8:	6adf 5506 6f54      	.byte	0xdf, 0x6a, 0x06, 0x55, 0x54, 0x6f
    800069ee:	600e                	.2byte	0x600e
    800069f0:	c4ff                	.2byte	0xc4ff
    800069f2:	40b0                	lw	a2,64(s1)
    800069f4:	1040                	addi	s0,sp,36
    800069f6:	00c4                	addi	s1,sp,68
    800069f8:	d252                	sw	s4,36(sp)
    800069fa:	c77a1b2b          	.4byte	0xc77a1b2b
    800069fe:	345f 3644 71e7      	.byte	0x5f, 0x34, 0x44, 0x36, 0xe7, 0x71
    80006a04:	4906                	lw	s2,64(sp)
    80006a06:	526d                	li	tp,-5
    80006a08:	8909                	andi	a0,a0,2
    80006a0a:	743c                	ld	a5,104(s0)
    80006a0c:	ffda                	sd	s6,504(sp)
    80006a0e:	389f 5411 35e6      	.byte	0x9f, 0x38, 0x11, 0x54, 0xe6, 0x35
    80006a14:	91a6                	add	gp,gp,s1
    80006a16:	26402f2b          	.4byte	0x26402f2b
    80006a1a:	5e70                	lw	a2,124(a2)
    80006a1c:	d928                	sw	a0,112(a0)
    80006a1e:	0c85                	addi	s9,s9,1 # fffffffffffe7001 <dram_end_address_reg+0xffffffff2ffe6ff1>
    80006a20:	422f2997          	auipc	s3,0x422f2
    80006a24:	a9d0                	fsd	fa2,144(a1)
    80006a26:	f68615bb          	.4byte	0xf68615bb
    80006a2a:	0335                	addi	t1,t1,13 # 1000d <buflen.0+0xffcd>
    80006a2c:	9db6                	add	s11,s11,a3
    80006a2e:	84d02e07          	flw	ft8,-1971(zero) # fffffffffffff84d <dram_end_address_reg+0xffffffff2ffff83d>
    80006a32:	1c2d                	addi	s8,s8,-21
    80006a34:	19f2                	slli	s3,s3,0x3c
    80006a36:	4396                	lw	t2,68(sp)
    80006a38:	663ef68b          	.4byte	0x663ef68b
    80006a3c:	657f                	.2byte	0x657f
    80006a3e:	5624                	lw	s1,104(a2)
    80006a40:	5bdbb757          	.4byte	0x5bdbb757
    80006a44:	2c11                	addiw	s8,s8,4
    80006a46:	08e4                	addi	s1,sp,92
    80006a48:	708e                	ld	ra,224(sp)
    80006a4a:	39f0                	fld	fa2,240(a1)
    80006a4c:	5840                	lw	s0,52(s0)
    80006a4e:	70d6                	ld	ra,368(sp)
    80006a50:	58ab4ae3          	blt	s6,a0,800077e4 <__global_pointer$+0x41c>
    80006a54:	5fae                	lw	t6,232(sp)
    80006a56:	2632                	fld	fa2,264(sp)
    80006a58:	c65d                	beqz	a2,80006b06 <input_data+0x1f3e>
    80006a5a:	57a2                	lw	a5,40(sp)
    80006a5c:	afc1                	j	8000722c <scratch.0+0x664>
    80006a5e:	4361268b          	.4byte	0x4361268b
    80006a62:	3aea                	fld	fs5,184(sp)
    80006a64:	eae5                	bnez	a3,80006b54 <input_data+0x1f8c>
    80006a66:	29e8                	fld	fa0,208(a1)
    80006a68:	9209                	srli	a2,a2,0x22
    80006a6a:	687e                	ld	a6,472(sp)
    80006a6c:	5c32                	lw	s8,44(sp)
    80006a6e:	765e                	ld	a2,496(sp)
    80006a70:	28ae                	fld	fa7,200(sp)
    80006a72:	297c                	fld	fa5,208(a0)
    80006a74:	fa95                	bnez	a3,800069a8 <input_data+0x1de0>
    80006a76:	6a49                	lui	s4,0x12
    80006a78:	e729                	bnez	a4,80006ac2 <input_data+0x1efa>
    80006a7a:	4e82                	lw	t4,0(sp)
    80006a7c:	4cb0                	lw	a2,88(s1)
    80006a7e:	689e                	ld	a7,448(sp)
    80006a80:	b1ee                	fsd	fs11,224(sp)
    80006a82:	83ba1fb7          	lui	t6,0x83ba1
    80006a86:	3fbe                	fld	ft11,488(sp)
    80006a88:	0ee21ec7          	.4byte	0xee21ec7
    80006a8c:	1f407de7          	.4byte	0x1f407de7
    80006a90:	8c8c                	.2byte	0x8c8c
    80006a92:	2d2d                	addiw	s10,s10,11 # fffffffffffe600b <dram_end_address_reg+0xffffffff2ffe5ffb>
    80006a94:	97d6                	add	a5,a5,s5
    80006a96:	7db5                	lui	s11,0xfffed
    80006a98:	37ea                	fld	fa5,184(sp)
    80006a9a:	10d0240f          	.4byte	0x10d0240f
    80006a9e:	7585                	lui	a1,0xfffe1
    80006aa0:	58ce                	lw	a7,240(sp)
    80006aa2:	5eaa                	lw	t4,168(sp)
    80006aa4:	4e8e                	lw	t4,192(sp)
    80006aa6:	76c05b67          	.4byte	0x76c05b67
    80006aaa:	252c                	fld	fa1,72(a0)
    80006aac:	53c8cb9b          	.4byte	0x53c8cb9b
    80006ab0:	748d9613          	.4byte	0x748d9613
    80006ab4:	7651                	lui	a2,0xffff4
    80006ab6:	8c68408b          	.4byte	0x8c68408b
    80006aba:	52ac                	lw	a1,96(a3)
    80006abc:	86a9                	srai	a3,a3,0xa
    80006abe:	341a                	fld	fs0,416(sp)
    80006ac0:	d8ac                	sw	a1,112(s1)
    80006ac2:	5030                	lw	a2,96(s0)
    80006ac4:	45a55e33          	.4byte	0x45a55e33
    80006ac8:	3159                	addiw	sp,sp,-10
    80006aca:	7782                	ld	a5,32(sp)
    80006acc:	27b1                	addiw	a5,a5,12 # 1f8b700c <buflen.0+0x1f8b6fcc>
    80006ace:	43550df3          	.4byte	0x43550df3
    80006ad2:	1c36                	slli	s8,s8,0x2d
    80006ad4:	2ad8                	fld	fa4,144(a3)
    80006ad6:	2709                	addiw	a4,a4,2
    80006ad8:	57cebc73          	csrrc	s8,0x57c,t4
    80006adc:	ed02                	sd	zero,152(sp)
    80006ade:	3b76                	fld	fs6,376(sp)
    80006ae0:	2fcade4f          	.4byte	0x2fcade4f
    80006ae4:	7a54488b          	.4byte	0x7a54488b
    80006ae8:	e0a1                	bnez	s1,80006b28 <input_data+0x1f60>
    80006aea:	703e                	.2byte	0x703e
    80006aec:	eae8                	sd	a0,208(a3)
    80006aee:	0b10                	addi	a2,sp,400
    80006af0:	52d9061b          	addiw	a2,s2,1325
    80006af4:	ac6e                	fsd	fs11,24(sp)
    80006af6:	66d9                	lui	a3,0x16
    80006af8:	5b28                	lw	a0,112(a4)
    80006afa:	34cd                	addiw	s1,s1,-13 # 4ff3 <buflen.0+0x4fb3>
    80006afc:	bd26                	fsd	fs1,184(sp)
    80006afe:	3925                	addiw	s2,s2,-23
    80006b00:	cbd4                	sw	a3,20(a5)
    80006b02:	7a70                	ld	a2,240(a2)
    80006b04:	b6cd                	j	800066e6 <input_data+0x1b1e>
    80006b06:	fc8e039b          	addiw	t2,t3,-56 # 35d9a952 <buflen.0+0x35d9a912>
    80006b0a:	5515                	li	a0,-27
    80006b0c:	45288ea3          	sb	s2,1117(a7)
    80006b10:	c129                	beqz	a0,80006b52 <input_data+0x1f8a>
    80006b12:	a88b6cef          	jal	s9,7ffbcd9a <buflen.0+0x7ffbcd5a>
    80006b16:	53f8                	lw	a4,100(a5)
    80006b18:	1629                	addi	a2,a2,-22 # ffffffffffff3fea <dram_end_address_reg+0xffffffff2fff3fda>
    80006b1a:	6460                	ld	s0,200(s0)
    80006b1c:	b922                	fsd	fs0,176(sp)
    80006b1e:	03ad                	addi	t2,t2,11
    80006b20:	324f49f7          	.4byte	0x324f49f7
    80006b24:	bdbd                	j	800069a2 <input_data+0x1dda>
    80006b26:	f6433c4b          	.4byte	0xf6433c4b
    80006b2a:	5aad                	li	s5,-21
    80006b2c:	5f29                	li	t5,-22
    80006b2e:	5e48                	lw	a0,60(a2)
    80006b30:	2d7f                	.2byte	0x2d7f
    80006b32:	3618                	fld	fa4,40(a2)
    80006b34:	1f55                	addi	t5,t5,-11
    80006b36:	7894                	ld	a3,48(s1)
    80006b38:	430fbce7          	.4byte	0x430fbce7
    80006b3c:	8204                	.2byte	0x8204
    80006b3e:	4e34                	lw	a3,88(a2)
    80006b40:	c149                	beqz	a0,80006bc2 <input_data+0x1ffa>
    80006b42:	fdf6576b          	.4byte	0xfdf6576b
    80006b46:	734b39d3          	.4byte	0x734b39d3
    80006b4a:	04d2                	slli	s1,s1,0x14
    80006b4c:	35e2                	fld	fa1,56(sp)
    80006b4e:	5625                	li	a2,-23
    80006b50:	a794                	fsd	fa3,8(a5)
    80006b52:	13fe                	slli	t2,t2,0x3f
    80006b54:	47e8                	lw	a0,76(a5)
    80006b56:	1e6d                	addi	t3,t3,-5
    80006b58:	efda                	sd	s6,472(sp)
    80006b5a:	0588                	addi	a0,sp,704
    80006b5c:	b61d                	j	80006682 <input_data+0x1aba>
    80006b5e:	6226                	ld	tp,72(sp)
    80006b60:	bb78                	fsd	fa4,240(a4)
    80006b62:	6266                	ld	tp,88(sp)
    80006b64:	5b668c23          	sb	s6,1464(a3) # 165b8 <buflen.0+0x16578>
    80006b68:	b0dc                	fsd	fa5,160(s1)
    80006b6a:	0ffa                	slli	t6,t6,0x1e
    80006b6c:	347e3b97          	auipc	s7,0x347e3
    80006b70:	465d649b          	.4byte	0x465d649b
    80006b74:	bc8d                	j	800065e6 <input_data+0x1a1e>
    80006b76:	6f59                	lui	t5,0x16
    80006b78:	685d77c3          	fmadd.s	fa5,fs10,ft5,fa3
    80006b7c:	9740                	.2byte	0x9740
    80006b7e:	17ed                	addi	a5,a5,-5
    80006b80:	2c8c                	fld	fa1,24(s1)
    80006b82:	2031                	.2byte	0x2031
    80006b84:	a141                	j	80007004 <scratch.0+0x43c>
    80006b86:	0f163cf7          	.4byte	0xf163cf7
    80006b8a:	1b81                	addi	s7,s7,-32 # b47e9b4c <_tbss_end+0x347e0f08>
    80006b8c:	48deb2b3          	.4byte	0x48deb2b3
    80006b90:	1b350fbf 05a5ef07 	.8byte	0x5a5ef071b350fbf
    80006b98:	44f2                	lw	s1,28(sp)
    80006b9a:	4961                	li	s2,24
    80006b9c:	3900                	fld	fs0,48(a0)
    80006b9e:	a4257fdb          	.4byte	0xa4257fdb
    80006ba2:	7329                	lui	t1,0xfffea
    80006ba4:	12e0                	addi	s0,sp,364
    80006ba6:	c44211eb          	.4byte	0xc44211eb
    80006baa:	7a88                	ld	a0,48(a3)
    80006bac:	c985                	beqz	a1,80006bdc <scratch.0+0x14>
    80006bae:	3a76                	fld	fs4,376(sp)
    80006bb0:	4e03cf67          	.4byte	0x4e03cf67
    80006bb4:	e4c1                	bnez	s1,80006c3c <scratch.0+0x74>
    80006bb6:	3c39                	addiw	s8,s8,-18
    80006bb8:	167d                	addi	a2,a2,-1
    80006bba:	5370                	lw	a2,100(a4)
    80006bbc:	36f5                	addiw	a3,a3,-3
    80006bbe:	4896                	lw	a7,68(sp)
    80006bc0:	66c0                	ld	s0,136(a3)
    80006bc2:	37b6                	fld	fa5,360(sp)
    80006bc4:	935e                	add	t1,t1,s7
    80006bc6:	3460                	fld	fs0,232(s0)
