
keras2c.riscv:     file format elf64-littleriscv


Disassembly of section .text.init:

0000000080000000 <_start>:
    80000000:	4081                	li	ra,0
    80000002:	4101                	li	sp,0
    80000004:	4181                	li	gp,0
    80000006:	4201                	li	tp,0
    80000008:	4281                	li	t0,0
    8000000a:	4301                	li	t1,0
    8000000c:	4381                	li	t2,0
    8000000e:	4401                	li	s0,0
    80000010:	4481                	li	s1,0
    80000012:	4501                	li	a0,0
    80000014:	4581                	li	a1,0
    80000016:	4601                	li	a2,0
    80000018:	4681                	li	a3,0
    8000001a:	4701                	li	a4,0
    8000001c:	4781                	li	a5,0
    8000001e:	4801                	li	a6,0
    80000020:	4881                	li	a7,0
    80000022:	4901                	li	s2,0
    80000024:	4981                	li	s3,0
    80000026:	4a01                	li	s4,0
    80000028:	4a81                	li	s5,0
    8000002a:	4b01                	li	s6,0
    8000002c:	4b81                	li	s7,0
    8000002e:	4c01                	li	s8,0
    80000030:	4c81                	li	s9,0
    80000032:	4d01                	li	s10,0
    80000034:	4d81                	li	s11,0
    80000036:	4e01                	li	t3,0
    80000038:	4e81                	li	t4,0
    8000003a:	4f01                	li	t5,0
    8000003c:	4f81                	li	t6,0
    8000003e:	62f9                	lui	t0,0x1e
    80000040:	3002a073          	csrs	mstatus,t0
    80000044:	4285                	li	t0,1
    80000046:	02fe                	slli	t0,t0,0x1f
    80000048:	0002d863          	bgez	t0,80000058 <_start+0x58>
    8000004c:	4505                	li	a0,1
    8000004e:	00001297          	auipc	t0,0x1
    80000052:	faa2a923          	sw	a0,-78(t0) # 80001000 <tohost>
    80000056:	bfdd                	j	8000004c <_start+0x4c>
    80000058:	00000297          	auipc	t0,0x0
    8000005c:	09028293          	addi	t0,t0,144 # 800000e8 <_start+0xe8>
    80000060:	30529073          	csrw	mtvec,t0
    80000064:	00301073          	fscsr	zero
    80000068:	f0000053          	fmv.w.x	ft0,zero
    8000006c:	f00000d3          	fmv.w.x	ft1,zero
    80000070:	f0000153          	fmv.w.x	ft2,zero
    80000074:	f00001d3          	fmv.w.x	ft3,zero
    80000078:	f0000253          	fmv.w.x	ft4,zero
    8000007c:	f00002d3          	fmv.w.x	ft5,zero
    80000080:	f0000353          	fmv.w.x	ft6,zero
    80000084:	f00003d3          	fmv.w.x	ft7,zero
    80000088:	f0000453          	fmv.w.x	fs0,zero
    8000008c:	f00004d3          	fmv.w.x	fs1,zero
    80000090:	f0000553          	fmv.w.x	fa0,zero
    80000094:	f00005d3          	fmv.w.x	fa1,zero
    80000098:	f0000653          	fmv.w.x	fa2,zero
    8000009c:	f00006d3          	fmv.w.x	fa3,zero
    800000a0:	f0000753          	fmv.w.x	fa4,zero
    800000a4:	f00007d3          	fmv.w.x	fa5,zero
    800000a8:	f0000853          	fmv.w.x	fa6,zero
    800000ac:	f00008d3          	fmv.w.x	fa7,zero
    800000b0:	f0000953          	fmv.w.x	fs2,zero
    800000b4:	f00009d3          	fmv.w.x	fs3,zero
    800000b8:	f0000a53          	fmv.w.x	fs4,zero
    800000bc:	f0000ad3          	fmv.w.x	fs5,zero
    800000c0:	f0000b53          	fmv.w.x	fs6,zero
    800000c4:	f0000bd3          	fmv.w.x	fs7,zero
    800000c8:	f0000c53          	fmv.w.x	fs8,zero
    800000cc:	f0000cd3          	fmv.w.x	fs9,zero
    800000d0:	f0000d53          	fmv.w.x	fs10,zero
    800000d4:	f0000dd3          	fmv.w.x	fs11,zero
    800000d8:	f0000e53          	fmv.w.x	ft8,zero
    800000dc:	f0000ed3          	fmv.w.x	ft9,zero
    800000e0:	f0000f53          	fmv.w.x	ft10,zero
    800000e4:	f0000fd3          	fmv.w.x	ft11,zero
    800000e8:	00000297          	auipc	t0,0x0
    800000ec:	03828293          	addi	t0,t0,56 # 80000120 <trap_entry>
    800000f0:	30529073          	csrw	mtvec,t0
    800000f4:	00011197          	auipc	gp,0x11
    800000f8:	58c18193          	addi	gp,gp,1420 # 80011680 <__global_pointer$>
    800000fc:	e7f18213          	addi	tp,gp,-385 # 800114ff <_end+0x3f>
    80000100:	fc027213          	andi	tp,tp,-64
    80000104:	f1402573          	csrr	a0,mhartid
    80000108:	4585                	li	a1,1
    8000010a:	00b57063          	bgeu	a0,a1,8000010a <_start+0x10a>
    8000010e:	00150113          	addi	sp,a0,1
    80000112:	0146                	slli	sp,sp,0x11
    80000114:	9112                	add	sp,sp,tp
    80000116:	01151613          	slli	a2,a0,0x11
    8000011a:	9232                	add	tp,tp,a2
    8000011c:	7290606f          	j	80007044 <_init>

0000000080000120 <trap_entry>:
    80000120:	716d                	addi	sp,sp,-272
    80000122:	e406                	sd	ra,8(sp)
    80000124:	e80a                	sd	sp,16(sp)
    80000126:	ec0e                	sd	gp,24(sp)
    80000128:	f012                	sd	tp,32(sp)
    8000012a:	f416                	sd	t0,40(sp)
    8000012c:	f81a                	sd	t1,48(sp)
    8000012e:	fc1e                	sd	t2,56(sp)
    80000130:	e0a2                	sd	s0,64(sp)
    80000132:	e4a6                	sd	s1,72(sp)
    80000134:	e8aa                	sd	a0,80(sp)
    80000136:	ecae                	sd	a1,88(sp)
    80000138:	f0b2                	sd	a2,96(sp)
    8000013a:	f4b6                	sd	a3,104(sp)
    8000013c:	f8ba                	sd	a4,112(sp)
    8000013e:	fcbe                	sd	a5,120(sp)
    80000140:	e142                	sd	a6,128(sp)
    80000142:	e546                	sd	a7,136(sp)
    80000144:	e94a                	sd	s2,144(sp)
    80000146:	ed4e                	sd	s3,152(sp)
    80000148:	f152                	sd	s4,160(sp)
    8000014a:	f556                	sd	s5,168(sp)
    8000014c:	f95a                	sd	s6,176(sp)
    8000014e:	fd5e                	sd	s7,184(sp)
    80000150:	e1e2                	sd	s8,192(sp)
    80000152:	e5e6                	sd	s9,200(sp)
    80000154:	e9ea                	sd	s10,208(sp)
    80000156:	edee                	sd	s11,216(sp)
    80000158:	f1f2                	sd	t3,224(sp)
    8000015a:	f5f6                	sd	t4,232(sp)
    8000015c:	f9fa                	sd	t5,240(sp)
    8000015e:	fdfe                	sd	t6,248(sp)
    80000160:	34202573          	csrr	a0,mcause
    80000164:	341025f3          	csrr	a1,mepc
    80000168:	860a                	mv	a2,sp
    8000016a:	51d060ef          	jal	ra,80006e86 <handle_trap>
    8000016e:	34151073          	csrw	mepc,a0
    80000172:	6289                	lui	t0,0x2
    80000174:	8002829b          	addiw	t0,t0,-2048 # 1800 <buflen.2784+0x17c0>
    80000178:	3002a073          	csrs	mstatus,t0
    8000017c:	60a2                	ld	ra,8(sp)
    8000017e:	6142                	ld	sp,16(sp)
    80000180:	61e2                	ld	gp,24(sp)
    80000182:	7202                	ld	tp,32(sp)
    80000184:	72a2                	ld	t0,40(sp)
    80000186:	7342                	ld	t1,48(sp)
    80000188:	73e2                	ld	t2,56(sp)
    8000018a:	6406                	ld	s0,64(sp)
    8000018c:	64a6                	ld	s1,72(sp)
    8000018e:	6546                	ld	a0,80(sp)
    80000190:	65e6                	ld	a1,88(sp)
    80000192:	7606                	ld	a2,96(sp)
    80000194:	76a6                	ld	a3,104(sp)
    80000196:	7746                	ld	a4,112(sp)
    80000198:	77e6                	ld	a5,120(sp)
    8000019a:	680a                	ld	a6,128(sp)
    8000019c:	68aa                	ld	a7,136(sp)
    8000019e:	694a                	ld	s2,144(sp)
    800001a0:	69ea                	ld	s3,152(sp)
    800001a2:	7a0a                	ld	s4,160(sp)
    800001a4:	7aaa                	ld	s5,168(sp)
    800001a6:	7b4a                	ld	s6,176(sp)
    800001a8:	7bea                	ld	s7,184(sp)
    800001aa:	6c0e                	ld	s8,192(sp)
    800001ac:	6cae                	ld	s9,200(sp)
    800001ae:	6d4e                	ld	s10,208(sp)
    800001b0:	6dee                	ld	s11,216(sp)
    800001b2:	7e0e                	ld	t3,224(sp)
    800001b4:	7eae                	ld	t4,232(sp)
    800001b6:	7f4e                	ld	t5,240(sp)
    800001b8:	7fee                	ld	t6,248(sp)
    800001ba:	6151                	addi	sp,sp,272
    800001bc:	30200073          	mret
	...

Disassembly of section .tohost:

0000000080001000 <tohost>:
	...

0000000080001040 <fromhost>:
	...

Disassembly of section .text:

0000000080002000 <maxabs>:
    80002000:	6914                	ld	a3,16(a0)
    80002002:	c695                	beqz	a3,8000202e <maxabs+0x2e>
    80002004:	611c                	ld	a5,0(a0)
    80002006:	6198                	ld	a4,0(a1)
    80002008:	f0000553          	fmv.w.x	fa0,zero
    8000200c:	068a                	slli	a3,a3,0x2
    8000200e:	96be                	add	a3,a3,a5
    80002010:	0007a787          	flw	fa5,0(a5)
    80002014:	00072707          	flw	fa4,0(a4)
    80002018:	0791                	addi	a5,a5,4
    8000201a:	0711                	addi	a4,a4,4
    8000201c:	08e7f7d3          	fsub.s	fa5,fa5,fa4
    80002020:	20f7a7d3          	fabs.s	fa5,fa5
    80002024:	28f51553          	fmax.s	fa0,fa0,fa5
    80002028:	fed794e3          	bne	a5,a3,80002010 <maxabs+0x10>
    8000202c:	8082                	ret
    8000202e:	f0000553          	fmv.w.x	fa0,zero
    80002032:	8082                	ret

0000000080002034 <zanga>:
    80002034:	7361                	lui	t1,0xffff8
    80002036:	711d                	addi	sp,sp,-96
    80002038:	60030313          	addi	t1,t1,1536 # ffffffffffff8600 <dram_end_address_reg+0xffffffff2fff85f0>
    8000203c:	e8a2                	sd	s0,80(sp)
    8000203e:	e0ca                	sd	s2,64(sp)
    80002040:	fc4e                	sd	s3,56(sp)
    80002042:	ec86                	sd	ra,88(sp)
    80002044:	e4a6                	sd	s1,72(sp)
    80002046:	f852                	sd	s4,48(sp)
    80002048:	f456                	sd	s5,40(sp)
    8000204a:	f05a                	sd	s6,32(sp)
    8000204c:	ec5e                	sd	s7,24(sp)
    8000204e:	e862                	sd	s8,16(sp)
    80002050:	6785                	lui	a5,0x1
    80002052:	911a                	add	sp,sp,t1
    80002054:	0818                	addi	a4,sp,16
    80002056:	a0078793          	addi	a5,a5,-1536 # a00 <buflen.2784+0x9c0>
    8000205a:	97ba                	add	a5,a5,a4
    8000205c:	28000613          	li	a2,640
    80002060:	89aa                	mv	s3,a0
    80002062:	892e                	mv	s2,a1
    80002064:	c7078513          	addi	a0,a5,-912
    80002068:	4581                	li	a1,0
    8000206a:	795040ef          	jal	ra,80006ffe <memset>
    8000206e:	6621                	lui	a2,0x8
    80002070:	0814                	addi	a3,sp,16
    80002072:	a0060713          	addi	a4,a2,-1536 # 7a00 <buflen.2784+0x79c0>
    80002076:	9736                	add	a4,a4,a3
    80002078:	77e1                	lui	a5,0xffff8
    8000207a:	97ba                	add	a5,a5,a4
    8000207c:	7465                	lui	s0,0xffff9
    8000207e:	a0060713          	addi	a4,a2,-1536
    80002082:	f03e                	sd	a5,32(sp)
    80002084:	9736                	add	a4,a4,a3
    80002086:	c7040413          	addi	s0,s0,-912 # ffffffffffff8c70 <dram_end_address_reg+0xffffffff2fff8c60>
    8000208a:	943a                	add	s0,s0,a4
    8000208c:	7702                	ld	a4,32(sp)
    8000208e:	7582                	ld	a1,32(sp)
    80002090:	4785                	li	a5,1
    80002092:	62873423          	sd	s0,1576(a4)
    80002096:	4709                	li	a4,2
    80002098:	62e5b823          	sd	a4,1584(a1)
    8000209c:	64f5b823          	sd	a5,1616(a1)
    800020a0:	0a000713          	li	a4,160
    800020a4:	64f5bc23          	sd	a5,1624(a1)
    800020a8:	66f5b023          	sd	a5,1632(a1)
    800020ac:	a0060793          	addi	a5,a2,-1536
    800020b0:	0810                	addi	a2,sp,16
    800020b2:	76ed                	lui	a3,0xffffb
    800020b4:	62e5bc23          	sd	a4,1592(a1)
    800020b8:	97b2                	add	a5,a5,a2
    800020ba:	4721                	li	a4,8
    800020bc:	97b6                	add	a5,a5,a3
    800020be:	64e5b023          	sd	a4,1600(a1)
    800020c2:	4751                	li	a4,20
    800020c4:	64e5b423          	sd	a4,1608(a1)
    800020c8:	f03e                	sd	a5,32(sp)
    800020ca:	00007717          	auipc	a4,0x7
    800020ce:	93e70713          	addi	a4,a4,-1730 # 80008a08 <main+0xd3a>
    800020d2:	60078793          	addi	a5,a5,1536 # ffffffffffff8600 <dram_end_address_reg+0xffffffff2fff85f0>
    800020d6:	00007697          	auipc	a3,0x7
    800020da:	33268693          	addi	a3,a3,818 # 80009408 <main+0x173a>
    800020de:	00073803          	ld	a6,0(a4)
    800020e2:	6708                	ld	a0,8(a4)
    800020e4:	6b0c                	ld	a1,16(a4)
    800020e6:	6f10                	ld	a2,24(a4)
    800020e8:	0107b023          	sd	a6,0(a5)
    800020ec:	e788                	sd	a0,8(a5)
    800020ee:	eb8c                	sd	a1,16(a5)
    800020f0:	ef90                	sd	a2,24(a5)
    800020f2:	02070713          	addi	a4,a4,32
    800020f6:	02078793          	addi	a5,a5,32
    800020fa:	fed712e3          	bne	a4,a3,800020de <zanga+0xaa>
    800020fe:	6fa1                	lui	t6,0x8
    80002100:	a00f8493          	addi	s1,t6,-1536 # 7a00 <buflen.2784+0x79c0>
    80002104:	01010293          	addi	t0,sp,16
    80002108:	9496                	add	s1,s1,t0
    8000210a:	77e1                	lui	a5,0xffff8
    8000210c:	97a6                	add	a5,a5,s1
    8000210e:	01010393          	addi	t2,sp,16
    80002112:	f03e                	sd	a5,32(sp)
    80002114:	a00f8293          	addi	t0,t6,-1536
    80002118:	77ed                	lui	a5,0xffffb
    8000211a:	929e                	add	t0,t0,t2
    8000211c:	60078793          	addi	a5,a5,1536 # ffffffffffffb600 <dram_end_address_reg+0xffffffff2fffb5f0>
    80002120:	9796                	add	a5,a5,t0
    80002122:	7a65                	lui	s4,0xffff9
    80002124:	a00f8293          	addi	t0,t6,-1536
    80002128:	929e                	add	t0,t0,t2
    8000212a:	928a0713          	addi	a4,s4,-1752 # ffffffffffff8928 <dram_end_address_reg+0xffffffff2fff8918>
    8000212e:	9716                	add	a4,a4,t0
    80002130:	7282                	ld	t0,32(sp)
    80002132:	00006417          	auipc	s0,0x6
    80002136:	03e40413          	addi	s0,s0,62 # 80008170 <main+0x4a2>
    8000213a:	7808                	ld	a0,48(s0)
    8000213c:	66f2b423          	sd	a5,1640(t0)
    80002140:	6030                	ld	a2,64(s0)
    80002142:	28000793          	li	a5,640
    80002146:	6434                	ld	a3,72(s0)
    80002148:	00043f03          	ld	t5,0(s0)
    8000214c:	00843e83          	ld	t4,8(s0)
    80002150:	01043e03          	ld	t3,16(s0)
    80002154:	01843303          	ld	t1,24(s0)
    80002158:	02043883          	ld	a7,32(s0)
    8000215c:	02843803          	ld	a6,40(s0)
    80002160:	66f2bc23          	sd	a5,1656(t0)
    80002164:	7c0c                	ld	a1,56(s0)
    80002166:	02000793          	li	a5,32
    8000216a:	68f2b023          	sd	a5,1664(t0)
    8000216e:	a00f8793          	addi	a5,t6,-1536
    80002172:	4485                	li	s1,1
    80002174:	4ad1                	li	s5,20
    80002176:	979e                	add	a5,a5,t2
    80002178:	4b09                	li	s6,2
    8000217a:	36a13423          	sd	a0,872(sp)
    8000217e:	36c13c23          	sd	a2,888(sp)
    80002182:	7571                	lui	a0,0xffffc
    80002184:	6605                	lui	a2,0x1
    80002186:	38d13023          	sd	a3,896(sp)
    8000218a:	6ae2b423          	sd	a4,1704(t0)
    8000218e:	33e13c23          	sd	t5,824(sp)
    80002192:	35d13023          	sd	t4,832(sp)
    80002196:	35c13423          	sd	t3,840(sp)
    8000219a:	34613823          	sd	t1,848(sp)
    8000219e:	35113c23          	sd	a7,856(sp)
    800021a2:	37013023          	sd	a6,864(sp)
    800021a6:	6762b823          	sd	s6,1648(t0)
    800021aa:	6952b423          	sd	s5,1672(t0)
    800021ae:	6892b823          	sd	s1,1680(t0)
    800021b2:	6892bc23          	sd	s1,1688(t0)
    800021b6:	6a92b023          	sd	s1,1696(t0)
    800021ba:	6a92b823          	sd	s1,1712(t0)
    800021be:	36b13823          	sd	a1,880(sp)
    800021c2:	e0060613          	addi	a2,a2,-512 # e00 <buflen.2784+0xdc0>
    800021c6:	4581                	li	a1,0
    800021c8:	953e                	add	a0,a0,a5
    800021ca:	6b52bc23          	sd	s5,1720(t0)
    800021ce:	8bfe                	mv	s7,t6
    800021d0:	6d52b023          	sd	s5,1728(t0)
    800021d4:	6c92b423          	sd	s1,1736(t0)
    800021d8:	6c92b823          	sd	s1,1744(t0)
    800021dc:	6c92bc23          	sd	s1,1752(t0)
    800021e0:	6e92b023          	sd	s1,1760(t0)
    800021e4:	6c05                	lui	s8,0x1
    800021e6:	619040ef          	jal	ra,80006ffe <memset>
    800021ea:	0818                	addi	a4,sp,16
    800021ec:	a00c0793          	addi	a5,s8,-1536 # a00 <buflen.2784+0x9c0>
    800021f0:	97ba                	add	a5,a5,a4
    800021f2:	ef078513          	addi	a0,a5,-272
    800021f6:	28000613          	li	a2,640
    800021fa:	4581                	li	a1,0
    800021fc:	603040ef          	jal	ra,80006ffe <memset>
    80002200:	0818                	addi	a4,sp,16
    80002202:	a00b8793          	addi	a5,s7,-1536
    80002206:	97ba                	add	a5,a5,a4
    80002208:	ef0a0a13          	addi	s4,s4,-272
    8000220c:	9a3e                	add	s4,s4,a5
    8000220e:	7782                	ld	a5,32(sp)
    80002210:	7702                	ld	a4,32(sp)
    80002212:	0814                	addi	a3,sp,16
    80002214:	6f47b423          	sd	s4,1768(a5)
    80002218:	6f67b823          	sd	s6,1776(a5)
    8000221c:	0a000793          	li	a5,160
    80002220:	6ef73c23          	sd	a5,1784(a4)
    80002224:	47a1                	li	a5,8
    80002226:	70f73023          	sd	a5,1792(a4)
    8000222a:	a00c0793          	addi	a5,s8,-1536
    8000222e:	97b6                	add	a5,a5,a3
    80002230:	71573423          	sd	s5,1800(a4)
    80002234:	70973823          	sd	s1,1808(a4)
    80002238:	70973c23          	sd	s1,1816(a4)
    8000223c:	72973023          	sd	s1,1824(a4)
    80002240:	3f078793          	addi	a5,a5,1008
    80002244:	00006717          	auipc	a4,0x6
    80002248:	f7c70713          	addi	a4,a4,-132 # 800081c0 <main+0x4f2>
    8000224c:	00006697          	auipc	a3,0x6
    80002250:	5b468693          	addi	a3,a3,1460 # 80008800 <main+0xb32>
    80002254:	00073803          	ld	a6,0(a4)
    80002258:	6708                	ld	a0,8(a4)
    8000225a:	6b0c                	ld	a1,16(a4)
    8000225c:	6f10                	ld	a2,24(a4)
    8000225e:	0107b023          	sd	a6,0(a5)
    80002262:	e788                	sd	a0,8(a5)
    80002264:	eb8c                	sd	a1,16(a5)
    80002266:	ef90                	sd	a2,24(a5)
    80002268:	02070713          	addi	a4,a4,32
    8000226c:	02078793          	addi	a5,a5,32
    80002270:	fed712e3          	bne	a4,a3,80002254 <zanga+0x220>
    80002274:	6aa1                	lui	s5,0x8
    80002276:	69043f83          	ld	t6,1680(s0)
    8000227a:	69843f03          	ld	t5,1688(s0)
    8000227e:	6a043e83          	ld	t4,1696(s0)
    80002282:	6a843e03          	ld	t3,1704(s0)
    80002286:	6b043303          	ld	t1,1712(s0)
    8000228a:	6b843883          	ld	a7,1720(s0)
    8000228e:	6c043803          	ld	a6,1728(s0)
    80002292:	6c843503          	ld	a0,1736(s0)
    80002296:	6d043583          	ld	a1,1744(s0)
    8000229a:	6d843603          	ld	a2,1752(s0)
    8000229e:	01010293          	addi	t0,sp,16
    800022a2:	a00a8413          	addi	s0,s5,-1536 # 7a00 <buflen.2784+0x79c0>
    800022a6:	9416                	add	s0,s0,t0
    800022a8:	76e1                	lui	a3,0xffff8
    800022aa:	96a2                	add	a3,a3,s0
    800022ac:	74e5                	lui	s1,0xffff9
    800022ae:	f036                	sd	a3,32(sp)
    800022b0:	a00a8693          	addi	a3,s5,-1536
    800022b4:	9696                	add	a3,a3,t0
    800022b6:	3f048713          	addi	a4,s1,1008 # ffffffffffff93f0 <dram_end_address_reg+0xffffffff2fff93e0>
    800022ba:	9736                	add	a4,a4,a3
    800022bc:	a00a8693          	addi	a3,s5,-1536
    800022c0:	9696                	add	a3,a3,t0
    800022c2:	7282                	ld	t0,32(sp)
    800022c4:	97848793          	addi	a5,s1,-1672
    800022c8:	97b6                	add	a5,a5,a3
    800022ca:	72e2b423          	sd	a4,1832(t0)
    800022ce:	4709                	li	a4,2
    800022d0:	72e2b823          	sd	a4,1840(t0)
    800022d4:	19000713          	li	a4,400
    800022d8:	72e2bc23          	sd	a4,1848(t0)
    800022dc:	76f2b423          	sd	a5,1896(t0)
    800022e0:	0818                	addi	a4,sp,16
    800022e2:	a00a8793          	addi	a5,s5,-1536
    800022e6:	76e9                	lui	a3,0xffffa
    800022e8:	97ba                	add	a5,a5,a4
    800022ea:	4405                	li	s0,1
    800022ec:	97b6                	add	a5,a5,a3
    800022ee:	4a51                	li	s4,20
    800022f0:	3cc13823          	sd	a2,976(sp)
    800022f4:	6605                	lui	a2,0x1
    800022f6:	39f13423          	sd	t6,904(sp)
    800022fa:	39e13823          	sd	t5,912(sp)
    800022fe:	39d13c23          	sd	t4,920(sp)
    80002302:	3bc13023          	sd	t3,928(sp)
    80002306:	3a613423          	sd	t1,936(sp)
    8000230a:	3b113823          	sd	a7,944(sp)
    8000230e:	3b013c23          	sd	a6,952(sp)
    80002312:	7542b023          	sd	s4,1856(t0)
    80002316:	7542b423          	sd	s4,1864(t0)
    8000231a:	7482b823          	sd	s0,1872(t0)
    8000231e:	7482bc23          	sd	s0,1880(t0)
    80002322:	7682b023          	sd	s0,1888(t0)
    80002326:	7682b823          	sd	s0,1904(t0)
    8000232a:	3ca13023          	sd	a0,960(sp)
    8000232e:	3cb13423          	sd	a1,968(sp)
    80002332:	8c060613          	addi	a2,a2,-1856 # 8c0 <buflen.2784+0x880>
    80002336:	4581                	li	a1,0
    80002338:	a3078513          	addi	a0,a5,-1488
    8000233c:	7742bc23          	sd	s4,1912(t0)
    80002340:	7942b023          	sd	s4,1920(t0)
    80002344:	7882b423          	sd	s0,1928(t0)
    80002348:	7882b823          	sd	s0,1936(t0)
    8000234c:	7882bc23          	sd	s0,1944(t0)
    80002350:	7a82b023          	sd	s0,1952(t0)
    80002354:	f43e                	sd	a5,40(sp)
    80002356:	4a9040ef          	jal	ra,80006ffe <memset>
    8000235a:	0818                	addi	a4,sp,16
    8000235c:	a00a8793          	addi	a5,s5,-1536
    80002360:	97ba                	add	a5,a5,a4
    80002362:	6b05                	lui	s6,0x1
    80002364:	9c848493          	addi	s1,s1,-1592
    80002368:	94be                	add	s1,s1,a5
    8000236a:	a00b0793          	addi	a5,s6,-1536 # a00 <buflen.2784+0x9c0>
    8000236e:	97ba                	add	a5,a5,a4
    80002370:	17078513          	addi	a0,a5,368
    80002374:	7782                	ld	a5,32(sp)
    80002376:	28000613          	li	a2,640
    8000237a:	4581                	li	a1,0
    8000237c:	7a97b423          	sd	s1,1960(a5)
    80002380:	7a87b823          	sd	s0,1968(a5)
    80002384:	7b47bc23          	sd	s4,1976(a5)
    80002388:	7d47b023          	sd	s4,1984(a5)
    8000238c:	7c87b423          	sd	s0,1992(a5)
    80002390:	7c87b823          	sd	s0,2000(a5)
    80002394:	7c87bc23          	sd	s0,2008(a5)
    80002398:	7e87b023          	sd	s0,2016(a5)
    8000239c:	3c013c23          	sd	zero,984(sp)
    800023a0:	3e013023          	sd	zero,992(sp)
    800023a4:	3e013423          	sd	zero,1000(sp)
    800023a8:	3e013823          	sd	zero,1008(sp)
    800023ac:	3e013c23          	sd	zero,1016(sp)
    800023b0:	40013023          	sd	zero,1024(sp)
    800023b4:	40013423          	sd	zero,1032(sp)
    800023b8:	40013823          	sd	zero,1040(sp)
    800023bc:	40013c23          	sd	zero,1048(sp)
    800023c0:	42013023          	sd	zero,1056(sp)
    800023c4:	43b040ef          	jal	ra,80006ffe <memset>
    800023c8:	0818                	addi	a4,sp,16
    800023ca:	a00b0793          	addi	a5,s6,-1536
    800023ce:	97ba                	add	a5,a5,a4
    800023d0:	0a000613          	li	a2,160
    800023d4:	a9078513          	addi	a0,a5,-1392
    800023d8:	4581                	li	a1,0
    800023da:	425040ef          	jal	ra,80006ffe <memset>
    800023de:	a00a8693          	addi	a3,s5,-1536
    800023e2:	0810                	addi	a2,sp,16
    800023e4:	96b2                	add	a3,a3,a2
    800023e6:	77f5                	lui	a5,0xffffd
    800023e8:	97b6                	add	a5,a5,a3
    800023ea:	f03e                	sd	a5,32(sp)
    800023ec:	00007717          	auipc	a4,0x7
    800023f0:	01c70713          	addi	a4,a4,28 # 80009408 <main+0x173a>
    800023f4:	e0078793          	addi	a5,a5,-512 # ffffffffffffce00 <dram_end_address_reg+0xffffffff2fffcdf0>
    800023f8:	00009697          	auipc	a3,0x9
    800023fc:	91068693          	addi	a3,a3,-1776 # 8000ad08 <main+0x303a>
    80002400:	00073803          	ld	a6,0(a4)
    80002404:	6708                	ld	a0,8(a4)
    80002406:	6b0c                	ld	a1,16(a4)
    80002408:	6f10                	ld	a2,24(a4)
    8000240a:	0107b023          	sd	a6,0(a5)
    8000240e:	e788                	sd	a0,8(a5)
    80002410:	eb8c                	sd	a1,16(a5)
    80002412:	ef90                	sd	a2,24(a5)
    80002414:	02070713          	addi	a4,a4,32
    80002418:	02078793          	addi	a5,a5,32
    8000241c:	fed712e3          	bne	a4,a3,80002400 <zanga+0x3cc>
    80002420:	6621                	lui	a2,0x8
    80002422:	a0060713          	addi	a4,a2,-1536 # 7a00 <buflen.2784+0x79c0>
    80002426:	0814                	addi	a3,sp,16
    80002428:	9736                	add	a4,a4,a3
    8000242a:	77e1                	lui	a5,0xffff8
    8000242c:	97ba                	add	a5,a5,a4
    8000242e:	f43e                	sd	a5,40(sp)
    80002430:	7722                	ld	a4,40(sp)
    80002432:	6785                	lui	a5,0x1
    80002434:	a0060693          	addi	a3,a2,-1536
    80002438:	97ba                	add	a5,a5,a4
    8000243a:	080c                	addi	a1,sp,16
    8000243c:	f03e                	sd	a5,32(sp)
    8000243e:	96ae                	add	a3,a3,a1
    80002440:	77f5                	lui	a5,0xffffd
    80002442:	75a2                	ld	a1,40(sp)
    80002444:	e0078793          	addi	a5,a5,-512 # ffffffffffffce00 <dram_end_address_reg+0xffffffff2fffcdf0>
    80002448:	97b6                	add	a5,a5,a3
    8000244a:	7ef5b423          	sd	a5,2024(a1)
    8000244e:	4789                	li	a5,2
    80002450:	7ef5b823          	sd	a5,2032(a1)
    80002454:	64000793          	li	a5,1600
    80002458:	7ef5bc23          	sd	a5,2040(a1)
    8000245c:	7582                	ld	a1,32(sp)
    8000245e:	05000793          	li	a5,80
    80002462:	76f9                	lui	a3,0xffffe
    80002464:	80f5b023          	sd	a5,-2048(a1)
    80002468:	47d1                	li	a5,20
    8000246a:	80f5b423          	sd	a5,-2040(a1)
    8000246e:	a0060793          	addi	a5,a2,-1536
    80002472:	0810                	addi	a2,sp,16
    80002474:	97b2                	add	a5,a5,a2
    80002476:	4705                	li	a4,1
    80002478:	97b6                	add	a5,a5,a3
    8000247a:	80e5b823          	sd	a4,-2032(a1)
    8000247e:	80e5bc23          	sd	a4,-2024(a1)
    80002482:	82e5b023          	sd	a4,-2016(a1)
    80002486:	f03e                	sd	a5,32(sp)
    80002488:	00009717          	auipc	a4,0x9
    8000248c:	88070713          	addi	a4,a4,-1920 # 8000ad08 <main+0x303a>
    80002490:	70078793          	addi	a5,a5,1792
    80002494:	0000a697          	auipc	a3,0xa
    80002498:	17468693          	addi	a3,a3,372 # 8000c608 <main+0x493a>
    8000249c:	00073803          	ld	a6,0(a4)
    800024a0:	6708                	ld	a0,8(a4)
    800024a2:	6b0c                	ld	a1,16(a4)
    800024a4:	6f10                	ld	a2,24(a4)
    800024a6:	0107b023          	sd	a6,0(a5)
    800024aa:	e788                	sd	a0,8(a5)
    800024ac:	eb8c                	sd	a1,16(a5)
    800024ae:	ef90                	sd	a2,24(a5)
    800024b0:	02070713          	addi	a4,a4,32
    800024b4:	02078793          	addi	a5,a5,32
    800024b8:	fed712e3          	bne	a4,a3,8000249c <zanga+0x468>
    800024bc:	66a1                	lui	a3,0x8
    800024be:	a0068713          	addi	a4,a3,-1536 # 7a00 <buflen.2784+0x79c0>
    800024c2:	0810                	addi	a2,sp,16
    800024c4:	9732                	add	a4,a4,a2
    800024c6:	77e5                	lui	a5,0xffff9
    800024c8:	97ba                	add	a5,a5,a4
    800024ca:	f03e                	sd	a5,32(sp)
    800024cc:	a0068693          	addi	a3,a3,-1536
    800024d0:	77f9                	lui	a5,0xffffe
    800024d2:	96b2                	add	a3,a3,a2
    800024d4:	70078793          	addi	a5,a5,1792 # ffffffffffffe700 <dram_end_address_reg+0xffffffff2fffe6f0>
    800024d8:	97b6                	add	a5,a5,a3
    800024da:	7682                	ld	a3,32(sp)
    800024dc:	4705                	li	a4,1
    800024de:	82f6b423          	sd	a5,-2008(a3)
    800024e2:	4789                	li	a5,2
    800024e4:	82f6b823          	sd	a5,-2000(a3)
    800024e8:	64000793          	li	a5,1600
    800024ec:	82f6bc23          	sd	a5,-1992(a3)
    800024f0:	05000793          	li	a5,80
    800024f4:	84f6b023          	sd	a5,-1984(a3)
    800024f8:	47d1                	li	a5,20
    800024fa:	84f6b423          	sd	a5,-1976(a3)
    800024fe:	84e6b823          	sd	a4,-1968(a3)
    80002502:	84e6bc23          	sd	a4,-1960(a3)
    80002506:	86e6b023          	sd	a4,-1952(a3)
    8000250a:	b3068793          	addi	a5,a3,-1232
    8000250e:	00006717          	auipc	a4,0x6
    80002512:	34270713          	addi	a4,a4,834 # 80008850 <main+0xb82>
    80002516:	00006697          	auipc	a3,0x6
    8000251a:	47a68693          	addi	a3,a3,1146 # 80008990 <main+0xcc2>
    8000251e:	00073803          	ld	a6,0(a4)
    80002522:	6708                	ld	a0,8(a4)
    80002524:	6b0c                	ld	a1,16(a4)
    80002526:	6f10                	ld	a2,24(a4)
    80002528:	0107b023          	sd	a6,0(a5)
    8000252c:	e788                	sd	a0,8(a5)
    8000252e:	eb8c                	sd	a1,16(a5)
    80002530:	ef90                	sd	a2,24(a5)
    80002532:	02070713          	addi	a4,a4,32
    80002536:	02078793          	addi	a5,a5,32
    8000253a:	fed712e3          	bne	a4,a3,8000251e <zanga+0x4ea>
    8000253e:	65a1                	lui	a1,0x8
    80002540:	0810                	addi	a2,sp,16
    80002542:	a0058693          	addi	a3,a1,-1536 # 7a00 <buflen.2784+0x79c0>
    80002546:	96b2                	add	a3,a3,a2
    80002548:	77e5                	lui	a5,0xffff9
    8000254a:	b3078713          	addi	a4,a5,-1232 # ffffffffffff8b30 <dram_end_address_reg+0xffffffff2fff8b20>
    8000254e:	97b6                	add	a5,a5,a3
    80002550:	f03e                	sd	a5,32(sp)
    80002552:	0808                	addi	a0,sp,16
    80002554:	a0058613          	addi	a2,a1,-1536
    80002558:	962a                	add	a2,a2,a0
    8000255a:	7502                	ld	a0,32(sp)
    8000255c:	4785                	li	a5,1
    8000255e:	05000693          	li	a3,80
    80002562:	86f53823          	sd	a5,-1936(a0) # ffffffffffffb870 <dram_end_address_reg+0xffffffff2fffb860>
    80002566:	86d53c23          	sd	a3,-1928(a0)
    8000256a:	88d53023          	sd	a3,-1920(a0)
    8000256e:	88f53423          	sd	a5,-1912(a0)
    80002572:	0814                	addi	a3,sp,16
    80002574:	88f53823          	sd	a5,-1904(a0)
    80002578:	88f53c23          	sd	a5,-1896(a0)
    8000257c:	8af53023          	sd	a5,-1888(a0)
    80002580:	a0058793          	addi	a5,a1,-1536
    80002584:	9732                	add	a4,a4,a2
    80002586:	97b6                	add	a5,a5,a3
    80002588:	7669                	lui	a2,0xffffa
    8000258a:	97b2                	add	a5,a5,a2
    8000258c:	86e53423          	sd	a4,-1944(a0)
    80002590:	f03e                	sd	a5,32(sp)
    80002592:	0000a717          	auipc	a4,0xa
    80002596:	07670713          	addi	a4,a4,118 # 8000c608 <main+0x493a>
    8000259a:	2f078793          	addi	a5,a5,752
    8000259e:	0000b697          	auipc	a3,0xb
    800025a2:	9ca68693          	addi	a3,a3,-1590 # 8000cf68 <main+0x529a>
    800025a6:	00073803          	ld	a6,0(a4)
    800025aa:	6708                	ld	a0,8(a4)
    800025ac:	6b0c                	ld	a1,16(a4)
    800025ae:	6f10                	ld	a2,24(a4)
    800025b0:	0107b023          	sd	a6,0(a5)
    800025b4:	e788                	sd	a0,8(a5)
    800025b6:	eb8c                	sd	a1,16(a5)
    800025b8:	ef90                	sd	a2,24(a5)
    800025ba:	02070713          	addi	a4,a4,32
    800025be:	02078793          	addi	a5,a5,32
    800025c2:	fed712e3          	bne	a4,a3,800025a6 <zanga+0x572>
    800025c6:	66a1                	lui	a3,0x8
    800025c8:	a0068713          	addi	a4,a3,-1536 # 7a00 <buflen.2784+0x79c0>
    800025cc:	0810                	addi	a2,sp,16
    800025ce:	9732                	add	a4,a4,a2
    800025d0:	77e5                	lui	a5,0xffff9
    800025d2:	97ba                	add	a5,a5,a4
    800025d4:	f03e                	sd	a5,32(sp)
    800025d6:	a0068693          	addi	a3,a3,-1536
    800025da:	77e9                	lui	a5,0xffffa
    800025dc:	96b2                	add	a3,a3,a2
    800025de:	2f078793          	addi	a5,a5,752 # ffffffffffffa2f0 <dram_end_address_reg+0xffffffff2fffa2e0>
    800025e2:	97b6                	add	a5,a5,a3
    800025e4:	7682                	ld	a3,32(sp)
    800025e6:	4705                	li	a4,1
    800025e8:	8af6b423          	sd	a5,-1880(a3)
    800025ec:	4789                	li	a5,2
    800025ee:	8af6b823          	sd	a5,-1872(a3)
    800025f2:	25800793          	li	a5,600
    800025f6:	8af6bc23          	sd	a5,-1864(a3)
    800025fa:	47d1                	li	a5,20
    800025fc:	8cf6b023          	sd	a5,-1856(a3)
    80002600:	47f9                	li	a5,30
    80002602:	8cf6b423          	sd	a5,-1848(a3)
    80002606:	8ce6b823          	sd	a4,-1840(a3)
    8000260a:	8ce6bc23          	sd	a4,-1832(a3)
    8000260e:	8ee6b023          	sd	a4,-1824(a3)
    80002612:	a1868793          	addi	a5,a3,-1512
    80002616:	00006717          	auipc	a4,0x6
    8000261a:	37a70713          	addi	a4,a4,890 # 80008990 <main+0xcc2>
    8000261e:	00006697          	auipc	a3,0x6
    80002622:	3ea68693          	addi	a3,a3,1002 # 80008a08 <main+0xd3a>
    80002626:	00073883          	ld	a7,0(a4)
    8000262a:	00873803          	ld	a6,8(a4)
    8000262e:	6b08                	ld	a0,16(a4)
    80002630:	6f0c                	ld	a1,24(a4)
    80002632:	7310                	ld	a2,32(a4)
    80002634:	0117b023          	sd	a7,0(a5)
    80002638:	0107b423          	sd	a6,8(a5)
    8000263c:	eb88                	sd	a0,16(a5)
    8000263e:	ef8c                	sd	a1,24(a5)
    80002640:	f390                	sd	a2,32(a5)
    80002642:	02870713          	addi	a4,a4,40
    80002646:	02878793          	addi	a5,a5,40
    8000264a:	fcd71ee3          	bne	a4,a3,80002626 <zanga+0x5f2>
    8000264e:	6aa1                	lui	s5,0x8
    80002650:	0808                	addi	a0,sp,16
    80002652:	a00a8693          	addi	a3,s5,-1536 # 7a00 <buflen.2784+0x79c0>
    80002656:	96aa                	add	a3,a3,a0
    80002658:	650d                	lui	a0,0x3
    8000265a:	7465                	lui	s0,0xffff9
    8000265c:	0804                	addi	s1,sp,16
    8000265e:	a0050513          	addi	a0,a0,-1536 # 2a00 <buflen.2784+0x29c0>
    80002662:	a1840793          	addi	a5,s0,-1512 # ffffffffffff8a18 <dram_end_address_reg+0xffffffff2fff8a08>
    80002666:	9526                	add	a0,a0,s1
    80002668:	6605                	lui	a2,0x1
    8000266a:	4705                	li	a4,1
    8000266c:	97b6                	add	a5,a5,a3
    8000266e:	9b060613          	addi	a2,a2,-1616 # 9b0 <buflen.2784+0x970>
    80002672:	46f9                	li	a3,30
    80002674:	4581                	li	a1,0
    80002676:	c5050513          	addi	a0,a0,-944
    8000267a:	2ef13c23          	sd	a5,760(sp)
    8000267e:	30e13023          	sd	a4,768(sp)
    80002682:	30d13423          	sd	a3,776(sp)
    80002686:	30d13823          	sd	a3,784(sp)
    8000268a:	30e13c23          	sd	a4,792(sp)
    8000268e:	32e13023          	sd	a4,800(sp)
    80002692:	32e13423          	sd	a4,808(sp)
    80002696:	32e13823          	sd	a4,816(sp)
    8000269a:	165040ef          	jal	ra,80006ffe <memset>
    8000269e:	00006517          	auipc	a0,0x6
    800026a2:	9da50513          	addi	a0,a0,-1574 # 80008078 <main+0x3aa>
    800026a6:	7f5000ef          	jal	ra,8000369a <printf_>
    800026aa:	74e1                	lui	s1,0xffff8
    800026ac:	0814                	addi	a3,sp,16
    800026ae:	a00a8793          	addi	a5,s5,-1536
    800026b2:	0808                	addi	a0,sp,16
    800026b4:	97b6                	add	a5,a5,a3
    800026b6:	62848b13          	addi	s6,s1,1576 # ffffffffffff8628 <dram_end_address_reg+0xffffffff2fff8618>
    800026ba:	a00a8593          	addi	a1,s5,-1536
    800026be:	9b3e                	add	s6,s6,a5
    800026c0:	95aa                	add	a1,a1,a0
    800026c2:	77f1                	lui	a5,0xffffc
    800026c4:	97ae                	add	a5,a5,a1
    800026c6:	a00a8593          	addi	a1,s5,-1536
    800026ca:	86818b93          	addi	s7,gp,-1944 # 80010ee8 <k2c_relu>
    800026ce:	95aa                	add	a1,a1,a0
    800026d0:	6a848693          	addi	a3,s1,1704
    800026d4:	000bb703          	ld	a4,0(s7)
    800026d8:	96ae                	add	a3,a3,a1
    800026da:	a00a8593          	addi	a1,s5,-1536
    800026de:	95aa                	add	a1,a1,a0
    800026e0:	66848613          	addi	a2,s1,1640
    800026e4:	962e                	add	a2,a2,a1
    800026e6:	855a                	mv	a0,s6
    800026e8:	85ce                	mv	a1,s3
    800026ea:	0e3020ef          	jal	ra,80004fcc <k2c_dense>
    800026ee:	00006517          	auipc	a0,0x6
    800026f2:	9a250513          	addi	a0,a0,-1630 # 80008090 <main+0x3c2>
    800026f6:	8c56                	mv	s8,s5
    800026f8:	7a3000ef          	jal	ra,8000369a <printf_>
    800026fc:	0814                	addi	a3,sp,16
    800026fe:	a00c0793          	addi	a5,s8,-1536
    80002702:	97b6                	add	a5,a5,a3
    80002704:	6e848a93          	addi	s5,s1,1768
    80002708:	0808                	addi	a0,sp,16
    8000270a:	9abe                	add	s5,s5,a5
    8000270c:	a00c0593          	addi	a1,s8,-1536
    80002710:	77e9                	lui	a5,0xffffa
    80002712:	95aa                	add	a1,a1,a0
    80002714:	a3078793          	addi	a5,a5,-1488 # ffffffffffff9a30 <dram_end_address_reg+0xffffffff2fff9a20>
    80002718:	97ae                	add	a5,a5,a1
    8000271a:	a00c0593          	addi	a1,s8,-1536
    8000271e:	95aa                	add	a1,a1,a0
    80002720:	76848693          	addi	a3,s1,1896
    80002724:	000bb703          	ld	a4,0(s7)
    80002728:	96ae                	add	a3,a3,a1
    8000272a:	a00c0593          	addi	a1,s8,-1536
    8000272e:	95aa                	add	a1,a1,a0
    80002730:	72848613          	addi	a2,s1,1832
    80002734:	962e                	add	a2,a2,a1
    80002736:	8556                	mv	a0,s5
    80002738:	85da                	mv	a1,s6
    8000273a:	093020ef          	jal	ra,80004fcc <k2c_dense>
    8000273e:	00006517          	auipc	a0,0x6
    80002742:	96a50513          	addi	a0,a0,-1686 # 800080a8 <main+0x3da>
    80002746:	755000ef          	jal	ra,8000369a <printf_>
    8000274a:	0808                	addi	a0,sp,16
    8000274c:	a00c0593          	addi	a1,s8,-1536
    80002750:	0818                	addi	a4,sp,16
    80002752:	95aa                	add	a1,a1,a0
    80002754:	a00c0793          	addi	a5,s8,-1536
    80002758:	17040813          	addi	a6,s0,368
    8000275c:	982e                	add	a6,a6,a1
    8000275e:	97ba                	add	a5,a5,a4
    80002760:	7a848993          	addi	s3,s1,1960
    80002764:	a00c0593          	addi	a1,s8,-1536
    80002768:	99be                	add	s3,s3,a5
    8000276a:	95aa                	add	a1,a1,a0
    8000276c:	86840793          	addi	a5,s0,-1944
    80002770:	97ae                	add	a5,a5,a1
    80002772:	a00c0593          	addi	a1,s8,-1536
    80002776:	95aa                	add	a1,a1,a0
    80002778:	82840713          	addi	a4,s0,-2008
    8000277c:	000bb303          	ld	t1,0(s7)
    80002780:	972e                	add	a4,a4,a1
    80002782:	a00c0593          	addi	a1,s8,-1536
    80002786:	95aa                	add	a1,a1,a0
    80002788:	7e848693          	addi	a3,s1,2024
    8000278c:	96ae                	add	a3,a3,a1
    8000278e:	a00c0593          	addi	a1,s8,-1536
    80002792:	95aa                	add	a1,a1,a0
    80002794:	e81a                	sd	t1,16(sp)
    80002796:	a9040613          	addi	a2,s0,-1392
    8000279a:	8601b303          	ld	t1,-1952(gp) # 80010ee0 <k2c_hard_sigmoid>
    8000279e:	e41a                	sd	t1,8(sp)
    800027a0:	4881                	li	a7,0
    800027a2:	962e                	add	a2,a2,a1
    800027a4:	854e                	mv	a0,s3
    800027a6:	85d6                	mv	a1,s5
    800027a8:	e002                	sd	zero,0(sp)
    800027aa:	3dd030ef          	jal	ra,80006386 <k2c_lstm>
    800027ae:	00006517          	auipc	a0,0x6
    800027b2:	91250513          	addi	a0,a0,-1774 # 800080c0 <main+0x3f2>
    800027b6:	6e5000ef          	jal	ra,8000369a <printf_>
    800027ba:	080c                	addi	a1,sp,16
    800027bc:	a00c0713          	addi	a4,s8,-1536
    800027c0:	972e                	add	a4,a4,a1
    800027c2:	8e840693          	addi	a3,s0,-1816
    800027c6:	8a840613          	addi	a2,s0,-1880
    800027ca:	a00c0593          	addi	a1,s8,-1536
    800027ce:	0800                	addi	s0,sp,16
    800027d0:	95a2                	add	a1,a1,s0
    800027d2:	96ae                	add	a3,a3,a1
    800027d4:	7a6d                	lui	s4,0xffffb
    800027d6:	a00c0593          	addi	a1,s8,-1536
    800027da:	95a2                	add	a1,a1,s0
    800027dc:	c50a0793          	addi	a5,s4,-944 # ffffffffffffac50 <dram_end_address_reg+0xffffffff2fffac40>
    800027e0:	854a                	mv	a0,s2
    800027e2:	97ba                	add	a5,a5,a4
    800027e4:	962e                	add	a2,a2,a1
    800027e6:	8781b703          	ld	a4,-1928(gp) # 80010ef8 <k2c_linear>
    800027ea:	85ce                	mv	a1,s3
    800027ec:	7e0020ef          	jal	ra,80004fcc <k2c_dense>
    800027f0:	00006517          	auipc	a0,0x6
    800027f4:	8e850513          	addi	a0,a0,-1816 # 800080d8 <main+0x40a>
    800027f8:	6a3000ef          	jal	ra,8000369a <printf_>
    800027fc:	6321                	lui	t1,0x8
    800027fe:	a0030313          	addi	t1,t1,-1536 # 7a00 <buflen.2784+0x79c0>
    80002802:	911a                	add	sp,sp,t1
    80002804:	60e6                	ld	ra,88(sp)
    80002806:	6446                	ld	s0,80(sp)
    80002808:	64a6                	ld	s1,72(sp)
    8000280a:	6906                	ld	s2,64(sp)
    8000280c:	79e2                	ld	s3,56(sp)
    8000280e:	7a42                	ld	s4,48(sp)
    80002810:	7aa2                	ld	s5,40(sp)
    80002812:	7b02                	ld	s6,32(sp)
    80002814:	6be2                	ld	s7,24(sp)
    80002816:	6c42                	ld	s8,16(sp)
    80002818:	6125                	addi	sp,sp,96
    8000281a:	8082                	ret

000000008000281c <zanga_initialize>:
    8000281c:	00006517          	auipc	a0,0x6
    80002820:	8d450513          	addi	a0,a0,-1836 # 800080f0 <main+0x422>
    80002824:	6770006f          	j	8000369a <printf_>

0000000080002828 <zanga_terminate>:
    80002828:	00006517          	auipc	a0,0x6
    8000282c:	8d850513          	addi	a0,a0,-1832 # 80008100 <main+0x432>
    80002830:	66b0006f          	j	8000369a <printf_>

0000000080002834 <_out_buffer>:
    80002834:	00d67563          	bgeu	a2,a3,8000283e <_out_buffer+0xa>
    80002838:	95b2                	add	a1,a1,a2
    8000283a:	00a58023          	sb	a0,0(a1)
    8000283e:	8082                	ret

0000000080002840 <_out_null>:
    80002840:	8082                	ret

0000000080002842 <_out_char>:
    80002842:	c509                	beqz	a0,8000284c <_out_char+0xa>
    80002844:	3fffd797          	auipc	a5,0x3fffd
    80002848:	7aa78e23          	sb	a0,1980(a5) # c0000000 <fake_uart>
    8000284c:	8082                	ret

000000008000284e <_ntoa_format>:
    8000284e:	7159                	addi	sp,sp,-112
    80002850:	430a                	lw	t1,128(sp)
    80002852:	e8ca                	sd	s2,80(sp)
    80002854:	e4ce                	sd	s3,72(sp)
    80002856:	e0d2                	sd	s4,64(sp)
    80002858:	fc56                	sd	s5,56(sp)
    8000285a:	f45e                	sd	s7,40(sp)
    8000285c:	f062                	sd	s8,32(sp)
    8000285e:	ec66                	sd	s9,24(sp)
    80002860:	00237e13          	andi	t3,t1,2
    80002864:	01037e93          	andi	t4,t1,16
    80002868:	f486                	sd	ra,104(sp)
    8000286a:	f0a2                	sd	s0,96(sp)
    8000286c:	eca6                	sd	s1,88(sp)
    8000286e:	f85a                	sd	s6,48(sp)
    80002870:	e86a                	sd	s10,16(sp)
    80002872:	e46e                	sd	s11,8(sp)
    80002874:	5f46                	lw	t5,112(sp)
    80002876:	5c66                	lw	s8,120(sp)
    80002878:	89aa                	mv	s3,a0
    8000287a:	8a2e                	mv	s4,a1
    8000287c:	8bb2                	mv	s7,a2
    8000287e:	8ab6                	mv	s5,a3
    80002880:	893a                	mv	s2,a4
    80002882:	000e0c9b          	sext.w	s9,t3
    80002886:	2e81                	sext.w	t4,t4
    80002888:	060e1563          	bnez	t3,800028f2 <_ntoa_format+0xa4>
    8000288c:	020f1693          	slli	a3,t5,0x20
    80002890:	00137513          	andi	a0,t1,1
    80002894:	9281                	srli	a3,a3,0x20
    80002896:	1c0c1b63          	bnez	s8,80002a6c <_ntoa_format+0x21e>
    8000289a:	02d7f463          	bgeu	a5,a3,800028c2 <_ntoa_format+0x74>
    8000289e:	02000713          	li	a4,32
    800028a2:	0ae78163          	beq	a5,a4,80002944 <_ntoa_format+0xf6>
    800028a6:	03000613          	li	a2,48
    800028aa:	02000593          	li	a1,32
    800028ae:	a019                	j	800028b4 <_ntoa_format+0x66>
    800028b0:	00b78963          	beq	a5,a1,800028c2 <_ntoa_format+0x74>
    800028b4:	0785                	addi	a5,a5,1
    800028b6:	00f90733          	add	a4,s2,a5
    800028ba:	fec70fa3          	sb	a2,-1(a4)
    800028be:	fed7e9e3          	bltu	a5,a3,800028b0 <_ntoa_format+0x62>
    800028c2:	c905                	beqz	a0,800028f2 <_ntoa_format+0xa4>
    800028c4:	020c1693          	slli	a3,s8,0x20
    800028c8:	9281                	srli	a3,a3,0x20
    800028ca:	02d7f463          	bgeu	a5,a3,800028f2 <_ntoa_format+0xa4>
    800028ce:	02000713          	li	a4,32
    800028d2:	2ae78f63          	beq	a5,a4,80002b90 <_ntoa_format+0x342>
    800028d6:	03000613          	li	a2,48
    800028da:	02000593          	li	a1,32
    800028de:	a019                	j	800028e4 <_ntoa_format+0x96>
    800028e0:	1ab78263          	beq	a5,a1,80002a84 <_ntoa_format+0x236>
    800028e4:	0785                	addi	a5,a5,1
    800028e6:	00f90733          	add	a4,s2,a5
    800028ea:	fec70fa3          	sb	a2,-1(a4)
    800028ee:	fed799e3          	bne	a5,a3,800028e0 <_ntoa_format+0x92>
    800028f2:	0a0e8263          	beqz	t4,80002996 <_ntoa_format+0x148>
    800028f6:	40037713          	andi	a4,t1,1024
    800028fa:	1c071363          	bnez	a4,80002ac0 <_ntoa_format+0x272>
    800028fe:	1a079763          	bnez	a5,80002aac <_ntoa_format+0x25e>
    80002902:	47c1                	li	a5,16
    80002904:	22f88b63          	beq	a7,a5,80002b3a <_ntoa_format+0x2ec>
    80002908:	4789                	li	a5,2
    8000290a:	26f88363          	beq	a7,a5,80002b70 <_ntoa_format+0x322>
    8000290e:	03000793          	li	a5,48
    80002912:	00f90023          	sb	a5,0(s2)
    80002916:	4785                	li	a5,1
    80002918:	16080c63          	beqz	a6,80002a90 <_ntoa_format+0x242>
    8000291c:	00f90733          	add	a4,s2,a5
    80002920:	00178413          	addi	s0,a5,1
    80002924:	02d00793          	li	a5,45
    80002928:	00f70023          	sb	a5,0(a4)
    8000292c:	00337313          	andi	t1,t1,3
    80002930:	00031863          	bnez	t1,80002940 <_ntoa_format+0xf2>
    80002934:	020c1b13          	slli	s6,s8,0x20
    80002938:	020b5b13          	srli	s6,s6,0x20
    8000293c:	07646d63          	bltu	s0,s6,800029b6 <_ntoa_format+0x168>
    80002940:	8b5e                	mv	s6,s7
    80002942:	a8dd                	j	80002a38 <_ntoa_format+0x1ea>
    80002944:	14051063          	bnez	a0,80002a84 <_ntoa_format+0x236>
    80002948:	8c66                	mv	s8,s9
    8000294a:	240e8e63          	beqz	t4,80002ba6 <_ntoa_format+0x358>
    8000294e:	40037793          	andi	a5,t1,1024
    80002952:	e7b1                	bnez	a5,8000299e <_ntoa_format+0x150>
    80002954:	02000793          	li	a5,32
    80002958:	14ff1f63          	bne	t5,a5,80002ab6 <_ntoa_format+0x268>
    8000295c:	02000793          	li	a5,32
    80002960:	477d                	li	a4,31
    80002962:	46c1                	li	a3,16
    80002964:	20d88c63          	beq	a7,a3,80002b7c <_ntoa_format+0x32e>
    80002968:	4689                	li	a3,2
    8000296a:	87ba                	mv	a5,a4
    8000296c:	00d89e63          	bne	a7,a3,80002988 <_ntoa_format+0x13a>
    80002970:	00e906b3          	add	a3,s2,a4
    80002974:	00170793          	addi	a5,a4,1
    80002978:	06200713          	li	a4,98
    8000297c:	00e68023          	sb	a4,0(a3)
    80002980:	02000713          	li	a4,32
    80002984:	00e78d63          	beq	a5,a4,8000299e <_ntoa_format+0x150>
    80002988:	00f90733          	add	a4,s2,a5
    8000298c:	03000693          	li	a3,48
    80002990:	00d70023          	sb	a3,0(a4)
    80002994:	0785                	addi	a5,a5,1
    80002996:	02000713          	li	a4,32
    8000299a:	f6e79fe3          	bne	a5,a4,80002918 <_ntoa_format+0xca>
    8000299e:	00337313          	andi	t1,t1,3
    800029a2:	08031863          	bnez	t1,80002a32 <_ntoa_format+0x1e4>
    800029a6:	02000413          	li	s0,32
    800029aa:	020c1b13          	slli	s6,s8,0x20
    800029ae:	020b5b13          	srli	s6,s6,0x20
    800029b2:	0f647a63          	bgeu	s0,s6,80002aa6 <_ntoa_format+0x258>
    800029b6:	408b0b33          	sub	s6,s6,s0
    800029ba:	9b5e                	add	s6,s6,s7
    800029bc:	84de                	mv	s1,s7
    800029be:	8626                	mv	a2,s1
    800029c0:	86d6                	mv	a3,s5
    800029c2:	0485                	addi	s1,s1,1
    800029c4:	85d2                	mv	a1,s4
    800029c6:	02000513          	li	a0,32
    800029ca:	9982                	jalr	s3
    800029cc:	ff6499e3          	bne	s1,s6,800029be <_ntoa_format+0x170>
    800029d0:	e425                	bnez	s0,80002a38 <_ntoa_format+0x1ea>
    800029d2:	040c8063          	beqz	s9,80002a12 <_ntoa_format+0x1c4>
    800029d6:	1c02                	slli	s8,s8,0x20
    800029d8:	417b0433          	sub	s0,s6,s7
    800029dc:	020c5c13          	srli	s8,s8,0x20
    800029e0:	03847963          	bgeu	s0,s8,80002a12 <_ntoa_format+0x1c4>
    800029e4:	008b8633          	add	a2,s7,s0
    800029e8:	86d6                	mv	a3,s5
    800029ea:	0405                	addi	s0,s0,1
    800029ec:	85d2                	mv	a1,s4
    800029ee:	02000513          	li	a0,32
    800029f2:	9982                	jalr	s3
    800029f4:	ff8468e3          	bltu	s0,s8,800029e4 <_ntoa_format+0x196>
    800029f8:	417b0733          	sub	a4,s6,s7
    800029fc:	0705                	addi	a4,a4,1
    800029fe:	4781                	li	a5,0
    80002a00:	00ec6763          	bltu	s8,a4,80002a0e <_ntoa_format+0x1c0>
    80002a04:	fffb8793          	addi	a5,s7,-1
    80002a08:	9c3e                	add	s8,s8,a5
    80002a0a:	416c07b3          	sub	a5,s8,s6
    80002a0e:	0b05                	addi	s6,s6,1
    80002a10:	9b3e                	add	s6,s6,a5
    80002a12:	70a6                	ld	ra,104(sp)
    80002a14:	7406                	ld	s0,96(sp)
    80002a16:	64e6                	ld	s1,88(sp)
    80002a18:	6946                	ld	s2,80(sp)
    80002a1a:	69a6                	ld	s3,72(sp)
    80002a1c:	6a06                	ld	s4,64(sp)
    80002a1e:	7ae2                	ld	s5,56(sp)
    80002a20:	7ba2                	ld	s7,40(sp)
    80002a22:	7c02                	ld	s8,32(sp)
    80002a24:	6ce2                	ld	s9,24(sp)
    80002a26:	6d42                	ld	s10,16(sp)
    80002a28:	6da2                	ld	s11,8(sp)
    80002a2a:	855a                	mv	a0,s6
    80002a2c:	7b42                	ld	s6,48(sp)
    80002a2e:	6165                	addi	sp,sp,112
    80002a30:	8082                	ret
    80002a32:	8b5e                	mv	s6,s7
    80002a34:	02000413          	li	s0,32
    80002a38:	00890d33          	add	s10,s2,s0
    80002a3c:	008b0733          	add	a4,s6,s0
    80002a40:	fff40d93          	addi	s11,s0,-1
    80002a44:	84ea                	mv	s1,s10
    80002a46:	993a                	add	s2,s2,a4
    80002a48:	fff4c503          	lbu	a0,-1(s1)
    80002a4c:	40990633          	sub	a2,s2,s1
    80002a50:	86d6                	mv	a3,s5
    80002a52:	85d2                	mv	a1,s4
    80002a54:	14fd                	addi	s1,s1,-1
    80002a56:	9982                	jalr	s3
    80002a58:	409d07b3          	sub	a5,s10,s1
    80002a5c:	fe87e6e3          	bltu	a5,s0,80002a48 <_ntoa_format+0x1fa>
    80002a60:	0b05                	addi	s6,s6,1
    80002a62:	4781                	li	a5,0
    80002a64:	c011                	beqz	s0,80002a68 <_ntoa_format+0x21a>
    80002a66:	87ee                	mv	a5,s11
    80002a68:	9b3e                	add	s6,s6,a5
    80002a6a:	b7a5                	j	800029d2 <_ntoa_format+0x184>
    80002a6c:	c925                	beqz	a0,80002adc <_ntoa_format+0x28e>
    80002a6e:	0a081663          	bnez	a6,80002b1a <_ntoa_format+0x2cc>
    80002a72:	00c37713          	andi	a4,t1,12
    80002a76:	e355                	bnez	a4,80002b1a <_ntoa_format+0x2cc>
    80002a78:	e4d7f6e3          	bgeu	a5,a3,800028c4 <_ntoa_format+0x76>
    80002a7c:	02000713          	li	a4,32
    80002a80:	e2e793e3          	bne	a5,a4,800028a6 <_ntoa_format+0x58>
    80002a84:	f00e8de3          	beqz	t4,8000299e <_ntoa_format+0x150>
    80002a88:	40037793          	andi	a5,t1,1024
    80002a8c:	fb89                	bnez	a5,8000299e <_ntoa_format+0x150>
    80002a8e:	b5d9                	j	80002954 <_ntoa_format+0x106>
    80002a90:	00437713          	andi	a4,t1,4
    80002a94:	eb39                	bnez	a4,80002aea <_ntoa_format+0x29c>
    80002a96:	00837713          	andi	a4,t1,8
    80002a9a:	e759                	bnez	a4,80002b28 <_ntoa_format+0x2da>
    80002a9c:	00337313          	andi	t1,t1,3
    80002aa0:	843e                	mv	s0,a5
    80002aa2:	f00304e3          	beqz	t1,800029aa <_ntoa_format+0x15c>
    80002aa6:	8b5e                	mv	s6,s7
    80002aa8:	f841                	bnez	s0,80002a38 <_ntoa_format+0x1ea>
    80002aaa:	b725                	j	800029d2 <_ntoa_format+0x184>
    80002aac:	1f02                	slli	t5,t5,0x20
    80002aae:	020f5f13          	srli	t5,t5,0x20
    80002ab2:	06ff0663          	beq	t5,a5,80002b1e <_ntoa_format+0x2d0>
    80002ab6:	020c1713          	slli	a4,s8,0x20
    80002aba:	9301                	srli	a4,a4,0x20
    80002abc:	06f70163          	beq	a4,a5,80002b1e <_ntoa_format+0x2d0>
    80002ac0:	4741                	li	a4,16
    80002ac2:	02e88d63          	beq	a7,a4,80002afc <_ntoa_format+0x2ae>
    80002ac6:	4709                	li	a4,2
    80002ac8:	eae89ce3          	bne	a7,a4,80002980 <_ntoa_format+0x132>
    80002acc:	02000713          	li	a4,32
    80002ad0:	ece787e3          	beq	a5,a4,8000299e <_ntoa_format+0x150>
    80002ad4:	00f906b3          	add	a3,s2,a5
    80002ad8:	0785                	addi	a5,a5,1
    80002ada:	bd79                	j	80002978 <_ntoa_format+0x12a>
    80002adc:	e0d7fbe3          	bgeu	a5,a3,800028f2 <_ntoa_format+0xa4>
    80002ae0:	02000713          	li	a4,32
    80002ae4:	dce791e3          	bne	a5,a4,800028a6 <_ntoa_format+0x58>
    80002ae8:	b58d                	j	8000294a <_ntoa_format+0xfc>
    80002aea:	00f90733          	add	a4,s2,a5
    80002aee:	00178413          	addi	s0,a5,1
    80002af2:	02b00793          	li	a5,43
    80002af6:	00f70023          	sb	a5,0(a4)
    80002afa:	bd0d                	j	8000292c <_ntoa_format+0xde>
    80002afc:	02037713          	andi	a4,t1,32
    80002b00:	e731                	bnez	a4,80002b4c <_ntoa_format+0x2fe>
    80002b02:	02000713          	li	a4,32
    80002b06:	e8e78ce3          	beq	a5,a4,8000299e <_ntoa_format+0x150>
    80002b0a:	00f90733          	add	a4,s2,a5
    80002b0e:	0785                	addi	a5,a5,1
    80002b10:	07800693          	li	a3,120
    80002b14:	00d70023          	sb	a3,0(a4)
    80002b18:	b5a5                	j	80002980 <_ntoa_format+0x132>
    80002b1a:	3c7d                	addiw	s8,s8,-1
    80002b1c:	bfb1                	j	80002a78 <_ntoa_format+0x22a>
    80002b1e:	fff78713          	addi	a4,a5,-1
    80002b22:	de0700e3          	beqz	a4,80002902 <_ntoa_format+0xb4>
    80002b26:	bd35                	j	80002962 <_ntoa_format+0x114>
    80002b28:	00f90733          	add	a4,s2,a5
    80002b2c:	00178413          	addi	s0,a5,1
    80002b30:	02000793          	li	a5,32
    80002b34:	00f70023          	sb	a5,0(a4)
    80002b38:	bbd5                	j	8000292c <_ntoa_format+0xde>
    80002b3a:	02037793          	andi	a5,t1,32
    80002b3e:	e39d                	bnez	a5,80002b64 <_ntoa_format+0x316>
    80002b40:	07800793          	li	a5,120
    80002b44:	00f90023          	sb	a5,0(s2)
    80002b48:	4785                	li	a5,1
    80002b4a:	bd3d                	j	80002988 <_ntoa_format+0x13a>
    80002b4c:	02000713          	li	a4,32
    80002b50:	e4e787e3          	beq	a5,a4,8000299e <_ntoa_format+0x150>
    80002b54:	00f90733          	add	a4,s2,a5
    80002b58:	05800693          	li	a3,88
    80002b5c:	00d70023          	sb	a3,0(a4)
    80002b60:	0785                	addi	a5,a5,1
    80002b62:	bd39                	j	80002980 <_ntoa_format+0x132>
    80002b64:	05800793          	li	a5,88
    80002b68:	00f90023          	sb	a5,0(s2)
    80002b6c:	4785                	li	a5,1
    80002b6e:	bd29                	j	80002988 <_ntoa_format+0x13a>
    80002b70:	06200793          	li	a5,98
    80002b74:	00f90023          	sb	a5,0(s2)
    80002b78:	4785                	li	a5,1
    80002b7a:	b539                	j	80002988 <_ntoa_format+0x13a>
    80002b7c:	02037693          	andi	a3,t1,32
    80002b80:	ffe78713          	addi	a4,a5,-2
    80002b84:	e681                	bnez	a3,80002b8c <_ntoa_format+0x33e>
    80002b86:	974a                	add	a4,a4,s2
    80002b88:	17fd                	addi	a5,a5,-1
    80002b8a:	b759                	j	80002b10 <_ntoa_format+0x2c2>
    80002b8c:	87ba                	mv	a5,a4
    80002b8e:	b7d9                	j	80002b54 <_ntoa_format+0x306>
    80002b90:	000e8b63          	beqz	t4,80002ba6 <_ntoa_format+0x358>
    80002b94:	40037713          	andi	a4,t1,1024
    80002b98:	e00713e3          	bnez	a4,8000299e <_ntoa_format+0x150>
    80002b9c:	00ff0863          	beq	t5,a5,80002bac <_ntoa_format+0x35e>
    80002ba0:	defc1fe3          	bne	s8,a5,8000299e <_ntoa_format+0x150>
    80002ba4:	bb75                	j	80002960 <_ntoa_format+0x112>
    80002ba6:	02000413          	li	s0,32
    80002baa:	b349                	j	8000292c <_ntoa_format+0xde>
    80002bac:	4741                	li	a4,16
    80002bae:	fce887e3          	beq	a7,a4,80002b7c <_ntoa_format+0x32e>
    80002bb2:	4789                	li	a5,2
    80002bb4:	00f88463          	beq	a7,a5,80002bbc <_ntoa_format+0x36e>
    80002bb8:	47fd                	li	a5,31
    80002bba:	b3f9                	j	80002988 <_ntoa_format+0x13a>
    80002bbc:	477d                	li	a4,31
    80002bbe:	bb4d                	j	80002970 <_ntoa_format+0x122>

0000000080002bc0 <_ntoa_long>:
    80002bc0:	715d                	addi	sp,sp,-80
    80002bc2:	e0a2                	sd	s0,64(sp)
    80002bc4:	e486                	sd	ra,72(sp)
    80002bc6:	8ec2                	mv	t4,a6
    80002bc8:	4466                	lw	s0,88(sp)
    80002bca:	8e3a                	mv	t3,a4
    80002bcc:	883e                	mv	a6,a5
    80002bce:	e709                	bnez	a4,80002bd8 <_ntoa_long+0x18>
    80002bd0:	40047793          	andi	a5,s0,1024
    80002bd4:	983d                	andi	s0,s0,-17
    80002bd6:	e7b5                	bnez	a5,80002c42 <_ntoa_long+0x82>
    80002bd8:	02047713          	andi	a4,s0,32
    80002bdc:	06100293          	li	t0,97
    80002be0:	ef31                	bnez	a4,80002c3c <_ntoa_long+0x7c>
    80002be2:	4781                	li	a5,0
    80002be4:	1018                	addi	a4,sp,32
    80002be6:	43a5                	li	t2,9
    80002be8:	32d9                	addiw	t0,t0,-10
    80002bea:	02000093          	li	ra,32
    80002bee:	a021                	j	80002bf6 <_ntoa_long+0x36>
    80002bf0:	02178a63          	beq	a5,ra,80002c24 <_ntoa_long+0x64>
    80002bf4:	8e1a                	mv	t3,t1
    80002bf6:	03de7f33          	remu	t5,t3,t4
    80002bfa:	0fff7313          	zext.b	t1,t5
    80002bfe:	03030f9b          	addiw	t6,t1,48
    80002c02:	0062833b          	addw	t1,t0,t1
    80002c06:	0ff37313          	zext.b	t1,t1
    80002c0a:	01e3e463          	bltu	t2,t5,80002c12 <_ntoa_long+0x52>
    80002c0e:	0ffff313          	zext.b	t1,t6
    80002c12:	0785                	addi	a5,a5,1
    80002c14:	00f70f33          	add	t5,a4,a5
    80002c18:	fe6f0fa3          	sb	t1,-1(t5)
    80002c1c:	03de5333          	divu	t1,t3,t4
    80002c20:	fdde78e3          	bgeu	t3,t4,80002bf0 <_ntoa_long+0x30>
    80002c24:	4346                	lw	t1,80(sp)
    80002c26:	e822                	sd	s0,16(sp)
    80002c28:	e046                	sd	a7,0(sp)
    80002c2a:	e41a                	sd	t1,8(sp)
    80002c2c:	000e889b          	sext.w	a7,t4
    80002c30:	c1fff0ef          	jal	ra,8000284e <_ntoa_format>
    80002c34:	60a6                	ld	ra,72(sp)
    80002c36:	6406                	ld	s0,64(sp)
    80002c38:	6161                	addi	sp,sp,80
    80002c3a:	8082                	ret
    80002c3c:	04100293          	li	t0,65
    80002c40:	b74d                	j	80002be2 <_ntoa_long+0x22>
    80002c42:	4781                	li	a5,0
    80002c44:	1018                	addi	a4,sp,32
    80002c46:	bff9                	j	80002c24 <_ntoa_long+0x64>

0000000080002c48 <_ntoa_long_long>:
    80002c48:	715d                	addi	sp,sp,-80
    80002c4a:	e0a2                	sd	s0,64(sp)
    80002c4c:	e486                	sd	ra,72(sp)
    80002c4e:	8ec2                	mv	t4,a6
    80002c50:	4466                	lw	s0,88(sp)
    80002c52:	8e3a                	mv	t3,a4
    80002c54:	883e                	mv	a6,a5
    80002c56:	e709                	bnez	a4,80002c60 <_ntoa_long_long+0x18>
    80002c58:	40047793          	andi	a5,s0,1024
    80002c5c:	983d                	andi	s0,s0,-17
    80002c5e:	e7b5                	bnez	a5,80002cca <_ntoa_long_long+0x82>
    80002c60:	02047713          	andi	a4,s0,32
    80002c64:	06100293          	li	t0,97
    80002c68:	ef31                	bnez	a4,80002cc4 <_ntoa_long_long+0x7c>
    80002c6a:	4781                	li	a5,0
    80002c6c:	1018                	addi	a4,sp,32
    80002c6e:	43a5                	li	t2,9
    80002c70:	32d9                	addiw	t0,t0,-10
    80002c72:	02000093          	li	ra,32
    80002c76:	a021                	j	80002c7e <_ntoa_long_long+0x36>
    80002c78:	02178a63          	beq	a5,ra,80002cac <_ntoa_long_long+0x64>
    80002c7c:	8e1a                	mv	t3,t1
    80002c7e:	03de7f33          	remu	t5,t3,t4
    80002c82:	0fff7313          	zext.b	t1,t5
    80002c86:	03030f9b          	addiw	t6,t1,48
    80002c8a:	0062833b          	addw	t1,t0,t1
    80002c8e:	0ff37313          	zext.b	t1,t1
    80002c92:	01e3e463          	bltu	t2,t5,80002c9a <_ntoa_long_long+0x52>
    80002c96:	0ffff313          	zext.b	t1,t6
    80002c9a:	0785                	addi	a5,a5,1
    80002c9c:	00f70f33          	add	t5,a4,a5
    80002ca0:	fe6f0fa3          	sb	t1,-1(t5)
    80002ca4:	03de5333          	divu	t1,t3,t4
    80002ca8:	fdde78e3          	bgeu	t3,t4,80002c78 <_ntoa_long_long+0x30>
    80002cac:	4346                	lw	t1,80(sp)
    80002cae:	e822                	sd	s0,16(sp)
    80002cb0:	e046                	sd	a7,0(sp)
    80002cb2:	e41a                	sd	t1,8(sp)
    80002cb4:	000e889b          	sext.w	a7,t4
    80002cb8:	b97ff0ef          	jal	ra,8000284e <_ntoa_format>
    80002cbc:	60a6                	ld	ra,72(sp)
    80002cbe:	6406                	ld	s0,64(sp)
    80002cc0:	6161                	addi	sp,sp,80
    80002cc2:	8082                	ret
    80002cc4:	04100293          	li	t0,65
    80002cc8:	b74d                	j	80002c6a <_ntoa_long_long+0x22>
    80002cca:	4781                	li	a5,0
    80002ccc:	1018                	addi	a4,sp,32
    80002cce:	bff9                	j	80002cac <_ntoa_long_long+0x64>

0000000080002cd0 <_vsnprintf>:
    80002cd0:	7155                	addi	sp,sp,-208
    80002cd2:	e1a2                	sd	s0,192(sp)
    80002cd4:	f54e                	sd	s3,168(sp)
    80002cd6:	f152                	sd	s4,160(sp)
    80002cd8:	ed56                	sd	s5,152(sp)
    80002cda:	e55e                	sd	s7,136(sp)
    80002cdc:	e586                	sd	ra,200(sp)
    80002cde:	fd26                	sd	s1,184(sp)
    80002ce0:	f94a                	sd	s2,176(sp)
    80002ce2:	e95a                	sd	s6,144(sp)
    80002ce4:	e162                	sd	s8,128(sp)
    80002ce6:	fce6                	sd	s9,120(sp)
    80002ce8:	f8ea                	sd	s10,112(sp)
    80002cea:	f4ee                	sd	s11,104(sp)
    80002cec:	aca2                	fsd	fs0,88(sp)
    80002cee:	a8a6                	fsd	fs1,80(sp)
    80002cf0:	8bae                	mv	s7,a1
    80002cf2:	89b2                	mv	s3,a2
    80002cf4:	8436                	mv	s0,a3
    80002cf6:	8aba                	mv	s5,a4
    80002cf8:	00000a17          	auipc	s4,0x0
    80002cfc:	b48a0a13          	addi	s4,s4,-1208 # 80002840 <_out_null>
    80002d00:	c191                	beqz	a1,80002d04 <_vsnprintf+0x34>
    80002d02:	8a2a                	mv	s4,a0
    80002d04:	00044503          	lbu	a0,0(s0)
    80002d08:	4c01                	li	s8,0
    80002d0a:	66050563          	beqz	a0,80003374 <_vsnprintf+0x6a4>
    80002d0e:	0000e797          	auipc	a5,0xe
    80002d12:	1727b407          	fld	fs0,370(a5) # 80010e80 <impure_data+0x748>
    80002d16:	0000e797          	auipc	a5,0xe
    80002d1a:	1727b487          	fld	fs1,370(a5) # 80010e88 <impure_data+0x750>
    80002d1e:	6b41                	lui	s6,0x10
    80002d20:	fffb0793          	addi	a5,s6,-1 # ffff <buflen.2784+0xffbf>
    80002d24:	0000a917          	auipc	s2,0xa
    80002d28:	24490913          	addi	s2,s2,580 # 8000cf68 <main+0x529a>
    80002d2c:	ec3e                	sd	a5,24(sp)
    80002d2e:	a811                	j	80002d42 <_vsnprintf+0x72>
    80002d30:	8662                	mv	a2,s8
    80002d32:	86ce                	mv	a3,s3
    80002d34:	85de                	mv	a1,s7
    80002d36:	0c05                	addi	s8,s8,1
    80002d38:	9a02                	jalr	s4
    80002d3a:	00044503          	lbu	a0,0(s0)
    80002d3e:	14050963          	beqz	a0,80002e90 <_vsnprintf+0x1c0>
    80002d42:	02500793          	li	a5,37
    80002d46:	0405                	addi	s0,s0,1
    80002d48:	fef514e3          	bne	a0,a5,80002d30 <_vsnprintf+0x60>
    80002d4c:	4481                	li	s1,0
    80002d4e:	4641                	li	a2,16
    80002d50:	00044503          	lbu	a0,0(s0)
    80002d54:	00140713          	addi	a4,s0,1
    80002d58:	86ba                	mv	a3,a4
    80002d5a:	fe05079b          	addiw	a5,a0,-32
    80002d5e:	0ff7f793          	zext.b	a5,a5
    80002d62:	00f66763          	bltu	a2,a5,80002d70 <_vsnprintf+0xa0>
    80002d66:	078a                	slli	a5,a5,0x2
    80002d68:	97ca                	add	a5,a5,s2
    80002d6a:	439c                	lw	a5,0(a5)
    80002d6c:	97ca                	add	a5,a5,s2
    80002d6e:	8782                	jr	a5
    80002d70:	fd05079b          	addiw	a5,a0,-48
    80002d74:	0ff7f793          	zext.b	a5,a5
    80002d78:	4625                	li	a2,9
    80002d7a:	0af67963          	bgeu	a2,a5,80002e2c <_vsnprintf+0x15c>
    80002d7e:	02a00793          	li	a5,42
    80002d82:	16f50c63          	beq	a0,a5,80002efa <_vsnprintf+0x22a>
    80002d86:	86a2                	mv	a3,s0
    80002d88:	4b01                	li	s6,0
    80002d8a:	843a                	mv	s0,a4
    80002d8c:	02e00793          	li	a5,46
    80002d90:	4d81                	li	s11,0
    80002d92:	0cf50c63          	beq	a0,a5,80002e6a <_vsnprintf+0x19a>
    80002d96:	f985079b          	addiw	a5,a0,-104
    80002d9a:	0ff7f793          	zext.b	a5,a5
    80002d9e:	4749                	li	a4,18
    80002da0:	04f76e63          	bltu	a4,a5,80002dfc <_vsnprintf+0x12c>
    80002da4:	0000a717          	auipc	a4,0xa
    80002da8:	20870713          	addi	a4,a4,520 # 8000cfac <main+0x52de>
    80002dac:	078a                	slli	a5,a5,0x2
    80002dae:	97ba                	add	a5,a5,a4
    80002db0:	439c                	lw	a5,0(a5)
    80002db2:	97ba                	add	a5,a5,a4
    80002db4:	8782                	jr	a5
    80002db6:	0014e493          	ori	s1,s1,1
    80002dba:	2481                	sext.w	s1,s1
    80002dbc:	843a                	mv	s0,a4
    80002dbe:	bf49                	j	80002d50 <_vsnprintf+0x80>
    80002dc0:	0024e493          	ori	s1,s1,2
    80002dc4:	2481                	sext.w	s1,s1
    80002dc6:	843a                	mv	s0,a4
    80002dc8:	b761                	j	80002d50 <_vsnprintf+0x80>
    80002dca:	0044e493          	ori	s1,s1,4
    80002dce:	2481                	sext.w	s1,s1
    80002dd0:	843a                	mv	s0,a4
    80002dd2:	bfbd                	j	80002d50 <_vsnprintf+0x80>
    80002dd4:	0104e493          	ori	s1,s1,16
    80002dd8:	2481                	sext.w	s1,s1
    80002dda:	843a                	mv	s0,a4
    80002ddc:	bf95                	j	80002d50 <_vsnprintf+0x80>
    80002dde:	0084e493          	ori	s1,s1,8
    80002de2:	2481                	sext.w	s1,s1
    80002de4:	843a                	mv	s0,a4
    80002de6:	b7ad                	j	80002d50 <_vsnprintf+0x80>
    80002de8:	0016c503          	lbu	a0,1(a3)
    80002dec:	06800793          	li	a5,104
    80002df0:	4cf50463          	beq	a0,a5,800032b8 <_vsnprintf+0x5e8>
    80002df4:	0804e493          	ori	s1,s1,128
    80002df8:	2481                	sext.w	s1,s1
    80002dfa:	0405                	addi	s0,s0,1
    80002dfc:	fdb5079b          	addiw	a5,a0,-37
    80002e00:	0ff7f793          	zext.b	a5,a5
    80002e04:	05300713          	li	a4,83
    80002e08:	f2f764e3          	bltu	a4,a5,80002d30 <_vsnprintf+0x60>
    80002e0c:	0000a717          	auipc	a4,0xa
    80002e10:	1ec70713          	addi	a4,a4,492 # 8000cff8 <main+0x532a>
    80002e14:	078a                	slli	a5,a5,0x2
    80002e16:	97ba                	add	a5,a5,a4
    80002e18:	439c                	lw	a5,0(a5)
    80002e1a:	97ba                	add	a5,a5,a4
    80002e1c:	8782                	jr	a5
    80002e1e:	0016c503          	lbu	a0,1(a3)
    80002e22:	1004e493          	ori	s1,s1,256
    80002e26:	2481                	sext.w	s1,s1
    80002e28:	0405                	addi	s0,s0,1
    80002e2a:	bfc9                	j	80002dfc <_vsnprintf+0x12c>
    80002e2c:	4b01                	li	s6,0
    80002e2e:	46a5                	li	a3,9
    80002e30:	a011                	j	80002e34 <_vsnprintf+0x164>
    80002e32:	0705                	addi	a4,a4,1
    80002e34:	002b179b          	slliw	a5,s6,0x2
    80002e38:	016787bb          	addw	a5,a5,s6
    80002e3c:	0017979b          	slliw	a5,a5,0x1
    80002e40:	9fa9                	addw	a5,a5,a0
    80002e42:	00074503          	lbu	a0,0(a4)
    80002e46:	fd078b1b          	addiw	s6,a5,-48
    80002e4a:	8622                	mv	a2,s0
    80002e4c:	fd05079b          	addiw	a5,a0,-48
    80002e50:	0ff7f793          	zext.b	a5,a5
    80002e54:	843a                	mv	s0,a4
    80002e56:	fcf6fee3          	bgeu	a3,a5,80002e32 <_vsnprintf+0x162>
    80002e5a:	02e00793          	li	a5,46
    80002e5e:	86ba                	mv	a3,a4
    80002e60:	00260413          	addi	s0,a2,2
    80002e64:	4d81                	li	s11,0
    80002e66:	f2f518e3          	bne	a0,a5,80002d96 <_vsnprintf+0xc6>
    80002e6a:	0016c503          	lbu	a0,1(a3)
    80002e6e:	4004e493          	ori	s1,s1,1024
    80002e72:	4725                	li	a4,9
    80002e74:	fd05079b          	addiw	a5,a0,-48
    80002e78:	0ff7f793          	zext.b	a5,a5
    80002e7c:	2481                	sext.w	s1,s1
    80002e7e:	04f77663          	bgeu	a4,a5,80002eca <_vsnprintf+0x1fa>
    80002e82:	02a00793          	li	a5,42
    80002e86:	32f50f63          	beq	a0,a5,800031c4 <_vsnprintf+0x4f4>
    80002e8a:	86a2                	mv	a3,s0
    80002e8c:	0405                	addi	s0,s0,1
    80002e8e:	b721                	j	80002d96 <_vsnprintf+0xc6>
    80002e90:	000c041b          	sext.w	s0,s8
    80002e94:	013c6463          	bltu	s8,s3,80002e9c <_vsnprintf+0x1cc>
    80002e98:	fff98c13          	addi	s8,s3,-1
    80002e9c:	86ce                	mv	a3,s3
    80002e9e:	8662                	mv	a2,s8
    80002ea0:	85de                	mv	a1,s7
    80002ea2:	4501                	li	a0,0
    80002ea4:	9a02                	jalr	s4
    80002ea6:	60ae                	ld	ra,200(sp)
    80002ea8:	8522                	mv	a0,s0
    80002eaa:	640e                	ld	s0,192(sp)
    80002eac:	74ea                	ld	s1,184(sp)
    80002eae:	794a                	ld	s2,176(sp)
    80002eb0:	79aa                	ld	s3,168(sp)
    80002eb2:	7a0a                	ld	s4,160(sp)
    80002eb4:	6aea                	ld	s5,152(sp)
    80002eb6:	6b4a                	ld	s6,144(sp)
    80002eb8:	6baa                	ld	s7,136(sp)
    80002eba:	6c0a                	ld	s8,128(sp)
    80002ebc:	7ce6                	ld	s9,120(sp)
    80002ebe:	7d46                	ld	s10,112(sp)
    80002ec0:	7da6                	ld	s11,104(sp)
    80002ec2:	2466                	fld	fs0,88(sp)
    80002ec4:	24c6                	fld	fs1,80(sp)
    80002ec6:	6169                	addi	sp,sp,208
    80002ec8:	8082                	ret
    80002eca:	002d979b          	slliw	a5,s11,0x2
    80002ece:	01b788bb          	addw	a7,a5,s11
    80002ed2:	8622                	mv	a2,s0
    80002ed4:	0018989b          	slliw	a7,a7,0x1
    80002ed8:	0405                	addi	s0,s0,1
    80002eda:	00a888bb          	addw	a7,a7,a0
    80002ede:	00044503          	lbu	a0,0(s0)
    80002ee2:	fd088d9b          	addiw	s11,a7,-48
    80002ee6:	fd05079b          	addiw	a5,a0,-48
    80002eea:	0ff7f793          	zext.b	a5,a5
    80002eee:	fcf77ee3          	bgeu	a4,a5,80002eca <_vsnprintf+0x1fa>
    80002ef2:	86a2                	mv	a3,s0
    80002ef4:	00260413          	addi	s0,a2,2
    80002ef8:	bd79                	j	80002d96 <_vsnprintf+0xc6>
    80002efa:	000aa783          	lw	a5,0(s5)
    80002efe:	0aa1                	addi	s5,s5,8
    80002f00:	00078b1b          	sext.w	s6,a5
    80002f04:	0007c663          	bltz	a5,80002f10 <_vsnprintf+0x240>
    80002f08:	00144503          	lbu	a0,1(s0)
    80002f0c:	0409                	addi	s0,s0,2
    80002f0e:	bdbd                	j	80002d8c <_vsnprintf+0xbc>
    80002f10:	0024e493          	ori	s1,s1,2
    80002f14:	00144503          	lbu	a0,1(s0)
    80002f18:	2481                	sext.w	s1,s1
    80002f1a:	40f00b3b          	negw	s6,a5
    80002f1e:	0409                	addi	s0,s0,2
    80002f20:	b5b5                	j	80002d8c <_vsnprintf+0xbc>
    80002f22:	07800793          	li	a5,120
    80002f26:	008a8c93          	addi	s9,s5,8
    80002f2a:	6cf50d63          	beq	a0,a5,80003604 <_vsnprintf+0x934>
    80002f2e:	05800793          	li	a5,88
    80002f32:	2cf50e63          	beq	a0,a5,8000320e <_vsnprintf+0x53e>
    80002f36:	06f00793          	li	a5,111
    80002f3a:	68f50563          	beq	a0,a5,800035c4 <_vsnprintf+0x8f4>
    80002f3e:	06200793          	li	a5,98
    80002f42:	6af50f63          	beq	a0,a5,80003600 <_vsnprintf+0x930>
    80002f46:	fef4f693          	andi	a3,s1,-17
    80002f4a:	4004f793          	andi	a5,s1,1024
    80002f4e:	06900713          	li	a4,105
    80002f52:	2681                	sext.w	a3,a3
    80002f54:	2781                	sext.w	a5,a5
    80002f56:	72e51563          	bne	a0,a4,80003680 <_vsnprintf+0x9b0>
    80002f5a:	58079563          	bnez	a5,800034e4 <_vsnprintf+0x814>
    80002f5e:	2004f493          	andi	s1,s1,512
    80002f62:	0004879b          	sext.w	a5,s1
    80002f66:	4829                	li	a6,10
    80002f68:	54079463          	bnez	a5,800034b0 <_vsnprintf+0x7e0>
    80002f6c:	1006f793          	andi	a5,a3,256
    80002f70:	8636                	mv	a2,a3
    80002f72:	66079963          	bnez	a5,800035e4 <_vsnprintf+0x914>
    80002f76:	0406f713          	andi	a4,a3,64
    80002f7a:	000aa783          	lw	a5,0(s5)
    80002f7e:	5c071d63          	bnez	a4,80003558 <_vsnprintf+0x888>
    80002f82:	08067613          	andi	a2,a2,128
    80002f86:	6a060163          	beqz	a2,80003628 <_vsnprintf+0x958>
    80002f8a:	0107979b          	slliw	a5,a5,0x10
    80002f8e:	4107d79b          	sraiw	a5,a5,0x10
    80002f92:	40f7d61b          	sraiw	a2,a5,0xf
    80002f96:	00c7c733          	xor	a4,a5,a2
    80002f9a:	9f11                	subw	a4,a4,a2
    80002f9c:	1742                	slli	a4,a4,0x30
    80002f9e:	9341                	srli	a4,a4,0x30
    80002fa0:	8662                	mv	a2,s8
    80002fa2:	e436                	sd	a3,8(sp)
    80002fa4:	e05a                	sd	s6,0(sp)
    80002fa6:	88ee                	mv	a7,s11
    80002fa8:	01f7d79b          	srliw	a5,a5,0x1f
    80002fac:	86ce                	mv	a3,s3
    80002fae:	85de                	mv	a1,s7
    80002fb0:	8552                	mv	a0,s4
    80002fb2:	c0fff0ef          	jal	ra,80002bc0 <_ntoa_long>
    80002fb6:	8c2a                	mv	s8,a0
    80002fb8:	8ae6                	mv	s5,s9
    80002fba:	b341                	j	80002d3a <_vsnprintf+0x6a>
    80002fbc:	0016c503          	lbu	a0,1(a3)
    80002fc0:	06c00793          	li	a5,108
    80002fc4:	e4f51fe3          	bne	a0,a5,80002e22 <_vsnprintf+0x152>
    80002fc8:	3004e493          	ori	s1,s1,768
    80002fcc:	0026c503          	lbu	a0,2(a3)
    80002fd0:	2481                	sext.w	s1,s1
    80002fd2:	00368413          	addi	s0,a3,3
    80002fd6:	b51d                	j	80002dfc <_vsnprintf+0x12c>
    80002fd8:	000ab707          	fld	fa4,0(s5)
    80002fdc:	f20007d3          	fmv.d.x	fa5,zero
    80002fe0:	008a8793          	addi	a5,s5,8
    80002fe4:	f43e                	sd	a5,40(sp)
    80002fe6:	a2f717d3          	flt.d	a5,fa4,fa5
    80002fea:	4581                	li	a1,0
    80002fec:	20079963          	bnez	a5,800031fe <_vsnprintf+0x52e>
    80002ff0:	4004f793          	andi	a5,s1,1024
    80002ff4:	e391                	bnez	a5,80002ff8 <_vsnprintf+0x328>
    80002ff6:	4d99                	li	s11,6
    80002ff8:	4c81                	li	s9,0
    80002ffa:	4725                	li	a4,9
    80002ffc:	03000613          	li	a2,48
    80003000:	02000693          	li	a3,32
    80003004:	01b77a63          	bgeu	a4,s11,80003018 <_vsnprintf+0x348>
    80003008:	0c85                	addi	s9,s9,1
    8000300a:	181c                	addi	a5,sp,48
    8000300c:	97e6                	add	a5,a5,s9
    8000300e:	fec78fa3          	sb	a2,-1(a5)
    80003012:	3dfd                	addiw	s11,s11,-1
    80003014:	fedc98e3          	bne	s9,a3,80003004 <_vsnprintf+0x334>
    80003018:	c2071653          	fcvt.w.d	a2,fa4,rtz
    8000301c:	020d9793          	slli	a5,s11,0x20
    80003020:	9381                	srli	a5,a5,0x20
    80003022:	d20607d3          	fcvt.d.w	fa5,a2
    80003026:	0000a717          	auipc	a4,0xa
    8000302a:	12270713          	addi	a4,a4,290 # 8000d148 <pow10.1709>
    8000302e:	078e                	slli	a5,a5,0x3
    80003030:	0af777d3          	fsub.d	fa5,fa4,fa5
    80003034:	97ba                	add	a5,a5,a4
    80003036:	2394                	fld	fa3,0(a5)
    80003038:	0006069b          	sext.w	a3,a2
    8000303c:	12d7f7d3          	fmul.d	fa5,fa5,fa3
    80003040:	c2379753          	fcvt.lu.d	a4,fa5,rtz
    80003044:	d2377653          	fcvt.d.lu	fa2,a4
    80003048:	0ac7f7d3          	fsub.d	fa5,fa5,fa2
    8000304c:	a2f417d3          	flt.d	a5,fs0,fa5
    80003050:	18078f63          	beqz	a5,800031ee <_vsnprintf+0x51e>
    80003054:	0705                	addi	a4,a4,1
    80003056:	d23777d3          	fcvt.d.lu	fa5,a4
    8000305a:	a2f687d3          	fle.d	a5,fa3,fa5
    8000305e:	c781                	beqz	a5,80003066 <_vsnprintf+0x396>
    80003060:	0016069b          	addiw	a3,a2,1
    80003064:	4701                	li	a4,0
    80003066:	a2e497d3          	flt.d	a5,fs1,fa4
    8000306a:	30079763          	bnez	a5,80003378 <_vsnprintf+0x6a8>
    8000306e:	300d9863          	bnez	s11,8000337e <_vsnprintf+0x6ae>
    80003072:	d20687d3          	fcvt.d.w	fa5,a3
    80003076:	0af77753          	fsub.d	fa4,fa4,fa5
    8000307a:	a2e407d3          	fle.d	a5,fs0,fa4
    8000307e:	c789                	beqz	a5,80003088 <_vsnprintf+0x3b8>
    80003080:	0016f793          	andi	a5,a3,1
    80003084:	c391                	beqz	a5,80003088 <_vsnprintf+0x3b8>
    80003086:	2685                	addiw	a3,a3,1
    80003088:	02000513          	li	a0,32
    8000308c:	47a9                	li	a5,10
    8000308e:	22ac8f63          	beq	s9,a0,800032cc <_vsnprintf+0x5fc>
    80003092:	02f6ed3b          	remw	s10,a3,a5
    80003096:	001c8a93          	addi	s5,s9,1
    8000309a:	1818                	addi	a4,sp,48
    8000309c:	01570633          	add	a2,a4,s5
    800030a0:	02f6c6bb          	divw	a3,a3,a5
    800030a4:	030d0d1b          	addiw	s10,s10,48
    800030a8:	0ffd7d13          	zext.b	s10,s10
    800030ac:	ffa60fa3          	sb	s10,-1(a2)
    800030b0:	30068563          	beqz	a3,800033ba <_vsnprintf+0x6ea>
    800030b4:	8cd6                	mv	s9,s5
    800030b6:	bfe1                	j	8000308e <_vsnprintf+0x3be>
    800030b8:	000abc83          	ld	s9,0(s5)
    800030bc:	008a8793          	addi	a5,s5,8
    800030c0:	f03e                	sd	a5,32(sp)
    800030c2:	000cc503          	lbu	a0,0(s9)
    800030c6:	100d9d63          	bnez	s11,800031e0 <_vsnprintf+0x510>
    800030ca:	57f9                	li	a5,-2
    800030cc:	56050463          	beqz	a0,80003634 <_vsnprintf+0x964>
    800030d0:	00178613          	addi	a2,a5,1
    800030d4:	00cc86b3          	add	a3,s9,a2
    800030d8:	87e6                	mv	a5,s9
    800030da:	a019                	j	800030e0 <_vsnprintf+0x410>
    800030dc:	1cd78b63          	beq	a5,a3,800032b2 <_vsnprintf+0x5e2>
    800030e0:	0017c703          	lbu	a4,1(a5)
    800030e4:	0785                	addi	a5,a5,1
    800030e6:	fb7d                	bnez	a4,800030dc <_vsnprintf+0x40c>
    800030e8:	41978abb          	subw	s5,a5,s9
    800030ec:	4004f793          	andi	a5,s1,1024
    800030f0:	00078d1b          	sext.w	s10,a5
    800030f4:	c799                	beqz	a5,80003102 <_vsnprintf+0x432>
    800030f6:	87d6                	mv	a5,s5
    800030f8:	015df363          	bgeu	s11,s5,800030fe <_vsnprintf+0x42e>
    800030fc:	87ee                	mv	a5,s11
    800030fe:	00078a9b          	sext.w	s5,a5
    80003102:	0024f793          	andi	a5,s1,2
    80003106:	0007871b          	sext.w	a4,a5
    8000310a:	f43a                	sd	a4,40(sp)
    8000310c:	30078c63          	beqz	a5,80003424 <_vsnprintf+0x754>
    80003110:	16050563          	beqz	a0,8000327a <_vsnprintf+0x5aa>
    80003114:	8662                	mv	a2,s8
    80003116:	000d0763          	beqz	s10,80003124 <_vsnprintf+0x454>
    8000311a:	fffd879b          	addiw	a5,s11,-1
    8000311e:	140d8a63          	beqz	s11,80003272 <_vsnprintf+0x5a2>
    80003122:	8dbe                	mv	s11,a5
    80003124:	86ce                	mv	a3,s3
    80003126:	85de                	mv	a1,s7
    80003128:	00160493          	addi	s1,a2,1
    8000312c:	9a02                	jalr	s4
    8000312e:	418487b3          	sub	a5,s1,s8
    80003132:	97e6                	add	a5,a5,s9
    80003134:	0007c503          	lbu	a0,0(a5)
    80003138:	12050e63          	beqz	a0,80003274 <_vsnprintf+0x5a4>
    8000313c:	8626                	mv	a2,s1
    8000313e:	bfe1                	j	80003116 <_vsnprintf+0x446>
    80003140:	8662                	mv	a2,s8
    80003142:	86ce                	mv	a3,s3
    80003144:	85de                	mv	a1,s7
    80003146:	02500513          	li	a0,37
    8000314a:	0c05                	addi	s8,s8,1
    8000314c:	9a02                	jalr	s4
    8000314e:	b6f5                	j	80002d3a <_vsnprintf+0x6a>
    80003150:	0214e793          	ori	a5,s1,33
    80003154:	000ab703          	ld	a4,0(s5)
    80003158:	2781                	sext.w	a5,a5
    8000315a:	e43e                	sd	a5,8(sp)
    8000315c:	47c1                	li	a5,16
    8000315e:	8662                	mv	a2,s8
    80003160:	e03e                	sd	a5,0(sp)
    80003162:	88ee                	mv	a7,s11
    80003164:	4841                	li	a6,16
    80003166:	4781                	li	a5,0
    80003168:	86ce                	mv	a3,s3
    8000316a:	85de                	mv	a1,s7
    8000316c:	8552                	mv	a0,s4
    8000316e:	adbff0ef          	jal	ra,80002c48 <_ntoa_long_long>
    80003172:	0aa1                	addi	s5,s5,8
    80003174:	8c2a                	mv	s8,a0
    80003176:	b6d1                	j	80002d3a <_vsnprintf+0x6a>
    80003178:	001c0813          	addi	a6,s8,1
    8000317c:	8889                	andi	s1,s1,2
    8000317e:	008a8d13          	addi	s10,s5,8
    80003182:	8cc2                	mv	s9,a6
    80003184:	26048063          	beqz	s1,800033e4 <_vsnprintf+0x714>
    80003188:	000ac503          	lbu	a0,0(s5)
    8000318c:	86ce                	mv	a3,s3
    8000318e:	8662                	mv	a2,s8
    80003190:	85de                	mv	a1,s7
    80003192:	9a02                	jalr	s4
    80003194:	4785                	li	a5,1
    80003196:	4167f763          	bgeu	a5,s6,800035a4 <_vsnprintf+0x8d4>
    8000319a:	ffeb079b          	addiw	a5,s6,-2
    8000319e:	02079a93          	slli	s5,a5,0x20
    800031a2:	020ada93          	srli	s5,s5,0x20
    800031a6:	0c09                	addi	s8,s8,2
    800031a8:	015c04b3          	add	s1,s8,s5
    800031ac:	8666                	mv	a2,s9
    800031ae:	86ce                	mv	a3,s3
    800031b0:	0c85                	addi	s9,s9,1
    800031b2:	85de                	mv	a1,s7
    800031b4:	02000513          	li	a0,32
    800031b8:	9a02                	jalr	s4
    800031ba:	fe9c99e3          	bne	s9,s1,800031ac <_vsnprintf+0x4dc>
    800031be:	9c56                	add	s8,s8,s5
    800031c0:	8aea                	mv	s5,s10
    800031c2:	bea5                	j	80002d3a <_vsnprintf+0x6a>
    800031c4:	000aa883          	lw	a7,0(s5)
    800031c8:	0026c503          	lbu	a0,2(a3)
    800031cc:	00368413          	addi	s0,a3,3
    800031d0:	fff8c793          	not	a5,a7
    800031d4:	97fd                	srai	a5,a5,0x3f
    800031d6:	00f8fdb3          	and	s11,a7,a5
    800031da:	0aa1                	addi	s5,s5,8
    800031dc:	0689                	addi	a3,a3,2
    800031de:	be65                	j	80002d96 <_vsnprintf+0xc6>
    800031e0:	020d9793          	slli	a5,s11,0x20
    800031e4:	9381                	srli	a5,a5,0x20
    800031e6:	44050763          	beqz	a0,80003634 <_vsnprintf+0x964>
    800031ea:	17fd                	addi	a5,a5,-1
    800031ec:	b5d5                	j	800030d0 <_vsnprintf+0x400>
    800031ee:	a28797d3          	flt.d	a5,fa5,fs0
    800031f2:	e6079ae3          	bnez	a5,80003066 <_vsnprintf+0x396>
    800031f6:	36071563          	bnez	a4,80003560 <_vsnprintf+0x890>
    800031fa:	0705                	addi	a4,a4,1
    800031fc:	b5ad                	j	80003066 <_vsnprintf+0x396>
    800031fe:	4004f793          	andi	a5,s1,1024
    80003202:	22e71753          	fneg.d	fa4,fa4
    80003206:	4585                	li	a1,1
    80003208:	de0787e3          	beqz	a5,80002ff6 <_vsnprintf+0x326>
    8000320c:	b3f5                	j	80002ff8 <_vsnprintf+0x328>
    8000320e:	ff34f693          	andi	a3,s1,-13
    80003212:	2681                	sext.w	a3,a3
    80003214:	4004f793          	andi	a5,s1,1024
    80003218:	0206e693          	ori	a3,a3,32
    8000321c:	2a078f63          	beqz	a5,800034da <_vsnprintf+0x80a>
    80003220:	4841                	li	a6,16
    80003222:	9af9                	andi	a3,a3,-2
    80003224:	2681                	sext.w	a3,a3
    80003226:	2006f793          	andi	a5,a3,512
    8000322a:	06900713          	li	a4,105
    8000322e:	2781                	sext.w	a5,a5
    80003230:	d2e50ce3          	beq	a0,a4,80002f68 <_vsnprintf+0x298>
    80003234:	06400713          	li	a4,100
    80003238:	d2e508e3          	beq	a0,a4,80002f68 <_vsnprintf+0x298>
    8000323c:	36079c63          	bnez	a5,800035b4 <_vsnprintf+0x8e4>
    80003240:	1006f793          	andi	a5,a3,256
    80003244:	8736                	mv	a4,a3
    80003246:	3c079963          	bnez	a5,80003618 <_vsnprintf+0x948>
    8000324a:	0406f793          	andi	a5,a3,64
    8000324e:	32079c63          	bnez	a5,80003586 <_vsnprintf+0x8b6>
    80003252:	08077713          	andi	a4,a4,128
    80003256:	3e070163          	beqz	a4,80003638 <_vsnprintf+0x968>
    8000325a:	000aa703          	lw	a4,0(s5)
    8000325e:	67e2                	ld	a5,24(sp)
    80003260:	8f7d                	and	a4,a4,a5
    80003262:	1702                	slli	a4,a4,0x20
    80003264:	8662                	mv	a2,s8
    80003266:	e436                	sd	a3,8(sp)
    80003268:	e05a                	sd	s6,0(sp)
    8000326a:	88ee                	mv	a7,s11
    8000326c:	4781                	li	a5,0
    8000326e:	9301                	srli	a4,a4,0x20
    80003270:	bb35                	j	80002fac <_vsnprintf+0x2dc>
    80003272:	84b2                	mv	s1,a2
    80003274:	77a2                	ld	a5,40(sp)
    80003276:	cb9d                	beqz	a5,800032ac <_vsnprintf+0x5dc>
    80003278:	8c26                	mv	s8,s1
    8000327a:	1f6af663          	bgeu	s5,s6,80003466 <_vsnprintf+0x796>
    8000327e:	fffb079b          	addiw	a5,s6,-1
    80003282:	4157873b          	subw	a4,a5,s5
    80003286:	1702                	slli	a4,a4,0x20
    80003288:	9301                	srli	a4,a4,0x20
    8000328a:	001c0813          	addi	a6,s8,1
    8000328e:	010704b3          	add	s1,a4,a6
    80003292:	a011                	j	80003296 <_vsnprintf+0x5c6>
    80003294:	0805                	addi	a6,a6,1
    80003296:	8662                	mv	a2,s8
    80003298:	e842                	sd	a6,16(sp)
    8000329a:	86ce                	mv	a3,s3
    8000329c:	85de                	mv	a1,s7
    8000329e:	02000513          	li	a0,32
    800032a2:	8c42                	mv	s8,a6
    800032a4:	9a02                	jalr	s4
    800032a6:	6842                	ld	a6,16(sp)
    800032a8:	fe9816e3          	bne	a6,s1,80003294 <_vsnprintf+0x5c4>
    800032ac:	7a82                	ld	s5,32(sp)
    800032ae:	8c26                	mv	s8,s1
    800032b0:	b469                	j	80002d3a <_vsnprintf+0x6a>
    800032b2:	00060a9b          	sext.w	s5,a2
    800032b6:	bd1d                	j	800030ec <_vsnprintf+0x41c>
    800032b8:	0c04e493          	ori	s1,s1,192
    800032bc:	0026c503          	lbu	a0,2(a3)
    800032c0:	2481                	sext.w	s1,s1
    800032c2:	00368413          	addi	s0,a3,3
    800032c6:	be1d                	j	80002dfc <_vsnprintf+0x12c>
    800032c8:	02000c93          	li	s9,32
    800032cc:	0034f793          	andi	a5,s1,3
    800032d0:	4705                	li	a4,1
    800032d2:	18e78d63          	beq	a5,a4,8000346c <_vsnprintf+0x79c>
    800032d6:	fffc8a93          	addi	s5,s9,-1
    800032da:	0898                	addi	a4,sp,80
    800032dc:	015706b3          	add	a3,a4,s5
    800032e0:	fe06cd03          	lbu	s10,-32(a3)
    800032e4:	8de2                	mv	s11,s8
    800032e6:	e79d                	bnez	a5,80003314 <_vsnprintf+0x644>
    800032e8:	020b1793          	slli	a5,s6,0x20
    800032ec:	9381                	srli	a5,a5,0x20
    800032ee:	1afcff63          	bgeu	s9,a5,800034ac <_vsnprintf+0x7dc>
    800032f2:	419787b3          	sub	a5,a5,s9
    800032f6:	01878db3          	add	s11,a5,s8
    800032fa:	87e2                	mv	a5,s8
    800032fc:	863e                	mv	a2,a5
    800032fe:	0785                	addi	a5,a5,1
    80003300:	e83e                	sd	a5,16(sp)
    80003302:	f03e                	sd	a5,32(sp)
    80003304:	86ce                	mv	a3,s3
    80003306:	85de                	mv	a1,s7
    80003308:	02000513          	li	a0,32
    8000330c:	9a02                	jalr	s4
    8000330e:	67c2                	ld	a5,16(sp)
    80003310:	fefd96e3          	bne	s11,a5,800032fc <_vsnprintf+0x62c>
    80003314:	181c                	addi	a5,sp,48
    80003316:	9abe                	add	s5,s5,a5
    80003318:	9cee                	add	s9,s9,s11
    8000331a:	a019                	j	80003320 <_vsnprintf+0x650>
    8000331c:	000acd03          	lbu	s10,0(s5)
    80003320:	866e                	mv	a2,s11
    80003322:	86ce                	mv	a3,s3
    80003324:	85de                	mv	a1,s7
    80003326:	856a                	mv	a0,s10
    80003328:	0d85                	addi	s11,s11,1
    8000332a:	9a02                	jalr	s4
    8000332c:	1afd                	addi	s5,s5,-1
    8000332e:	ffbc97e3          	bne	s9,s11,8000331c <_vsnprintf+0x64c>
    80003332:	8889                	andi	s1,s1,2
    80003334:	cc8d                	beqz	s1,8000336e <_vsnprintf+0x69e>
    80003336:	1b02                	slli	s6,s6,0x20
    80003338:	418c84b3          	sub	s1,s9,s8
    8000333c:	020b5b13          	srli	s6,s6,0x20
    80003340:	0364f763          	bgeu	s1,s6,8000336e <_vsnprintf+0x69e>
    80003344:	01848633          	add	a2,s1,s8
    80003348:	86ce                	mv	a3,s3
    8000334a:	0485                	addi	s1,s1,1
    8000334c:	85de                	mv	a1,s7
    8000334e:	02000513          	li	a0,32
    80003352:	9a02                	jalr	s4
    80003354:	ff64e8e3          	bltu	s1,s6,80003344 <_vsnprintf+0x674>
    80003358:	418c8733          	sub	a4,s9,s8
    8000335c:	0705                	addi	a4,a4,1
    8000335e:	4781                	li	a5,0
    80003360:	1eeb7663          	bgeu	s6,a4,8000354c <_vsnprintf+0x87c>
    80003364:	0c85                	addi	s9,s9,1
    80003366:	7aa2                	ld	s5,40(sp)
    80003368:	01978c33          	add	s8,a5,s9
    8000336c:	b2f9                	j	80002d3a <_vsnprintf+0x6a>
    8000336e:	7aa2                	ld	s5,40(sp)
    80003370:	8c66                	mv	s8,s9
    80003372:	b2e1                	j	80002d3a <_vsnprintf+0x6a>
    80003374:	4401                	li	s0,0
    80003376:	be39                	j	80002e94 <_vsnprintf+0x1c4>
    80003378:	7aa2                	ld	s5,40(sp)
    8000337a:	4c01                	li	s8,0
    8000337c:	ba7d                	j	80002d3a <_vsnprintf+0x6a>
    8000337e:	fe0d8e9b          	addiw	t4,s11,-32
    80003382:	019e8ebb          	addw	t4,t4,s9
    80003386:	4529                	li	a0,10
    80003388:	4f25                	li	t5,9
    8000338a:	f5be81e3          	beq	t4,s11,800032cc <_vsnprintf+0x5fc>
    8000338e:	02a77633          	remu	a2,a4,a0
    80003392:	03010813          	addi	a6,sp,48
    80003396:	001c8793          	addi	a5,s9,1
    8000339a:	00f80e33          	add	t3,a6,a5
    8000339e:	fffd881b          	addiw	a6,s11,-1
    800033a2:	0306061b          	addiw	a2,a2,48
    800033a6:	fece0fa3          	sb	a2,-1(t3)
    800033aa:	02a75633          	divu	a2,a4,a0
    800033ae:	14ef7e63          	bgeu	t5,a4,8000350a <_vsnprintf+0x83a>
    800033b2:	8dc2                	mv	s11,a6
    800033b4:	8732                	mv	a4,a2
    800033b6:	8cbe                	mv	s9,a5
    800033b8:	bfc9                	j	8000338a <_vsnprintf+0x6ba>
    800033ba:	0034f793          	andi	a5,s1,3
    800033be:	4685                	li	a3,1
    800033c0:	0ad78563          	beq	a5,a3,8000346a <_vsnprintf+0x79a>
    800033c4:	2aaa8863          	beq	s5,a0,80003674 <_vsnprintf+0x9a4>
    800033c8:	12058063          	beqz	a1,800034e8 <_vsnprintf+0x818>
    800033cc:	0898                	addi	a4,sp,80
    800033ce:	02d00613          	li	a2,45
    800033d2:	015706b3          	add	a3,a4,s5
    800033d6:	001a8c93          	addi	s9,s5,1
    800033da:	fec68023          	sb	a2,-32(a3)
    800033de:	02d00d13          	li	s10,45
    800033e2:	b709                	j	800032e4 <_vsnprintf+0x614>
    800033e4:	4785                	li	a5,1
    800033e6:	2767fc63          	bgeu	a5,s6,8000365e <_vsnprintf+0x98e>
    800033ea:	ffeb079b          	addiw	a5,s6,-2
    800033ee:	02079493          	slli	s1,a5,0x20
    800033f2:	9081                	srli	s1,s1,0x20
    800033f4:	94c2                	add	s1,s1,a6
    800033f6:	a019                	j	800033fc <_vsnprintf+0x72c>
    800033f8:	6842                	ld	a6,16(sp)
    800033fa:	0805                	addi	a6,a6,1
    800033fc:	8662                	mv	a2,s8
    800033fe:	86ce                	mv	a3,s3
    80003400:	8c42                	mv	s8,a6
    80003402:	e842                	sd	a6,16(sp)
    80003404:	85de                	mv	a1,s7
    80003406:	02000513          	li	a0,32
    8000340a:	9a02                	jalr	s4
    8000340c:	ff8496e3          	bne	s1,s8,800033f8 <_vsnprintf+0x728>
    80003410:	00148c13          	addi	s8,s1,1
    80003414:	000ac503          	lbu	a0,0(s5)
    80003418:	86ce                	mv	a3,s3
    8000341a:	8626                	mv	a2,s1
    8000341c:	85de                	mv	a1,s7
    8000341e:	9a02                	jalr	s4
    80003420:	8aea                	mv	s5,s10
    80003422:	ba21                	j	80002d3a <_vsnprintf+0x6a>
    80003424:	001a879b          	addiw	a5,s5,1
    80003428:	236af763          	bgeu	s5,s6,80003656 <_vsnprintf+0x986>
    8000342c:	fffb079b          	addiw	a5,s6,-1
    80003430:	415787bb          	subw	a5,a5,s5
    80003434:	1782                	slli	a5,a5,0x20
    80003436:	9381                	srli	a5,a5,0x20
    80003438:	001c0813          	addi	a6,s8,1
    8000343c:	010784b3          	add	s1,a5,a6
    80003440:	a019                	j	80003446 <_vsnprintf+0x776>
    80003442:	6842                	ld	a6,16(sp)
    80003444:	0805                	addi	a6,a6,1
    80003446:	8662                	mv	a2,s8
    80003448:	86ce                	mv	a3,s3
    8000344a:	8c42                	mv	s8,a6
    8000344c:	e842                	sd	a6,16(sp)
    8000344e:	85de                	mv	a1,s7
    80003450:	02000513          	li	a0,32
    80003454:	9a02                	jalr	s4
    80003456:	ff8496e3          	bne	s1,s8,80003442 <_vsnprintf+0x772>
    8000345a:	000cc503          	lbu	a0,0(s9)
    8000345e:	001b0a9b          	addiw	s5,s6,1
    80003462:	ca0519e3          	bnez	a0,80003114 <_vsnprintf+0x444>
    80003466:	84e2                	mv	s1,s8
    80003468:	b591                	j	800032ac <_vsnprintf+0x5dc>
    8000346a:	8cd6                	mv	s9,s5
    8000346c:	100b0063          	beqz	s6,8000356c <_vsnprintf+0x89c>
    80003470:	12059e63          	bnez	a1,800035ac <_vsnprintf+0x8dc>
    80003474:	00c4f793          	andi	a5,s1,12
    80003478:	12079a63          	bnez	a5,800035ac <_vsnprintf+0x8dc>
    8000347c:	020b1713          	slli	a4,s6,0x20
    80003480:	9301                	srli	a4,a4,0x20
    80003482:	0eecf563          	bgeu	s9,a4,8000356c <_vsnprintf+0x89c>
    80003486:	47fd                	li	a5,31
    80003488:	03000613          	li	a2,48
    8000348c:	02000693          	li	a3,32
    80003490:	1d97ea63          	bltu	a5,s9,80003664 <_vsnprintf+0x994>
    80003494:	0c85                	addi	s9,s9,1
    80003496:	181c                	addi	a5,sp,48
    80003498:	97e6                	add	a5,a5,s9
    8000349a:	fec78fa3          	sb	a2,-1(a5)
    8000349e:	0d970763          	beq	a4,s9,8000356c <_vsnprintf+0x89c>
    800034a2:	fedc99e3          	bne	s9,a3,80003494 <_vsnprintf+0x7c4>
    800034a6:	03000d13          	li	s10,48
    800034aa:	4afd                	li	s5,31
    800034ac:	8de2                	mv	s11,s8
    800034ae:	b59d                	j	80003314 <_vsnprintf+0x644>
    800034b0:	000ab783          	ld	a5,0(s5)
    800034b4:	e436                	sd	a3,8(sp)
    800034b6:	8662                	mv	a2,s8
    800034b8:	43f7d713          	srai	a4,a5,0x3f
    800034bc:	00f746b3          	xor	a3,a4,a5
    800034c0:	e05a                	sd	s6,0(sp)
    800034c2:	88ee                	mv	a7,s11
    800034c4:	93fd                	srli	a5,a5,0x3f
    800034c6:	40e68733          	sub	a4,a3,a4
    800034ca:	86ce                	mv	a3,s3
    800034cc:	85de                	mv	a1,s7
    800034ce:	8552                	mv	a0,s4
    800034d0:	f78ff0ef          	jal	ra,80002c48 <_ntoa_long_long>
    800034d4:	8c2a                	mv	s8,a0
    800034d6:	8ae6                	mv	s5,s9
    800034d8:	b08d                	j	80002d3a <_vsnprintf+0x6a>
    800034da:	2004f793          	andi	a5,s1,512
    800034de:	2781                	sext.w	a5,a5
    800034e0:	4841                	li	a6,16
    800034e2:	bba9                	j	8000323c <_vsnprintf+0x56c>
    800034e4:	4829                	li	a6,10
    800034e6:	bb35                	j	80003222 <_vsnprintf+0x552>
    800034e8:	0044f693          	andi	a3,s1,4
    800034ec:	e2c5                	bnez	a3,8000358c <_vsnprintf+0x8bc>
    800034ee:	0084f693          	andi	a3,s1,8
    800034f2:	14069663          	bnez	a3,8000363e <_vsnprintf+0x96e>
    800034f6:	fffa8693          	addi	a3,s5,-1
    800034fa:	0898                	addi	a4,sp,80
    800034fc:	00d70633          	add	a2,a4,a3
    80003500:	8cd6                	mv	s9,s5
    80003502:	fe064d03          	lbu	s10,-32(a2)
    80003506:	8ab6                	mv	s5,a3
    80003508:	bbf1                	j	800032e4 <_vsnprintf+0x614>
    8000350a:	02000713          	li	a4,32
    8000350e:	dae78de3          	beq	a5,a4,800032c8 <_vsnprintf+0x5f8>
    80003512:	ffed871b          	addiw	a4,s11,-2
    80003516:	08080d63          	beqz	a6,800035b0 <_vsnprintf+0x8e0>
    8000351a:	1702                	slli	a4,a4,0x20
    8000351c:	0c89                	addi	s9,s9,2
    8000351e:	9301                	srli	a4,a4,0x20
    80003520:	9cba                	add	s9,s9,a4
    80003522:	03000513          	li	a0,48
    80003526:	02000613          	li	a2,32
    8000352a:	0785                	addi	a5,a5,1
    8000352c:	1818                	addi	a4,sp,48
    8000352e:	973e                	add	a4,a4,a5
    80003530:	fea70fa3          	sb	a0,-1(a4)
    80003534:	d8c78ae3          	beq	a5,a2,800032c8 <_vsnprintf+0x5f8>
    80003538:	fefc99e3          	bne	s9,a5,8000352a <_vsnprintf+0x85a>
    8000353c:	089c                	addi	a5,sp,80
    8000353e:	97e6                	add	a5,a5,s9
    80003540:	02e00713          	li	a4,46
    80003544:	0c85                	addi	s9,s9,1
    80003546:	fee78023          	sb	a4,-32(a5)
    8000354a:	be3d                	j	80003088 <_vsnprintf+0x3b8>
    8000354c:	fffc0793          	addi	a5,s8,-1
    80003550:	97da                	add	a5,a5,s6
    80003552:	419787b3          	sub	a5,a5,s9
    80003556:	b539                	j	80003364 <_vsnprintf+0x694>
    80003558:	0ff7f793          	zext.b	a5,a5
    8000355c:	873e                	mv	a4,a5
    8000355e:	b489                	j	80002fa0 <_vsnprintf+0x2d0>
    80003560:	00177793          	andi	a5,a4,1
    80003564:	b00781e3          	beqz	a5,80003066 <_vsnprintf+0x396>
    80003568:	0705                	addi	a4,a4,1
    8000356a:	bcf5                	j	80003066 <_vsnprintf+0x396>
    8000356c:	46fd                	li	a3,31
    8000356e:	8ae6                	mv	s5,s9
    80003570:	4785                	li	a5,1
    80003572:	e596fbe3          	bgeu	a3,s9,800033c8 <_vsnprintf+0x6f8>
    80003576:	fffc8a93          	addi	s5,s9,-1
    8000357a:	089c                	addi	a5,sp,80
    8000357c:	97d6                	add	a5,a5,s5
    8000357e:	fe07cd03          	lbu	s10,-32(a5)
    80003582:	8de2                	mv	s11,s8
    80003584:	bb41                	j	80003314 <_vsnprintf+0x644>
    80003586:	000ac703          	lbu	a4,0(s5)
    8000358a:	b9e1                	j	80003262 <_vsnprintf+0x592>
    8000358c:	0898                	addi	a4,sp,80
    8000358e:	02b00613          	li	a2,43
    80003592:	015706b3          	add	a3,a4,s5
    80003596:	001a8c93          	addi	s9,s5,1
    8000359a:	fec68023          	sb	a2,-32(a3)
    8000359e:	02b00d13          	li	s10,43
    800035a2:	b389                	j	800032e4 <_vsnprintf+0x614>
    800035a4:	8c66                	mv	s8,s9
    800035a6:	8aea                	mv	s5,s10
    800035a8:	f92ff06f          	j	80002d3a <_vsnprintf+0x6a>
    800035ac:	3b7d                	addiw	s6,s6,-1
    800035ae:	b5f9                	j	8000347c <_vsnprintf+0x7ac>
    800035b0:	8cbe                	mv	s9,a5
    800035b2:	b769                	j	8000353c <_vsnprintf+0x86c>
    800035b4:	000ab703          	ld	a4,0(s5)
    800035b8:	8662                	mv	a2,s8
    800035ba:	e436                	sd	a3,8(sp)
    800035bc:	e05a                	sd	s6,0(sp)
    800035be:	88ee                	mv	a7,s11
    800035c0:	4781                	li	a5,0
    800035c2:	b721                	j	800034ca <_vsnprintf+0x7fa>
    800035c4:	4821                	li	a6,8
    800035c6:	86a6                	mv	a3,s1
    800035c8:	4006f713          	andi	a4,a3,1024
    800035cc:	06400613          	li	a2,100
    800035d0:	87b6                	mv	a5,a3
    800035d2:	2701                	sext.w	a4,a4
    800035d4:	0ac51463          	bne	a0,a2,8000367c <_vsnprintf+0x9ac>
    800035d8:	c40715e3          	bnez	a4,80003222 <_vsnprintf+0x552>
    800035dc:	2007f793          	andi	a5,a5,512
    800035e0:	2781                	sext.w	a5,a5
    800035e2:	b259                	j	80002f68 <_vsnprintf+0x298>
    800035e4:	000ab783          	ld	a5,0(s5)
    800035e8:	e436                	sd	a3,8(sp)
    800035ea:	8662                	mv	a2,s8
    800035ec:	43f7d713          	srai	a4,a5,0x3f
    800035f0:	00f746b3          	xor	a3,a4,a5
    800035f4:	e05a                	sd	s6,0(sp)
    800035f6:	88ee                	mv	a7,s11
    800035f8:	93fd                	srli	a5,a5,0x3f
    800035fa:	40e68733          	sub	a4,a3,a4
    800035fe:	b27d                	j	80002fac <_vsnprintf+0x2dc>
    80003600:	4809                	li	a6,2
    80003602:	b7d1                	j	800035c6 <_vsnprintf+0x8f6>
    80003604:	4004f713          	andi	a4,s1,1024
    80003608:	2701                	sext.w	a4,a4
    8000360a:	4841                	li	a6,16
    8000360c:	ff34f693          	andi	a3,s1,-13
    80003610:	2681                	sext.w	a3,a3
    80003612:	c0070ae3          	beqz	a4,80003226 <_vsnprintf+0x556>
    80003616:	b131                	j	80003222 <_vsnprintf+0x552>
    80003618:	000ab703          	ld	a4,0(s5)
    8000361c:	8662                	mv	a2,s8
    8000361e:	e436                	sd	a3,8(sp)
    80003620:	e05a                	sd	s6,0(sp)
    80003622:	88ee                	mv	a7,s11
    80003624:	4781                	li	a5,0
    80003626:	b259                	j	80002fac <_vsnprintf+0x2dc>
    80003628:	41f7d61b          	sraiw	a2,a5,0x1f
    8000362c:	00c7c733          	xor	a4,a5,a2
    80003630:	9f11                	subw	a4,a4,a2
    80003632:	b2bd                	j	80002fa0 <_vsnprintf+0x2d0>
    80003634:	4a81                	li	s5,0
    80003636:	bc5d                	j	800030ec <_vsnprintf+0x41c>
    80003638:	000aa703          	lw	a4,0(s5)
    8000363c:	b11d                	j	80003262 <_vsnprintf+0x592>
    8000363e:	0898                	addi	a4,sp,80
    80003640:	02000613          	li	a2,32
    80003644:	015706b3          	add	a3,a4,s5
    80003648:	001a8c93          	addi	s9,s5,1
    8000364c:	fec68023          	sb	a2,-32(a3)
    80003650:	02000d13          	li	s10,32
    80003654:	b941                	j	800032e4 <_vsnprintf+0x614>
    80003656:	8abe                	mv	s5,a5
    80003658:	aa051ee3          	bnez	a0,80003114 <_vsnprintf+0x444>
    8000365c:	b529                	j	80003466 <_vsnprintf+0x796>
    8000365e:	84e2                	mv	s1,s8
    80003660:	8c42                	mv	s8,a6
    80003662:	bb4d                	j	80003414 <_vsnprintf+0x744>
    80003664:	fffc8a93          	addi	s5,s9,-1
    80003668:	089c                	addi	a5,sp,80
    8000366a:	97d6                	add	a5,a5,s5
    8000366c:	fe07cd03          	lbu	s10,-32(a5)
    80003670:	8de2                	mv	s11,s8
    80003672:	b14d                	j	80003314 <_vsnprintf+0x644>
    80003674:	8ae6                	mv	s5,s9
    80003676:	02000c93          	li	s9,32
    8000367a:	b1ad                	j	800032e4 <_vsnprintf+0x614>
    8000367c:	84b6                	mv	s1,a3
    8000367e:	b779                	j	8000360c <_vsnprintf+0x93c>
    80003680:	4829                	li	a6,10
    80003682:	b799                	j	800035c8 <_vsnprintf+0x8f8>

0000000080003684 <_out_fct>:
    80003684:	c509                	beqz	a0,8000368e <_out_fct+0xa>
    80003686:	0005b303          	ld	t1,0(a1)
    8000368a:	658c                	ld	a1,8(a1)
    8000368c:	8302                	jr	t1
    8000368e:	8082                	ret

0000000080003690 <_putchar>:
    80003690:	3fffd797          	auipc	a5,0x3fffd
    80003694:	96a78823          	sb	a0,-1680(a5) # c0000000 <fake_uart>
    80003698:	8082                	ret

000000008000369a <printf_>:
    8000369a:	711d                	addi	sp,sp,-96
    8000369c:	02810313          	addi	t1,sp,40
    800036a0:	f42e                	sd	a1,40(sp)
    800036a2:	f832                	sd	a2,48(sp)
    800036a4:	fc36                	sd	a3,56(sp)
    800036a6:	e0ba                	sd	a4,64(sp)
    800036a8:	86aa                	mv	a3,a0
    800036aa:	858a                	mv	a1,sp
    800036ac:	871a                	mv	a4,t1
    800036ae:	567d                	li	a2,-1
    800036b0:	fffff517          	auipc	a0,0xfffff
    800036b4:	19250513          	addi	a0,a0,402 # 80002842 <_out_char>
    800036b8:	ec06                	sd	ra,24(sp)
    800036ba:	e4be                	sd	a5,72(sp)
    800036bc:	e8c2                	sd	a6,80(sp)
    800036be:	ecc6                	sd	a7,88(sp)
    800036c0:	e41a                	sd	t1,8(sp)
    800036c2:	e0eff0ef          	jal	ra,80002cd0 <_vsnprintf>
    800036c6:	60e2                	ld	ra,24(sp)
    800036c8:	6125                	addi	sp,sp,96
    800036ca:	8082                	ret

00000000800036cc <sprintf_>:
    800036cc:	715d                	addi	sp,sp,-80
    800036ce:	02010313          	addi	t1,sp,32
    800036d2:	f032                	sd	a2,32(sp)
    800036d4:	f436                	sd	a3,40(sp)
    800036d6:	f83a                	sd	a4,48(sp)
    800036d8:	86ae                	mv	a3,a1
    800036da:	871a                	mv	a4,t1
    800036dc:	85aa                	mv	a1,a0
    800036de:	567d                	li	a2,-1
    800036e0:	fffff517          	auipc	a0,0xfffff
    800036e4:	15450513          	addi	a0,a0,340 # 80002834 <_out_buffer>
    800036e8:	ec06                	sd	ra,24(sp)
    800036ea:	fc3e                	sd	a5,56(sp)
    800036ec:	e0c2                	sd	a6,64(sp)
    800036ee:	e4c6                	sd	a7,72(sp)
    800036f0:	e41a                	sd	t1,8(sp)
    800036f2:	ddeff0ef          	jal	ra,80002cd0 <_vsnprintf>
    800036f6:	60e2                	ld	ra,24(sp)
    800036f8:	6161                	addi	sp,sp,80
    800036fa:	8082                	ret

00000000800036fc <snprintf_>:
    800036fc:	715d                	addi	sp,sp,-80
    800036fe:	02810313          	addi	t1,sp,40
    80003702:	f436                	sd	a3,40(sp)
    80003704:	f83a                	sd	a4,48(sp)
    80003706:	86b2                	mv	a3,a2
    80003708:	871a                	mv	a4,t1
    8000370a:	862e                	mv	a2,a1
    8000370c:	85aa                	mv	a1,a0
    8000370e:	fffff517          	auipc	a0,0xfffff
    80003712:	12650513          	addi	a0,a0,294 # 80002834 <_out_buffer>
    80003716:	ec06                	sd	ra,24(sp)
    80003718:	fc3e                	sd	a5,56(sp)
    8000371a:	e0c2                	sd	a6,64(sp)
    8000371c:	e4c6                	sd	a7,72(sp)
    8000371e:	e41a                	sd	t1,8(sp)
    80003720:	db0ff0ef          	jal	ra,80002cd0 <_vsnprintf>
    80003724:	60e2                	ld	ra,24(sp)
    80003726:	6161                	addi	sp,sp,80
    80003728:	8082                	ret

000000008000372a <vsnprintf_>:
    8000372a:	8736                	mv	a4,a3
    8000372c:	86b2                	mv	a3,a2
    8000372e:	862e                	mv	a2,a1
    80003730:	85aa                	mv	a1,a0
    80003732:	fffff517          	auipc	a0,0xfffff
    80003736:	10250513          	addi	a0,a0,258 # 80002834 <_out_buffer>
    8000373a:	d96ff06f          	j	80002cd0 <_vsnprintf>

000000008000373e <fctprintf>:
    8000373e:	711d                	addi	sp,sp,-96
    80003740:	03810313          	addi	t1,sp,56
    80003744:	8eaa                	mv	t4,a0
    80003746:	8e2e                	mv	t3,a1
    80003748:	fc36                	sd	a3,56(sp)
    8000374a:	e0ba                	sd	a4,64(sp)
    8000374c:	86b2                	mv	a3,a2
    8000374e:	080c                	addi	a1,sp,16
    80003750:	871a                	mv	a4,t1
    80003752:	567d                	li	a2,-1
    80003754:	00000517          	auipc	a0,0x0
    80003758:	f3050513          	addi	a0,a0,-208 # 80003684 <_out_fct>
    8000375c:	f406                	sd	ra,40(sp)
    8000375e:	e4be                	sd	a5,72(sp)
    80003760:	e8c2                	sd	a6,80(sp)
    80003762:	ecc6                	sd	a7,88(sp)
    80003764:	e41a                	sd	t1,8(sp)
    80003766:	e876                	sd	t4,16(sp)
    80003768:	ec72                	sd	t3,24(sp)
    8000376a:	d66ff0ef          	jal	ra,80002cd0 <_vsnprintf>
    8000376e:	70a2                	ld	ra,40(sp)
    80003770:	6125                	addi	sp,sp,96
    80003772:	8082                	ret

0000000080003774 <fmatmul_vec_4x4_slice_init>:
    80003774:	5e003057          	vmv.v.i	v0,0
    80003778:	5e003257          	vmv.v.i	v4,0
    8000377c:	5e003457          	vmv.v.i	v8,0
    80003780:	5e003657          	vmv.v.i	v12,0
    80003784:	8082                	ret

0000000080003786 <fmatmul_vec_4x4>:
    80003786:	02067807          	vle64.v	v16,(a2)
    8000378a:	00369793          	slli	a5,a3,0x3
    8000378e:	00f588b3          	add	a7,a1,a5
    80003792:	00f88833          	add	a6,a7,a5
    80003796:	00371e93          	slli	t4,a4,0x3
    8000379a:	97c2                	add	a5,a5,a6
    8000379c:	2190                	fld	fa2,0(a1)
    8000379e:	0008b687          	fld	fa3,0(a7)
    800037a2:	00083707          	fld	fa4,0(a6)
    800037a6:	239c                	fld	fa5,0(a5)
    800037a8:	9676                	add	a2,a2,t4
    800037aa:	ceb9                	beqz	a3,80003808 <fmatmul_vec_4x4+0x82>
    800037ac:	00471e13          	slli	t3,a4,0x4
    800037b0:	4701                	li	a4,0
    800037b2:	a015                	j	800037d6 <fmatmul_vec_4x4+0x50>
    800037b4:	b3465057          	vfmacc.vf	v0,fa2,v20
    800037b8:	2190                	fld	fa2,0(a1)
    800037ba:	02037807          	vle64.v	v16,(t1)
    800037be:	9672                	add	a2,a2,t3
    800037c0:	b346d257          	vfmacc.vf	v4,fa3,v20
    800037c4:	0008b687          	fld	fa3,0(a7)
    800037c8:	b3475457          	vfmacc.vf	v8,fa4,v20
    800037cc:	00083707          	fld	fa4,0(a6)
    800037d0:	b347d657          	vfmacc.vf	v12,fa5,v20
    800037d4:	239c                	fld	fa5,0(a5)
    800037d6:	b3065057          	vfmacc.vf	v0,fa2,v16
    800037da:	2590                	fld	fa2,8(a1)
    800037dc:	02067a07          	vle64.v	v20,(a2)
    800037e0:	00ce8333          	add	t1,t4,a2
    800037e4:	b306d257          	vfmacc.vf	v4,fa3,v16
    800037e8:	0088b687          	fld	fa3,8(a7)
    800037ec:	b3075457          	vfmacc.vf	v8,fa4,v16
    800037f0:	00883707          	fld	fa4,8(a6)
    800037f4:	b307d657          	vfmacc.vf	v12,fa5,v16
    800037f8:	0709                	addi	a4,a4,2
    800037fa:	279c                	fld	fa5,8(a5)
    800037fc:	05c1                	addi	a1,a1,16
    800037fe:	08c1                	addi	a7,a7,16
    80003800:	0841                	addi	a6,a6,16
    80003802:	07c1                	addi	a5,a5,16
    80003804:	fae698e3          	bne	a3,a4,800037b4 <fmatmul_vec_4x4+0x2e>
    80003808:	b3465057          	vfmacc.vf	v0,fa2,v20
    8000380c:	02057027          	vse64.v	v0,(a0)
    80003810:	9576                	add	a0,a0,t4
    80003812:	b346d257          	vfmacc.vf	v4,fa3,v20
    80003816:	02057227          	vse64.v	v4,(a0)
    8000381a:	9576                	add	a0,a0,t4
    8000381c:	b3475457          	vfmacc.vf	v8,fa4,v20
    80003820:	02057427          	vse64.v	v8,(a0)
    80003824:	b347d657          	vfmacc.vf	v12,fa5,v20
    80003828:	9576                	add	a0,a0,t4
    8000382a:	02057627          	vse64.v	v12,(a0)
    8000382e:	8082                	ret

0000000080003830 <fmatmul_4x4>:
    80003830:	7175                	addi	sp,sp,-144
    80003832:	e506                	sd	ra,136(sp)
    80003834:	e122                	sd	s0,128(sp)
    80003836:	fca6                	sd	s1,120(sp)
    80003838:	f8ca                	sd	s2,112(sp)
    8000383a:	f4ce                	sd	s3,104(sp)
    8000383c:	f0d2                	sd	s4,96(sp)
    8000383e:	ecd6                	sd	s5,88(sp)
    80003840:	e8da                	sd	s6,80(sp)
    80003842:	e4de                	sd	s7,72(sp)
    80003844:	e0e2                	sd	s8,64(sp)
    80003846:	fc66                	sd	s9,56(sp)
    80003848:	f86a                	sd	s10,48(sp)
    8000384a:	f46e                	sd	s11,40(sp)
    8000384c:	e82a                	sd	a0,16(sp)
    8000384e:	ec2e                	sd	a1,24(sp)
    80003850:	e432                	sd	a2,8(sp)
    80003852:	0ce7fb57          	vsetvli	s6,a5,e16,mf4,ta,ma
    80003856:	c7a5                	beqz	a5,800038be <fmatmul_4x4+0x8e>
    80003858:	8936                	mv	s2,a3
    8000385a:	8d3a                	mv	s10,a4
    8000385c:	84be                	mv	s1,a5
    8000385e:	00579a93          	slli	s5,a5,0x5
    80003862:	00571a13          	slli	s4,a4,0x5
    80003866:	8c3e                	mv	s8,a5
    80003868:	4b81                	li	s7,0
    8000386a:	67a2                	ld	a5,8(sp)
    8000386c:	003b9413          	slli	s0,s7,0x3
    80003870:	008789b3          	add	s3,a5,s0
    80003874:	87da                	mv	a5,s6
    80003876:	016c7363          	bgeu	s8,s6,8000387c <fmatmul_4x4+0x4c>
    8000387a:	87e2                	mv	a5,s8
    8000387c:	0ce7f057          	vsetvli	zero,a5,e16,mf4,ta,ma
    80003880:	02090a63          	beqz	s2,800038b4 <fmatmul_4x4+0x84>
    80003884:	67c2                	ld	a5,16(sp)
    80003886:	6ce2                	ld	s9,24(sp)
    80003888:	4d81                	li	s11,0
    8000388a:	943e                	add	s0,s0,a5
    8000388c:	5e003057          	vmv.v.i	v0,0
    80003890:	5e003257          	vmv.v.i	v4,0
    80003894:	5e003457          	vmv.v.i	v8,0
    80003898:	5e003657          	vmv.v.i	v12,0
    8000389c:	85e6                	mv	a1,s9
    8000389e:	8522                	mv	a0,s0
    800038a0:	8726                	mv	a4,s1
    800038a2:	86ea                	mv	a3,s10
    800038a4:	864e                	mv	a2,s3
    800038a6:	0d91                	addi	s11,s11,4
    800038a8:	edfff0ef          	jal	ra,80003786 <fmatmul_vec_4x4>
    800038ac:	9456                	add	s0,s0,s5
    800038ae:	9cd2                	add	s9,s9,s4
    800038b0:	fd2deee3          	bltu	s11,s2,8000388c <fmatmul_4x4+0x5c>
    800038b4:	9bda                	add	s7,s7,s6
    800038b6:	416c0c33          	sub	s8,s8,s6
    800038ba:	fa9be8e3          	bltu	s7,s1,8000386a <fmatmul_4x4+0x3a>
    800038be:	60aa                	ld	ra,136(sp)
    800038c0:	640a                	ld	s0,128(sp)
    800038c2:	74e6                	ld	s1,120(sp)
    800038c4:	7946                	ld	s2,112(sp)
    800038c6:	79a6                	ld	s3,104(sp)
    800038c8:	7a06                	ld	s4,96(sp)
    800038ca:	6ae6                	ld	s5,88(sp)
    800038cc:	6b46                	ld	s6,80(sp)
    800038ce:	6ba6                	ld	s7,72(sp)
    800038d0:	6c06                	ld	s8,64(sp)
    800038d2:	7ce2                	ld	s9,56(sp)
    800038d4:	7d42                	ld	s10,48(sp)
    800038d6:	7da2                	ld	s11,40(sp)
    800038d8:	6149                	addi	sp,sp,144
    800038da:	8082                	ret

00000000800038dc <fmatmul_vec_8x8_slice_init>:
    800038dc:	5e003057          	vmv.v.i	v0,0
    800038e0:	5e003157          	vmv.v.i	v2,0
    800038e4:	5e003257          	vmv.v.i	v4,0
    800038e8:	5e003357          	vmv.v.i	v6,0
    800038ec:	5e003457          	vmv.v.i	v8,0
    800038f0:	5e003557          	vmv.v.i	v10,0
    800038f4:	5e003657          	vmv.v.i	v12,0
    800038f8:	5e003757          	vmv.v.i	v14,0
    800038fc:	8082                	ret

00000000800038fe <fmatmul_vec_8x8>:
    800038fe:	8f32                	mv	t5,a2
    80003900:	02067907          	vle64.v	v18,(a2)
    80003904:	00369893          	slli	a7,a3,0x3
    80003908:	011583b3          	add	t2,a1,a7
    8000390c:	011382b3          	add	t0,t2,a7
    80003910:	01128fb3          	add	t6,t0,a7
    80003914:	011f8833          	add	a6,t6,a7
    80003918:	01180633          	add	a2,a6,a7
    8000391c:	011607b3          	add	a5,a2,a7
    80003920:	00371e93          	slli	t4,a4,0x3
    80003924:	98be                	add	a7,a7,a5
    80003926:	0005b087          	fld	ft1,0(a1)
    8000392a:	0003b007          	fld	ft0,0(t2)
    8000392e:	0002b507          	fld	fa0,0(t0)
    80003932:	000fb587          	fld	fa1,0(t6)
    80003936:	00083607          	fld	fa2,0(a6)
    8000393a:	2214                	fld	fa3,0(a2)
    8000393c:	2398                	fld	fa4,0(a5)
    8000393e:	0008b787          	fld	fa5,0(a7)
    80003942:	9f76                	add	t5,t5,t4
    80003944:	c2dd                	beqz	a3,800039ea <fmatmul_vec_8x8+0xec>
    80003946:	00471e13          	slli	t3,a4,0x4
    8000394a:	4701                	li	a4,0
    8000394c:	a091                	j	80003990 <fmatmul_vec_8x8+0x92>
    8000394e:	b340d057          	vfmacc.vf	v0,ft1,v20
    80003952:	0005b087          	fld	ft1,0(a1)
    80003956:	02037907          	vle64.v	v18,(t1)
    8000395a:	9f72                	add	t5,t5,t3
    8000395c:	b3405157          	vfmacc.vf	v2,ft0,v20
    80003960:	0003b007          	fld	ft0,0(t2)
    80003964:	b3455257          	vfmacc.vf	v4,fa0,v20
    80003968:	0002b507          	fld	fa0,0(t0)
    8000396c:	b345d357          	vfmacc.vf	v6,fa1,v20
    80003970:	000fb587          	fld	fa1,0(t6)
    80003974:	b3465457          	vfmacc.vf	v8,fa2,v20
    80003978:	00083607          	fld	fa2,0(a6)
    8000397c:	b346d557          	vfmacc.vf	v10,fa3,v20
    80003980:	2214                	fld	fa3,0(a2)
    80003982:	b3475657          	vfmacc.vf	v12,fa4,v20
    80003986:	2398                	fld	fa4,0(a5)
    80003988:	b347d757          	vfmacc.vf	v14,fa5,v20
    8000398c:	0008b787          	fld	fa5,0(a7)
    80003990:	b320d057          	vfmacc.vf	v0,ft1,v18
    80003994:	0085b087          	fld	ft1,8(a1)
    80003998:	020f7a07          	vle64.v	v20,(t5)
    8000399c:	01ee8333          	add	t1,t4,t5
    800039a0:	b3205157          	vfmacc.vf	v2,ft0,v18
    800039a4:	0083b007          	fld	ft0,8(t2)
    800039a8:	b3255257          	vfmacc.vf	v4,fa0,v18
    800039ac:	0082b507          	fld	fa0,8(t0)
    800039b0:	b325d357          	vfmacc.vf	v6,fa1,v18
    800039b4:	008fb587          	fld	fa1,8(t6)
    800039b8:	b3265457          	vfmacc.vf	v8,fa2,v18
    800039bc:	00883607          	fld	fa2,8(a6)
    800039c0:	b326d557          	vfmacc.vf	v10,fa3,v18
    800039c4:	2614                	fld	fa3,8(a2)
    800039c6:	b3275657          	vfmacc.vf	v12,fa4,v18
    800039ca:	2798                	fld	fa4,8(a5)
    800039cc:	b327d757          	vfmacc.vf	v14,fa5,v18
    800039d0:	0709                	addi	a4,a4,2
    800039d2:	0088b787          	fld	fa5,8(a7)
    800039d6:	05c1                	addi	a1,a1,16
    800039d8:	03c1                	addi	t2,t2,16
    800039da:	02c1                	addi	t0,t0,16
    800039dc:	0fc1                	addi	t6,t6,16
    800039de:	0841                	addi	a6,a6,16
    800039e0:	0641                	addi	a2,a2,16
    800039e2:	07c1                	addi	a5,a5,16
    800039e4:	08c1                	addi	a7,a7,16
    800039e6:	f6e694e3          	bne	a3,a4,8000394e <fmatmul_vec_8x8+0x50>
    800039ea:	b340d057          	vfmacc.vf	v0,ft1,v20
    800039ee:	02057027          	vse64.v	v0,(a0)
    800039f2:	01d507b3          	add	a5,a0,t4
    800039f6:	b3405157          	vfmacc.vf	v2,ft0,v20
    800039fa:	0207f127          	vse64.v	v2,(a5)
    800039fe:	97f6                	add	a5,a5,t4
    80003a00:	b3455257          	vfmacc.vf	v4,fa0,v20
    80003a04:	0207f227          	vse64.v	v4,(a5)
    80003a08:	97f6                	add	a5,a5,t4
    80003a0a:	b345d357          	vfmacc.vf	v6,fa1,v20
    80003a0e:	0207f327          	vse64.v	v6,(a5)
    80003a12:	97f6                	add	a5,a5,t4
    80003a14:	b3465457          	vfmacc.vf	v8,fa2,v20
    80003a18:	0207f427          	vse64.v	v8,(a5)
    80003a1c:	97f6                	add	a5,a5,t4
    80003a1e:	b346d557          	vfmacc.vf	v10,fa3,v20
    80003a22:	0207f527          	vse64.v	v10,(a5)
    80003a26:	97f6                	add	a5,a5,t4
    80003a28:	b3475657          	vfmacc.vf	v12,fa4,v20
    80003a2c:	0207f627          	vse64.v	v12,(a5)
    80003a30:	b347d757          	vfmacc.vf	v14,fa5,v20
    80003a34:	97f6                	add	a5,a5,t4
    80003a36:	0207f727          	vse64.v	v14,(a5)
    80003a3a:	8082                	ret

0000000080003a3c <fmatmul_8x8>:
    80003a3c:	7175                	addi	sp,sp,-144
    80003a3e:	e506                	sd	ra,136(sp)
    80003a40:	e122                	sd	s0,128(sp)
    80003a42:	fca6                	sd	s1,120(sp)
    80003a44:	f8ca                	sd	s2,112(sp)
    80003a46:	f4ce                	sd	s3,104(sp)
    80003a48:	f0d2                	sd	s4,96(sp)
    80003a4a:	ecd6                	sd	s5,88(sp)
    80003a4c:	e8da                	sd	s6,80(sp)
    80003a4e:	e4de                	sd	s7,72(sp)
    80003a50:	e0e2                	sd	s8,64(sp)
    80003a52:	fc66                	sd	s9,56(sp)
    80003a54:	f86a                	sd	s10,48(sp)
    80003a56:	f46e                	sd	s11,40(sp)
    80003a58:	e82a                	sd	a0,16(sp)
    80003a5a:	ec2e                	sd	a1,24(sp)
    80003a5c:	e432                	sd	a2,8(sp)
    80003a5e:	0cd7fb57          	vsetvli	s6,a5,e16,mf8,ta,ma
    80003a62:	cfa5                	beqz	a5,80003ada <fmatmul_8x8+0x9e>
    80003a64:	8936                	mv	s2,a3
    80003a66:	8d3a                	mv	s10,a4
    80003a68:	84be                	mv	s1,a5
    80003a6a:	00679a93          	slli	s5,a5,0x6
    80003a6e:	00671a13          	slli	s4,a4,0x6
    80003a72:	8c3e                	mv	s8,a5
    80003a74:	4b81                	li	s7,0
    80003a76:	67a2                	ld	a5,8(sp)
    80003a78:	003b9413          	slli	s0,s7,0x3
    80003a7c:	008789b3          	add	s3,a5,s0
    80003a80:	87da                	mv	a5,s6
    80003a82:	016c7363          	bgeu	s8,s6,80003a88 <fmatmul_8x8+0x4c>
    80003a86:	87e2                	mv	a5,s8
    80003a88:	0cd7f057          	vsetvli	zero,a5,e16,mf8,ta,ma
    80003a8c:	04090263          	beqz	s2,80003ad0 <fmatmul_8x8+0x94>
    80003a90:	67c2                	ld	a5,16(sp)
    80003a92:	6ce2                	ld	s9,24(sp)
    80003a94:	4d81                	li	s11,0
    80003a96:	943e                	add	s0,s0,a5
    80003a98:	5e003057          	vmv.v.i	v0,0
    80003a9c:	5e003157          	vmv.v.i	v2,0
    80003aa0:	5e003257          	vmv.v.i	v4,0
    80003aa4:	5e003357          	vmv.v.i	v6,0
    80003aa8:	5e003457          	vmv.v.i	v8,0
    80003aac:	5e003557          	vmv.v.i	v10,0
    80003ab0:	5e003657          	vmv.v.i	v12,0
    80003ab4:	5e003757          	vmv.v.i	v14,0
    80003ab8:	85e6                	mv	a1,s9
    80003aba:	8522                	mv	a0,s0
    80003abc:	8726                	mv	a4,s1
    80003abe:	86ea                	mv	a3,s10
    80003ac0:	864e                	mv	a2,s3
    80003ac2:	0da1                	addi	s11,s11,8
    80003ac4:	e3bff0ef          	jal	ra,800038fe <fmatmul_vec_8x8>
    80003ac8:	9456                	add	s0,s0,s5
    80003aca:	9cd2                	add	s9,s9,s4
    80003acc:	fd2de6e3          	bltu	s11,s2,80003a98 <fmatmul_8x8+0x5c>
    80003ad0:	9bda                	add	s7,s7,s6
    80003ad2:	416c0c33          	sub	s8,s8,s6
    80003ad6:	fa9be0e3          	bltu	s7,s1,80003a76 <fmatmul_8x8+0x3a>
    80003ada:	60aa                	ld	ra,136(sp)
    80003adc:	640a                	ld	s0,128(sp)
    80003ade:	74e6                	ld	s1,120(sp)
    80003ae0:	7946                	ld	s2,112(sp)
    80003ae2:	79a6                	ld	s3,104(sp)
    80003ae4:	7a06                	ld	s4,96(sp)
    80003ae6:	6ae6                	ld	s5,88(sp)
    80003ae8:	6b46                	ld	s6,80(sp)
    80003aea:	6ba6                	ld	s7,72(sp)
    80003aec:	6c06                	ld	s8,64(sp)
    80003aee:	7ce2                	ld	s9,56(sp)
    80003af0:	7d42                	ld	s10,48(sp)
    80003af2:	7da2                	ld	s11,40(sp)
    80003af4:	6149                	addi	sp,sp,144
    80003af6:	8082                	ret

0000000080003af8 <fmatmul_vec_16x16_slice_init>:
    80003af8:	5e003057          	vmv.v.i	v0,0
    80003afc:	5e0030d7          	vmv.v.i	v1,0
    80003b00:	5e003157          	vmv.v.i	v2,0
    80003b04:	5e0031d7          	vmv.v.i	v3,0
    80003b08:	5e003257          	vmv.v.i	v4,0
    80003b0c:	5e0032d7          	vmv.v.i	v5,0
    80003b10:	5e003357          	vmv.v.i	v6,0
    80003b14:	5e0033d7          	vmv.v.i	v7,0
    80003b18:	5e003457          	vmv.v.i	v8,0
    80003b1c:	5e0034d7          	vmv.v.i	v9,0
    80003b20:	5e003557          	vmv.v.i	v10,0
    80003b24:	5e0035d7          	vmv.v.i	v11,0
    80003b28:	5e003657          	vmv.v.i	v12,0
    80003b2c:	5e0036d7          	vmv.v.i	v13,0
    80003b30:	5e003757          	vmv.v.i	v14,0
    80003b34:	5e0037d7          	vmv.v.i	v15,0
    80003b38:	8082                	ret

0000000080003b3a <fmatmul_vec_16x16>:
    80003b3a:	00369813          	slli	a6,a3,0x3
    80003b3e:	7139                	addi	sp,sp,-64
    80003b40:	e05e                	sd	s7,0(sp)
    80003b42:	01058bb3          	add	s7,a1,a6
    80003b46:	e45a                	sd	s6,8(sp)
    80003b48:	010b8b33          	add	s6,s7,a6
    80003b4c:	e856                	sd	s5,16(sp)
    80003b4e:	010b0ab3          	add	s5,s6,a6
    80003b52:	ec52                	sd	s4,24(sp)
    80003b54:	010a8a33          	add	s4,s5,a6
    80003b58:	f04e                	sd	s3,32(sp)
    80003b5a:	010a09b3          	add	s3,s4,a6
    80003b5e:	f44a                	sd	s2,40(sp)
    80003b60:	01098933          	add	s2,s3,a6
    80003b64:	f826                	sd	s1,48(sp)
    80003b66:	010904b3          	add	s1,s2,a6
    80003b6a:	fc22                	sd	s0,56(sp)
    80003b6c:	01048433          	add	s0,s1,a6
    80003b70:	010403b3          	add	t2,s0,a6
    80003b74:	010382b3          	add	t0,t2,a6
    80003b78:	01028fb3          	add	t6,t0,a6
    80003b7c:	010f8f33          	add	t5,t6,a6
    80003b80:	010f0e33          	add	t3,t5,a6
    80003b84:	010e0333          	add	t1,t3,a6
    80003b88:	981a                	add	a6,a6,t1
    80003b8a:	0005b887          	fld	fa7,0(a1)
    80003b8e:	000bb807          	fld	fa6,0(s7)
    80003b92:	000b3387          	fld	ft7,0(s6)
    80003b96:	000ab307          	fld	ft6,0(s5)
    80003b9a:	000a3287          	fld	ft5,0(s4)
    80003b9e:	0009b207          	fld	ft4,0(s3)
    80003ba2:	00093187          	fld	ft3,0(s2)
    80003ba6:	0004b107          	fld	ft2,0(s1)
    80003baa:	00043087          	fld	ft1,0(s0)
    80003bae:	0003b007          	fld	ft0,0(t2)
    80003bb2:	0002b507          	fld	fa0,0(t0)
    80003bb6:	000fb587          	fld	fa1,0(t6)
    80003bba:	000f3607          	fld	fa2,0(t5)
    80003bbe:	000e3687          	fld	fa3,0(t3)
    80003bc2:	00033707          	fld	fa4,0(t1)
    80003bc6:	00083787          	fld	fa5,0(a6)
    80003bca:	02067807          	vle64.v	v16,(a2)
    80003bce:	00371e93          	slli	t4,a4,0x3
    80003bd2:	01d608b3          	add	a7,a2,t4
    80003bd6:	12068e63          	beqz	a3,80003d12 <fmatmul_vec_16x16+0x1d8>
    80003bda:	8642                	mv	a2,a6
    80003bdc:	0712                	slli	a4,a4,0x4
    80003bde:	4781                	li	a5,0
    80003be0:	a059                	j	80003c66 <fmatmul_vec_16x16+0x12c>
    80003be2:	b318d057          	vfmacc.vf	v0,fa7,v17
    80003be6:	0005b887          	fld	fa7,0(a1)
    80003bea:	02087807          	vle64.v	v16,(a6)
    80003bee:	98ba                	add	a7,a7,a4
    80003bf0:	b31850d7          	vfmacc.vf	v1,fa6,v17
    80003bf4:	000bb807          	fld	fa6,0(s7)
    80003bf8:	b313d157          	vfmacc.vf	v2,ft7,v17
    80003bfc:	000b3387          	fld	ft7,0(s6)
    80003c00:	b31351d7          	vfmacc.vf	v3,ft6,v17
    80003c04:	000ab307          	fld	ft6,0(s5)
    80003c08:	b312d257          	vfmacc.vf	v4,ft5,v17
    80003c0c:	000a3287          	fld	ft5,0(s4)
    80003c10:	b31252d7          	vfmacc.vf	v5,ft4,v17
    80003c14:	0009b207          	fld	ft4,0(s3)
    80003c18:	b311d357          	vfmacc.vf	v6,ft3,v17
    80003c1c:	00093187          	fld	ft3,0(s2)
    80003c20:	b31153d7          	vfmacc.vf	v7,ft2,v17
    80003c24:	0004b107          	fld	ft2,0(s1)
    80003c28:	b310d457          	vfmacc.vf	v8,ft1,v17
    80003c2c:	00043087          	fld	ft1,0(s0)
    80003c30:	b31054d7          	vfmacc.vf	v9,ft0,v17
    80003c34:	0003b007          	fld	ft0,0(t2)
    80003c38:	b3155557          	vfmacc.vf	v10,fa0,v17
    80003c3c:	0002b507          	fld	fa0,0(t0)
    80003c40:	b315d5d7          	vfmacc.vf	v11,fa1,v17
    80003c44:	000fb587          	fld	fa1,0(t6)
    80003c48:	b3165657          	vfmacc.vf	v12,fa2,v17
    80003c4c:	000f3607          	fld	fa2,0(t5)
    80003c50:	b316d6d7          	vfmacc.vf	v13,fa3,v17
    80003c54:	000e3687          	fld	fa3,0(t3)
    80003c58:	b3175757          	vfmacc.vf	v14,fa4,v17
    80003c5c:	00033707          	fld	fa4,0(t1)
    80003c60:	b317d7d7          	vfmacc.vf	v15,fa5,v17
    80003c64:	221c                	fld	fa5,0(a2)
    80003c66:	b308d057          	vfmacc.vf	v0,fa7,v16
    80003c6a:	0085b887          	fld	fa7,8(a1)
    80003c6e:	0208f887          	vle64.v	v17,(a7)
    80003c72:	011e8833          	add	a6,t4,a7
    80003c76:	b30850d7          	vfmacc.vf	v1,fa6,v16
    80003c7a:	008bb807          	fld	fa6,8(s7)
    80003c7e:	b303d157          	vfmacc.vf	v2,ft7,v16
    80003c82:	008b3387          	fld	ft7,8(s6)
    80003c86:	b30351d7          	vfmacc.vf	v3,ft6,v16
    80003c8a:	008ab307          	fld	ft6,8(s5)
    80003c8e:	b302d257          	vfmacc.vf	v4,ft5,v16
    80003c92:	008a3287          	fld	ft5,8(s4)
    80003c96:	b30252d7          	vfmacc.vf	v5,ft4,v16
    80003c9a:	0089b207          	fld	ft4,8(s3)
    80003c9e:	b301d357          	vfmacc.vf	v6,ft3,v16
    80003ca2:	00893187          	fld	ft3,8(s2)
    80003ca6:	b30153d7          	vfmacc.vf	v7,ft2,v16
    80003caa:	0084b107          	fld	ft2,8(s1)
    80003cae:	b300d457          	vfmacc.vf	v8,ft1,v16
    80003cb2:	00843087          	fld	ft1,8(s0)
    80003cb6:	b30054d7          	vfmacc.vf	v9,ft0,v16
    80003cba:	0083b007          	fld	ft0,8(t2)
    80003cbe:	b3055557          	vfmacc.vf	v10,fa0,v16
    80003cc2:	0082b507          	fld	fa0,8(t0)
    80003cc6:	b305d5d7          	vfmacc.vf	v11,fa1,v16
    80003cca:	008fb587          	fld	fa1,8(t6)
    80003cce:	b3065657          	vfmacc.vf	v12,fa2,v16
    80003cd2:	008f3607          	fld	fa2,8(t5)
    80003cd6:	b306d6d7          	vfmacc.vf	v13,fa3,v16
    80003cda:	008e3687          	fld	fa3,8(t3)
    80003cde:	b3075757          	vfmacc.vf	v14,fa4,v16
    80003ce2:	00833707          	fld	fa4,8(t1)
    80003ce6:	b307d7d7          	vfmacc.vf	v15,fa5,v16
    80003cea:	0789                	addi	a5,a5,2
    80003cec:	261c                	fld	fa5,8(a2)
    80003cee:	05c1                	addi	a1,a1,16
    80003cf0:	0bc1                	addi	s7,s7,16
    80003cf2:	0b41                	addi	s6,s6,16
    80003cf4:	0ac1                	addi	s5,s5,16
    80003cf6:	0a41                	addi	s4,s4,16
    80003cf8:	09c1                	addi	s3,s3,16
    80003cfa:	0941                	addi	s2,s2,16
    80003cfc:	04c1                	addi	s1,s1,16
    80003cfe:	0441                	addi	s0,s0,16
    80003d00:	03c1                	addi	t2,t2,16
    80003d02:	02c1                	addi	t0,t0,16
    80003d04:	0fc1                	addi	t6,t6,16
    80003d06:	0f41                	addi	t5,t5,16
    80003d08:	0e41                	addi	t3,t3,16
    80003d0a:	0341                	addi	t1,t1,16
    80003d0c:	0641                	addi	a2,a2,16
    80003d0e:	ecf69ae3          	bne	a3,a5,80003be2 <fmatmul_vec_16x16+0xa8>
    80003d12:	b318d057          	vfmacc.vf	v0,fa7,v17
    80003d16:	02057027          	vse64.v	v0,(a0)
    80003d1a:	01d507b3          	add	a5,a0,t4
    80003d1e:	b31850d7          	vfmacc.vf	v1,fa6,v17
    80003d22:	0207f0a7          	vse64.v	v1,(a5)
    80003d26:	97f6                	add	a5,a5,t4
    80003d28:	b313d157          	vfmacc.vf	v2,ft7,v17
    80003d2c:	0207f127          	vse64.v	v2,(a5)
    80003d30:	97f6                	add	a5,a5,t4
    80003d32:	b31351d7          	vfmacc.vf	v3,ft6,v17
    80003d36:	0207f1a7          	vse64.v	v3,(a5)
    80003d3a:	97f6                	add	a5,a5,t4
    80003d3c:	b312d257          	vfmacc.vf	v4,ft5,v17
    80003d40:	0207f227          	vse64.v	v4,(a5)
    80003d44:	97f6                	add	a5,a5,t4
    80003d46:	b31252d7          	vfmacc.vf	v5,ft4,v17
    80003d4a:	0207f2a7          	vse64.v	v5,(a5)
    80003d4e:	97f6                	add	a5,a5,t4
    80003d50:	b311d357          	vfmacc.vf	v6,ft3,v17
    80003d54:	0207f327          	vse64.v	v6,(a5)
    80003d58:	97f6                	add	a5,a5,t4
    80003d5a:	b31153d7          	vfmacc.vf	v7,ft2,v17
    80003d5e:	0207f3a7          	vse64.v	v7,(a5)
    80003d62:	97f6                	add	a5,a5,t4
    80003d64:	b310d457          	vfmacc.vf	v8,ft1,v17
    80003d68:	0207f427          	vse64.v	v8,(a5)
    80003d6c:	97f6                	add	a5,a5,t4
    80003d6e:	b31054d7          	vfmacc.vf	v9,ft0,v17
    80003d72:	0207f4a7          	vse64.v	v9,(a5)
    80003d76:	97f6                	add	a5,a5,t4
    80003d78:	b3155557          	vfmacc.vf	v10,fa0,v17
    80003d7c:	0207f527          	vse64.v	v10,(a5)
    80003d80:	97f6                	add	a5,a5,t4
    80003d82:	b315d5d7          	vfmacc.vf	v11,fa1,v17
    80003d86:	0207f5a7          	vse64.v	v11,(a5)
    80003d8a:	97f6                	add	a5,a5,t4
    80003d8c:	b3165657          	vfmacc.vf	v12,fa2,v17
    80003d90:	0207f627          	vse64.v	v12,(a5)
    80003d94:	97f6                	add	a5,a5,t4
    80003d96:	b316d6d7          	vfmacc.vf	v13,fa3,v17
    80003d9a:	0207f6a7          	vse64.v	v13,(a5)
    80003d9e:	97f6                	add	a5,a5,t4
    80003da0:	b3175757          	vfmacc.vf	v14,fa4,v17
    80003da4:	0207f727          	vse64.v	v14,(a5)
    80003da8:	b317d7d7          	vfmacc.vf	v15,fa5,v17
    80003dac:	97f6                	add	a5,a5,t4
    80003dae:	0207f7a7          	vse64.v	v15,(a5)
    80003db2:	7462                	ld	s0,56(sp)
    80003db4:	74c2                	ld	s1,48(sp)
    80003db6:	7922                	ld	s2,40(sp)
    80003db8:	7982                	ld	s3,32(sp)
    80003dba:	6a62                	ld	s4,24(sp)
    80003dbc:	6ac2                	ld	s5,16(sp)
    80003dbe:	6b22                	ld	s6,8(sp)
    80003dc0:	6b82                	ld	s7,0(sp)
    80003dc2:	6121                	addi	sp,sp,64
    80003dc4:	8082                	ret

0000000080003dc6 <fmatmul_16x16>:
    80003dc6:	7175                	addi	sp,sp,-144
    80003dc8:	e506                	sd	ra,136(sp)
    80003dca:	e122                	sd	s0,128(sp)
    80003dcc:	fca6                	sd	s1,120(sp)
    80003dce:	f8ca                	sd	s2,112(sp)
    80003dd0:	f4ce                	sd	s3,104(sp)
    80003dd2:	f0d2                	sd	s4,96(sp)
    80003dd4:	ecd6                	sd	s5,88(sp)
    80003dd6:	e8da                	sd	s6,80(sp)
    80003dd8:	e4de                	sd	s7,72(sp)
    80003dda:	e0e2                	sd	s8,64(sp)
    80003ddc:	fc66                	sd	s9,56(sp)
    80003dde:	f86a                	sd	s10,48(sp)
    80003de0:	f46e                	sd	s11,40(sp)
    80003de2:	e82a                	sd	a0,16(sp)
    80003de4:	ec2e                	sd	a1,24(sp)
    80003de6:	e432                	sd	a2,8(sp)
    80003de8:	0cc7fbd7          	vsetvli	s7,a5,204
    80003dec:	cfb9                	beqz	a5,80003e4a <fmatmul_16x16+0x84>
    80003dee:	8936                	mv	s2,a3
    80003df0:	8a3a                	mv	s4,a4
    80003df2:	84be                	mv	s1,a5
    80003df4:	00779b13          	slli	s6,a5,0x7
    80003df8:	00771a93          	slli	s5,a4,0x7
    80003dfc:	8cbe                	mv	s9,a5
    80003dfe:	4c01                	li	s8,0
    80003e00:	67a2                	ld	a5,8(sp)
    80003e02:	003c1513          	slli	a0,s8,0x3
    80003e06:	00a789b3          	add	s3,a5,a0
    80003e0a:	87de                	mv	a5,s7
    80003e0c:	017cf363          	bgeu	s9,s7,80003e12 <fmatmul_16x16+0x4c>
    80003e10:	87e6                	mv	a5,s9
    80003e12:	0cc7f057          	vsetvli	zero,a5,204
    80003e16:	02090563          	beqz	s2,80003e40 <fmatmul_16x16+0x7a>
    80003e1a:	67c2                	ld	a5,16(sp)
    80003e1c:	6de2                	ld	s11,24(sp)
    80003e1e:	4401                	li	s0,0
    80003e20:	00a78d33          	add	s10,a5,a0
    80003e24:	cd5ff0ef          	jal	ra,80003af8 <fmatmul_vec_16x16_slice_init>
    80003e28:	85ee                	mv	a1,s11
    80003e2a:	856a                	mv	a0,s10
    80003e2c:	8726                	mv	a4,s1
    80003e2e:	86d2                	mv	a3,s4
    80003e30:	864e                	mv	a2,s3
    80003e32:	0441                	addi	s0,s0,16
    80003e34:	d07ff0ef          	jal	ra,80003b3a <fmatmul_vec_16x16>
    80003e38:	9d5a                	add	s10,s10,s6
    80003e3a:	9dd6                	add	s11,s11,s5
    80003e3c:	ff2464e3          	bltu	s0,s2,80003e24 <fmatmul_16x16+0x5e>
    80003e40:	9c5e                	add	s8,s8,s7
    80003e42:	417c8cb3          	sub	s9,s9,s7
    80003e46:	fa9c6de3          	bltu	s8,s1,80003e00 <fmatmul_16x16+0x3a>
    80003e4a:	60aa                	ld	ra,136(sp)
    80003e4c:	640a                	ld	s0,128(sp)
    80003e4e:	74e6                	ld	s1,120(sp)
    80003e50:	7946                	ld	s2,112(sp)
    80003e52:	79a6                	ld	s3,104(sp)
    80003e54:	7a06                	ld	s4,96(sp)
    80003e56:	6ae6                	ld	s5,88(sp)
    80003e58:	6b46                	ld	s6,80(sp)
    80003e5a:	6ba6                	ld	s7,72(sp)
    80003e5c:	6c06                	ld	s8,64(sp)
    80003e5e:	7ce2                	ld	s9,56(sp)
    80003e60:	7d42                	ld	s10,48(sp)
    80003e62:	7da2                	ld	s11,40(sp)
    80003e64:	6149                	addi	sp,sp,144
    80003e66:	8082                	ret

0000000080003e68 <fmatmul>:
    80003e68:	4f91                	li	t6,4
    80003e6a:	8836                	mv	a6,a3
    80003e6c:	88aa                	mv	a7,a0
    80003e6e:	832e                	mv	t1,a1
    80003e70:	8e32                	mv	t3,a2
    80003e72:	8eba                	mv	t4,a4
    80003e74:	8f3e                	mv	t5,a5
    80003e76:	02dff463          	bgeu	t6,a3,80003e9e <fmatmul+0x36>
    80003e7a:	4fa1                	li	t6,8
    80003e7c:	00dffa63          	bgeu	t6,a3,80003e90 <fmatmul+0x28>
    80003e80:	04000f93          	li	t6,64
    80003e84:	02dff463          	bgeu	t6,a3,80003eac <fmatmul+0x44>
    80003e88:	08000793          	li	a5,128
    80003e8c:	00d7e963          	bltu	a5,a3,80003e9e <fmatmul+0x36>
    80003e90:	87fa                	mv	a5,t5
    80003e92:	8776                	mv	a4,t4
    80003e94:	86c2                	mv	a3,a6
    80003e96:	8672                	mv	a2,t3
    80003e98:	859a                	mv	a1,t1
    80003e9a:	8546                	mv	a0,a7
    80003e9c:	b645                	j	80003a3c <fmatmul_8x8>
    80003e9e:	87fa                	mv	a5,t5
    80003ea0:	8776                	mv	a4,t4
    80003ea2:	86c2                	mv	a3,a6
    80003ea4:	8672                	mv	a2,t3
    80003ea6:	859a                	mv	a1,t1
    80003ea8:	8546                	mv	a0,a7
    80003eaa:	b259                	j	80003830 <fmatmul_4x4>
    80003eac:	bf29                	j	80003dc6 <fmatmul_16x16>

0000000080003eae <imatmul_vec_4x4_slice_init>:
    80003eae:	5e003057          	vmv.v.i	v0,0
    80003eb2:	5e003257          	vmv.v.i	v4,0
    80003eb6:	5e003457          	vmv.v.i	v8,0
    80003eba:	5e003657          	vmv.v.i	v12,0
    80003ebe:	8082                	ret

0000000080003ec0 <imatmul_vec_4x4>:
    80003ec0:	02067807          	vle64.v	v16,(a2)
    80003ec4:	00369f13          	slli	t5,a3,0x3
    80003ec8:	01e58833          	add	a6,a1,t5
    80003ecc:	01e807b3          	add	a5,a6,t5
    80003ed0:	00371393          	slli	t2,a4,0x3
    80003ed4:	01e788b3          	add	a7,a5,t5
    80003ed8:	0005be83          	ld	t4,0(a1)
    80003edc:	00083e03          	ld	t3,0(a6)
    80003ee0:	0007b303          	ld	t1,0(a5)
    80003ee4:	0008b883          	ld	a7,0(a7)
    80003ee8:	961e                	add	a2,a2,t2
    80003eea:	c2c9                	beqz	a3,80003f6c <imatmul_vec_4x4+0xac>
    80003eec:	004f0793          	addi	a5,t5,4
    80003ef0:	0786                	slli	a5,a5,0x1
    80003ef2:	00ff0fb3          	add	t6,t5,a5
    80003ef6:	008f0813          	addi	a6,t5,8
    80003efa:	982e                	add	a6,a6,a1
    80003efc:	00858f13          	addi	t5,a1,8
    80003f00:	97ae                	add	a5,a5,a1
    80003f02:	00471293          	slli	t0,a4,0x4
    80003f06:	95fe                	add	a1,a1,t6
    80003f08:	4701                	li	a4,0
    80003f0a:	a815                	j	80003f3e <imatmul_vec_4x4+0x7e>
    80003f0c:	b74ee057          	vmacc.vx	v0,t4,v20
    80003f10:	008f3e83          	ld	t4,8(t5)
    80003f14:	020ff807          	vle64.v	v16,(t6)
    80003f18:	9616                	add	a2,a2,t0
    80003f1a:	b74e6257          	vmacc.vx	v4,t3,v20
    80003f1e:	00883e03          	ld	t3,8(a6)
    80003f22:	b7436457          	vmacc.vx	v8,t1,v20
    80003f26:	0087b303          	ld	t1,8(a5)
    80003f2a:	b748e657          	vmacc.vx	v12,a7,v20
    80003f2e:	0085b883          	ld	a7,8(a1)
    80003f32:	0f41                	addi	t5,t5,16
    80003f34:	0841                	addi	a6,a6,16
    80003f36:	07c1                	addi	a5,a5,16
    80003f38:	05c1                	addi	a1,a1,16
    80003f3a:	02d77963          	bgeu	a4,a3,80003f6c <imatmul_vec_4x4+0xac>
    80003f3e:	b70ee057          	vmacc.vx	v0,t4,v16
    80003f42:	000f3e83          	ld	t4,0(t5)
    80003f46:	02067a07          	vle64.v	v20,(a2)
    80003f4a:	00c38fb3          	add	t6,t2,a2
    80003f4e:	b70e6257          	vmacc.vx	v4,t3,v16
    80003f52:	00083e03          	ld	t3,0(a6)
    80003f56:	b7036457          	vmacc.vx	v8,t1,v16
    80003f5a:	0007b303          	ld	t1,0(a5)
    80003f5e:	b708e657          	vmacc.vx	v12,a7,v16
    80003f62:	0709                	addi	a4,a4,2
    80003f64:	0005b883          	ld	a7,0(a1)
    80003f68:	fae692e3          	bne	a3,a4,80003f0c <imatmul_vec_4x4+0x4c>
    80003f6c:	b74ee057          	vmacc.vx	v0,t4,v20
    80003f70:	02057027          	vse64.v	v0,(a0)
    80003f74:	951e                	add	a0,a0,t2
    80003f76:	b74e6257          	vmacc.vx	v4,t3,v20
    80003f7a:	02057227          	vse64.v	v4,(a0)
    80003f7e:	951e                	add	a0,a0,t2
    80003f80:	b7436457          	vmacc.vx	v8,t1,v20
    80003f84:	02057427          	vse64.v	v8,(a0)
    80003f88:	b748e657          	vmacc.vx	v12,a7,v20
    80003f8c:	951e                	add	a0,a0,t2
    80003f8e:	02057627          	vse64.v	v12,(a0)
    80003f92:	8082                	ret

0000000080003f94 <imatmul_4x4>:
    80003f94:	7175                	addi	sp,sp,-144
    80003f96:	e506                	sd	ra,136(sp)
    80003f98:	e122                	sd	s0,128(sp)
    80003f9a:	fca6                	sd	s1,120(sp)
    80003f9c:	f8ca                	sd	s2,112(sp)
    80003f9e:	f4ce                	sd	s3,104(sp)
    80003fa0:	f0d2                	sd	s4,96(sp)
    80003fa2:	ecd6                	sd	s5,88(sp)
    80003fa4:	e8da                	sd	s6,80(sp)
    80003fa6:	e4de                	sd	s7,72(sp)
    80003fa8:	e0e2                	sd	s8,64(sp)
    80003faa:	fc66                	sd	s9,56(sp)
    80003fac:	f86a                	sd	s10,48(sp)
    80003fae:	f46e                	sd	s11,40(sp)
    80003fb0:	e82a                	sd	a0,16(sp)
    80003fb2:	ec2e                	sd	a1,24(sp)
    80003fb4:	e432                	sd	a2,8(sp)
    80003fb6:	0ce7fb57          	vsetvli	s6,a5,e16,mf4,ta,ma
    80003fba:	c7a5                	beqz	a5,80004022 <imatmul_4x4+0x8e>
    80003fbc:	8936                	mv	s2,a3
    80003fbe:	8d3a                	mv	s10,a4
    80003fc0:	84be                	mv	s1,a5
    80003fc2:	00579a93          	slli	s5,a5,0x5
    80003fc6:	00571a13          	slli	s4,a4,0x5
    80003fca:	8c3e                	mv	s8,a5
    80003fcc:	4b81                	li	s7,0
    80003fce:	67a2                	ld	a5,8(sp)
    80003fd0:	003b9413          	slli	s0,s7,0x3
    80003fd4:	008789b3          	add	s3,a5,s0
    80003fd8:	87da                	mv	a5,s6
    80003fda:	016c7363          	bgeu	s8,s6,80003fe0 <imatmul_4x4+0x4c>
    80003fde:	87e2                	mv	a5,s8
    80003fe0:	0ce7f057          	vsetvli	zero,a5,e16,mf4,ta,ma
    80003fe4:	02090a63          	beqz	s2,80004018 <imatmul_4x4+0x84>
    80003fe8:	67c2                	ld	a5,16(sp)
    80003fea:	6ce2                	ld	s9,24(sp)
    80003fec:	4d81                	li	s11,0
    80003fee:	943e                	add	s0,s0,a5
    80003ff0:	5e003057          	vmv.v.i	v0,0
    80003ff4:	5e003257          	vmv.v.i	v4,0
    80003ff8:	5e003457          	vmv.v.i	v8,0
    80003ffc:	5e003657          	vmv.v.i	v12,0
    80004000:	85e6                	mv	a1,s9
    80004002:	8522                	mv	a0,s0
    80004004:	8726                	mv	a4,s1
    80004006:	86ea                	mv	a3,s10
    80004008:	864e                	mv	a2,s3
    8000400a:	0d91                	addi	s11,s11,4
    8000400c:	eb5ff0ef          	jal	ra,80003ec0 <imatmul_vec_4x4>
    80004010:	9456                	add	s0,s0,s5
    80004012:	9cd2                	add	s9,s9,s4
    80004014:	fd2deee3          	bltu	s11,s2,80003ff0 <imatmul_4x4+0x5c>
    80004018:	9bda                	add	s7,s7,s6
    8000401a:	416c0c33          	sub	s8,s8,s6
    8000401e:	fa9be8e3          	bltu	s7,s1,80003fce <imatmul_4x4+0x3a>
    80004022:	60aa                	ld	ra,136(sp)
    80004024:	640a                	ld	s0,128(sp)
    80004026:	74e6                	ld	s1,120(sp)
    80004028:	7946                	ld	s2,112(sp)
    8000402a:	79a6                	ld	s3,104(sp)
    8000402c:	7a06                	ld	s4,96(sp)
    8000402e:	6ae6                	ld	s5,88(sp)
    80004030:	6b46                	ld	s6,80(sp)
    80004032:	6ba6                	ld	s7,72(sp)
    80004034:	6c06                	ld	s8,64(sp)
    80004036:	7ce2                	ld	s9,56(sp)
    80004038:	7d42                	ld	s10,48(sp)
    8000403a:	7da2                	ld	s11,40(sp)
    8000403c:	6149                	addi	sp,sp,144
    8000403e:	8082                	ret

0000000080004040 <imatmul_vec_8x8_slice_init>:
    80004040:	5e003057          	vmv.v.i	v0,0
    80004044:	5e003157          	vmv.v.i	v2,0
    80004048:	5e003257          	vmv.v.i	v4,0
    8000404c:	5e003357          	vmv.v.i	v6,0
    80004050:	5e003457          	vmv.v.i	v8,0
    80004054:	5e003557          	vmv.v.i	v10,0
    80004058:	5e003657          	vmv.v.i	v12,0
    8000405c:	5e003757          	vmv.v.i	v14,0
    80004060:	8082                	ret

0000000080004062 <imatmul_vec_8x8>:
    80004062:	7139                	addi	sp,sp,-64
    80004064:	fc22                	sd	s0,56(sp)
    80004066:	f826                	sd	s1,48(sp)
    80004068:	f44a                	sd	s2,40(sp)
    8000406a:	f04e                	sd	s3,32(sp)
    8000406c:	ec52                	sd	s4,24(sp)
    8000406e:	e856                	sd	s5,16(sp)
    80004070:	e45a                	sd	s6,8(sp)
    80004072:	e05e                	sd	s7,0(sp)
    80004074:	8eb2                	mv	t4,a2
    80004076:	02067907          	vle64.v	v18,(a2)
    8000407a:	00369893          	slli	a7,a3,0x3
    8000407e:	011582b3          	add	t0,a1,a7
    80004082:	01128fb3          	add	t6,t0,a7
    80004086:	011f8f33          	add	t5,t6,a7
    8000408a:	011f0833          	add	a6,t5,a7
    8000408e:	01180633          	add	a2,a6,a7
    80004092:	011607b3          	add	a5,a2,a7
    80004096:	00371913          	slli	s2,a4,0x3
    8000409a:	98be                	add	a7,a7,a5
    8000409c:	0005bb83          	ld	s7,0(a1)
    800040a0:	0002bb03          	ld	s6,0(t0)
    800040a4:	000fba83          	ld	s5,0(t6)
    800040a8:	000f3a03          	ld	s4,0(t5)
    800040ac:	00083983          	ld	s3,0(a6)
    800040b0:	6204                	ld	s1,0(a2)
    800040b2:	6380                	ld	s0,0(a5)
    800040b4:	0008b383          	ld	t2,0(a7)
    800040b8:	9eca                	add	t4,t4,s2
    800040ba:	c6cd                	beqz	a3,80004164 <imatmul_vec_8x8+0x102>
    800040bc:	00471e13          	slli	t3,a4,0x4
    800040c0:	4701                	li	a4,0
    800040c2:	a8a1                	j	8000411a <imatmul_vec_8x8+0xb8>
    800040c4:	b74be057          	vmacc.vx	v0,s7,v20
    800040c8:	0105bb83          	ld	s7,16(a1)
    800040cc:	02037907          	vle64.v	v18,(t1)
    800040d0:	9ef2                	add	t4,t4,t3
    800040d2:	b74b6157          	vmacc.vx	v2,s6,v20
    800040d6:	0102bb03          	ld	s6,16(t0)
    800040da:	b74ae257          	vmacc.vx	v4,s5,v20
    800040de:	010fba83          	ld	s5,16(t6)
    800040e2:	b74a6357          	vmacc.vx	v6,s4,v20
    800040e6:	010f3a03          	ld	s4,16(t5)
    800040ea:	b749e457          	vmacc.vx	v8,s3,v20
    800040ee:	01083983          	ld	s3,16(a6)
    800040f2:	b744e557          	vmacc.vx	v10,s1,v20
    800040f6:	6a04                	ld	s1,16(a2)
    800040f8:	b7446657          	vmacc.vx	v12,s0,v20
    800040fc:	6b80                	ld	s0,16(a5)
    800040fe:	b743e757          	vmacc.vx	v14,t2,v20
    80004102:	0108b383          	ld	t2,16(a7)
    80004106:	05c1                	addi	a1,a1,16
    80004108:	02c1                	addi	t0,t0,16
    8000410a:	0fc1                	addi	t6,t6,16
    8000410c:	0f41                	addi	t5,t5,16
    8000410e:	0841                	addi	a6,a6,16
    80004110:	0641                	addi	a2,a2,16
    80004112:	07c1                	addi	a5,a5,16
    80004114:	08c1                	addi	a7,a7,16
    80004116:	04d77763          	bgeu	a4,a3,80004164 <imatmul_vec_8x8+0x102>
    8000411a:	b72be057          	vmacc.vx	v0,s7,v18
    8000411e:	0085bb83          	ld	s7,8(a1)
    80004122:	020efa07          	vle64.v	v20,(t4)
    80004126:	01d90333          	add	t1,s2,t4
    8000412a:	b72b6157          	vmacc.vx	v2,s6,v18
    8000412e:	0082bb03          	ld	s6,8(t0)
    80004132:	b72ae257          	vmacc.vx	v4,s5,v18
    80004136:	008fba83          	ld	s5,8(t6)
    8000413a:	b72a6357          	vmacc.vx	v6,s4,v18
    8000413e:	008f3a03          	ld	s4,8(t5)
    80004142:	b729e457          	vmacc.vx	v8,s3,v18
    80004146:	00883983          	ld	s3,8(a6)
    8000414a:	b724e557          	vmacc.vx	v10,s1,v18
    8000414e:	6604                	ld	s1,8(a2)
    80004150:	b7246657          	vmacc.vx	v12,s0,v18
    80004154:	6780                	ld	s0,8(a5)
    80004156:	b723e757          	vmacc.vx	v14,t2,v18
    8000415a:	0709                	addi	a4,a4,2
    8000415c:	0088b383          	ld	t2,8(a7)
    80004160:	f6e692e3          	bne	a3,a4,800040c4 <imatmul_vec_8x8+0x62>
    80004164:	b74be057          	vmacc.vx	v0,s7,v20
    80004168:	02057027          	vse64.v	v0,(a0)
    8000416c:	012507b3          	add	a5,a0,s2
    80004170:	b74b6157          	vmacc.vx	v2,s6,v20
    80004174:	0207f127          	vse64.v	v2,(a5)
    80004178:	97ca                	add	a5,a5,s2
    8000417a:	b74ae257          	vmacc.vx	v4,s5,v20
    8000417e:	0207f227          	vse64.v	v4,(a5)
    80004182:	97ca                	add	a5,a5,s2
    80004184:	b74a6357          	vmacc.vx	v6,s4,v20
    80004188:	0207f327          	vse64.v	v6,(a5)
    8000418c:	97ca                	add	a5,a5,s2
    8000418e:	b749e457          	vmacc.vx	v8,s3,v20
    80004192:	0207f427          	vse64.v	v8,(a5)
    80004196:	97ca                	add	a5,a5,s2
    80004198:	b744e557          	vmacc.vx	v10,s1,v20
    8000419c:	0207f527          	vse64.v	v10,(a5)
    800041a0:	97ca                	add	a5,a5,s2
    800041a2:	b7446657          	vmacc.vx	v12,s0,v20
    800041a6:	0207f627          	vse64.v	v12,(a5)
    800041aa:	b743e757          	vmacc.vx	v14,t2,v20
    800041ae:	97ca                	add	a5,a5,s2
    800041b0:	0207f727          	vse64.v	v14,(a5)
    800041b4:	7462                	ld	s0,56(sp)
    800041b6:	74c2                	ld	s1,48(sp)
    800041b8:	7922                	ld	s2,40(sp)
    800041ba:	7982                	ld	s3,32(sp)
    800041bc:	6a62                	ld	s4,24(sp)
    800041be:	6ac2                	ld	s5,16(sp)
    800041c0:	6b22                	ld	s6,8(sp)
    800041c2:	6b82                	ld	s7,0(sp)
    800041c4:	6121                	addi	sp,sp,64
    800041c6:	8082                	ret

00000000800041c8 <imatmul_8x8>:
    800041c8:	7175                	addi	sp,sp,-144
    800041ca:	e506                	sd	ra,136(sp)
    800041cc:	e122                	sd	s0,128(sp)
    800041ce:	fca6                	sd	s1,120(sp)
    800041d0:	f8ca                	sd	s2,112(sp)
    800041d2:	f4ce                	sd	s3,104(sp)
    800041d4:	f0d2                	sd	s4,96(sp)
    800041d6:	ecd6                	sd	s5,88(sp)
    800041d8:	e8da                	sd	s6,80(sp)
    800041da:	e4de                	sd	s7,72(sp)
    800041dc:	e0e2                	sd	s8,64(sp)
    800041de:	fc66                	sd	s9,56(sp)
    800041e0:	f86a                	sd	s10,48(sp)
    800041e2:	f46e                	sd	s11,40(sp)
    800041e4:	e82a                	sd	a0,16(sp)
    800041e6:	ec2e                	sd	a1,24(sp)
    800041e8:	e432                	sd	a2,8(sp)
    800041ea:	0cd7fb57          	vsetvli	s6,a5,e16,mf8,ta,ma
    800041ee:	cfa5                	beqz	a5,80004266 <imatmul_8x8+0x9e>
    800041f0:	8936                	mv	s2,a3
    800041f2:	8d3a                	mv	s10,a4
    800041f4:	84be                	mv	s1,a5
    800041f6:	00679a93          	slli	s5,a5,0x6
    800041fa:	00671a13          	slli	s4,a4,0x6
    800041fe:	8c3e                	mv	s8,a5
    80004200:	4b81                	li	s7,0
    80004202:	67a2                	ld	a5,8(sp)
    80004204:	003b9413          	slli	s0,s7,0x3
    80004208:	008789b3          	add	s3,a5,s0
    8000420c:	87da                	mv	a5,s6
    8000420e:	016c7363          	bgeu	s8,s6,80004214 <imatmul_8x8+0x4c>
    80004212:	87e2                	mv	a5,s8
    80004214:	0cd7f057          	vsetvli	zero,a5,e16,mf8,ta,ma
    80004218:	04090263          	beqz	s2,8000425c <imatmul_8x8+0x94>
    8000421c:	67c2                	ld	a5,16(sp)
    8000421e:	6ce2                	ld	s9,24(sp)
    80004220:	4d81                	li	s11,0
    80004222:	943e                	add	s0,s0,a5
    80004224:	5e003057          	vmv.v.i	v0,0
    80004228:	5e003157          	vmv.v.i	v2,0
    8000422c:	5e003257          	vmv.v.i	v4,0
    80004230:	5e003357          	vmv.v.i	v6,0
    80004234:	5e003457          	vmv.v.i	v8,0
    80004238:	5e003557          	vmv.v.i	v10,0
    8000423c:	5e003657          	vmv.v.i	v12,0
    80004240:	5e003757          	vmv.v.i	v14,0
    80004244:	85e6                	mv	a1,s9
    80004246:	8522                	mv	a0,s0
    80004248:	8726                	mv	a4,s1
    8000424a:	86ea                	mv	a3,s10
    8000424c:	864e                	mv	a2,s3
    8000424e:	0da1                	addi	s11,s11,8
    80004250:	e13ff0ef          	jal	ra,80004062 <imatmul_vec_8x8>
    80004254:	9456                	add	s0,s0,s5
    80004256:	9cd2                	add	s9,s9,s4
    80004258:	fd2de6e3          	bltu	s11,s2,80004224 <imatmul_8x8+0x5c>
    8000425c:	9bda                	add	s7,s7,s6
    8000425e:	416c0c33          	sub	s8,s8,s6
    80004262:	fa9be0e3          	bltu	s7,s1,80004202 <imatmul_8x8+0x3a>
    80004266:	60aa                	ld	ra,136(sp)
    80004268:	640a                	ld	s0,128(sp)
    8000426a:	74e6                	ld	s1,120(sp)
    8000426c:	7946                	ld	s2,112(sp)
    8000426e:	79a6                	ld	s3,104(sp)
    80004270:	7a06                	ld	s4,96(sp)
    80004272:	6ae6                	ld	s5,88(sp)
    80004274:	6b46                	ld	s6,80(sp)
    80004276:	6ba6                	ld	s7,72(sp)
    80004278:	6c06                	ld	s8,64(sp)
    8000427a:	7ce2                	ld	s9,56(sp)
    8000427c:	7d42                	ld	s10,48(sp)
    8000427e:	7da2                	ld	s11,40(sp)
    80004280:	6149                	addi	sp,sp,144
    80004282:	8082                	ret

0000000080004284 <imatmul>:
    80004284:	ffb68813          	addi	a6,a3,-5
    80004288:	07b00893          	li	a7,123
    8000428c:	0108e363          	bltu	a7,a6,80004292 <imatmul+0xe>
    80004290:	bf25                	j	800041c8 <imatmul_8x8>
    80004292:	b309                	j	80003f94 <imatmul_4x4>

0000000080004294 <k2c_linear_func>:
    80004294:	8082                	ret

0000000080004296 <k2c_relu_func>:
    80004296:	c185                	beqz	a1,800042b6 <k2c_relu_func+0x20>
    80004298:	f0000753          	fmv.w.x	fa4,zero
    8000429c:	058a                	slli	a1,a1,0x2
    8000429e:	00b50733          	add	a4,a0,a1
    800042a2:	00052787          	flw	fa5,0(a0)
    800042a6:	a0e787d3          	fle.s	a5,fa5,fa4
    800042aa:	c399                	beqz	a5,800042b0 <k2c_relu_func+0x1a>
    800042ac:	00052023          	sw	zero,0(a0)
    800042b0:	0511                	addi	a0,a0,4
    800042b2:	fee518e3          	bne	a0,a4,800042a2 <k2c_relu_func+0xc>
    800042b6:	8082                	ret

00000000800042b8 <k2c_hard_sigmoid_func>:
    800042b8:	cdb9                	beqz	a1,80004316 <k2c_hard_sigmoid_func+0x5e>
    800042ba:	058a                	slli	a1,a1,0x2
    800042bc:	00b50733          	add	a4,a0,a1
    800042c0:	0000d797          	auipc	a5,0xd
    800042c4:	bd87a687          	flw	fa3,-1064(a5) # 80010e98 <impure_data+0x760>
    800042c8:	0000d797          	auipc	a5,0xd
    800042cc:	bd47a707          	flw	fa4,-1068(a5) # 80010e9c <impure_data+0x764>
    800042d0:	0000d797          	auipc	a5,0xd
    800042d4:	bd47a587          	flw	fa1,-1068(a5) # 80010ea4 <impure_data+0x76c>
    800042d8:	0000d797          	auipc	a5,0xd
    800042dc:	bd07a607          	flw	fa2,-1072(a5) # 80010ea8 <impure_data+0x770>
    800042e0:	0000d617          	auipc	a2,0xd
    800042e4:	bc060613          	addi	a2,a2,-1088 # 80010ea0 <impure_data+0x768>
    800042e8:	a031                	j	800042f4 <k2c_hard_sigmoid_func+0x3c>
    800042ea:	00052023          	sw	zero,0(a0)
    800042ee:	0511                	addi	a0,a0,4
    800042f0:	02e50363          	beq	a0,a4,80004316 <k2c_hard_sigmoid_func+0x5e>
    800042f4:	00052787          	flw	fa5,0(a0)
    800042f8:	a0d787d3          	fle.s	a5,fa5,fa3
    800042fc:	a0f706d3          	fle.s	a3,fa4,fa5
    80004300:	f7ed                	bnez	a5,800042ea <k2c_hard_sigmoid_func+0x32>
    80004302:	60b7f7c3          	fmadd.s	fa5,fa5,fa1,fa2
    80004306:	ca89                	beqz	a3,80004318 <k2c_hard_sigmoid_func+0x60>
    80004308:	00062787          	flw	fa5,0(a2)
    8000430c:	0511                	addi	a0,a0,4
    8000430e:	fef52e27          	fsw	fa5,-4(a0)
    80004312:	fee511e3          	bne	a0,a4,800042f4 <k2c_hard_sigmoid_func+0x3c>
    80004316:	8082                	ret
    80004318:	00f52027          	fsw	fa5,0(a0)
    8000431c:	bfc9                	j	800042ee <k2c_hard_sigmoid_func+0x36>

000000008000431e <k2c_softsign_func>:
    8000431e:	c58d                	beqz	a1,80004348 <k2c_softsign_func+0x2a>
    80004320:	058a                	slli	a1,a1,0x2
    80004322:	00b507b3          	add	a5,a0,a1
    80004326:	0000d717          	auipc	a4,0xd
    8000432a:	b7a72687          	flw	fa3,-1158(a4) # 80010ea0 <impure_data+0x768>
    8000432e:	00052787          	flw	fa5,0(a0)
    80004332:	0511                	addi	a0,a0,4
    80004334:	20f7a753          	fabs.s	fa4,fa5
    80004338:	00d77753          	fadd.s	fa4,fa4,fa3
    8000433c:	18e7f7d3          	fdiv.s	fa5,fa5,fa4
    80004340:	fef52e27          	fsw	fa5,-4(a0)
    80004344:	fea795e3          	bne	a5,a0,8000432e <k2c_softsign_func+0x10>
    80004348:	8082                	ret

000000008000434a <k2c_exponential_func>:
    8000434a:	c59d                	beqz	a1,80004378 <k2c_exponential_func+0x2e>
    8000434c:	1101                	addi	sp,sp,-32
    8000434e:	058a                	slli	a1,a1,0x2
    80004350:	e822                	sd	s0,16(sp)
    80004352:	e426                	sd	s1,8(sp)
    80004354:	ec06                	sd	ra,24(sp)
    80004356:	842a                	mv	s0,a0
    80004358:	00b504b3          	add	s1,a0,a1
    8000435c:	00042507          	flw	fa0,0(s0)
    80004360:	0411                	addi	s0,s0,4
    80004362:	5ba030ef          	jal	ra,8000791c <expf>
    80004366:	fea42e27          	fsw	fa0,-4(s0)
    8000436a:	fe9419e3          	bne	s0,s1,8000435c <k2c_exponential_func+0x12>
    8000436e:	60e2                	ld	ra,24(sp)
    80004370:	6442                	ld	s0,16(sp)
    80004372:	64a2                	ld	s1,8(sp)
    80004374:	6105                	addi	sp,sp,32
    80004376:	8082                	ret
    80004378:	8082                	ret

000000008000437a <k2c_sigmoid_func>:
    8000437a:	c1b9                	beqz	a1,800043c0 <k2c_sigmoid_func+0x46>
    8000437c:	7179                	addi	sp,sp,-48
    8000437e:	058a                	slli	a1,a1,0x2
    80004380:	f022                	sd	s0,32(sp)
    80004382:	ec26                	sd	s1,24(sp)
    80004384:	a422                	fsd	fs0,8(sp)
    80004386:	f406                	sd	ra,40(sp)
    80004388:	842a                	mv	s0,a0
    8000438a:	00b504b3          	add	s1,a0,a1
    8000438e:	0000d797          	auipc	a5,0xd
    80004392:	b127a407          	flw	fs0,-1262(a5) # 80010ea0 <impure_data+0x768>
    80004396:	00042507          	flw	fa0,0(s0)
    8000439a:	0411                	addi	s0,s0,4
    8000439c:	20a51553          	fneg.s	fa0,fa0
    800043a0:	57c030ef          	jal	ra,8000791c <expf>
    800043a4:	00857553          	fadd.s	fa0,fa0,fs0
    800043a8:	18a47553          	fdiv.s	fa0,fs0,fa0
    800043ac:	fea42e27          	fsw	fa0,-4(s0)
    800043b0:	fe8493e3          	bne	s1,s0,80004396 <k2c_sigmoid_func+0x1c>
    800043b4:	70a2                	ld	ra,40(sp)
    800043b6:	7402                	ld	s0,32(sp)
    800043b8:	64e2                	ld	s1,24(sp)
    800043ba:	2422                	fld	fs0,8(sp)
    800043bc:	6145                	addi	sp,sp,48
    800043be:	8082                	ret
    800043c0:	8082                	ret

00000000800043c2 <k2c_softmax_func>:
    800043c2:	00052507          	flw	fa0,0(a0)
    800043c6:	c9c9                	beqz	a1,80004458 <k2c_softmax_func+0x96>
    800043c8:	7139                	addi	sp,sp,-64
    800043ca:	058a                	slli	a1,a1,0x2
    800043cc:	f822                	sd	s0,48(sp)
    800043ce:	f426                	sd	s1,40(sp)
    800043d0:	ec4e                	sd	s3,24(sp)
    800043d2:	a422                	fsd	fs0,8(sp)
    800043d4:	20a507d3          	fmv.s	fa5,fa0
    800043d8:	20a50453          	fmv.s	fs0,fa0
    800043dc:	fc06                	sd	ra,56(sp)
    800043de:	f04a                	sd	s2,32(sp)
    800043e0:	89aa                	mv	s3,a0
    800043e2:	00450413          	addi	s0,a0,4
    800043e6:	84aa                	mv	s1,a0
    800043e8:	00b507b3          	add	a5,a0,a1
    800043ec:	a021                	j	800043f4 <k2c_softmax_func+0x32>
    800043ee:	00042787          	flw	fa5,0(s0)
    800043f2:	0411                	addi	s0,s0,4
    800043f4:	28f41453          	fmax.s	fs0,fs0,fa5
    800043f8:	fe879be3          	bne	a5,s0,800043ee <k2c_softmax_func+0x2c>
    800043fc:	894e                	mv	s2,s3
    800043fe:	a019                	j	80004404 <k2c_softmax_func+0x42>
    80004400:	00092507          	flw	fa0,0(s2)
    80004404:	08857553          	fsub.s	fa0,fa0,fs0
    80004408:	0911                	addi	s2,s2,4
    8000440a:	512030ef          	jal	ra,8000791c <expf>
    8000440e:	fea92e27          	fsw	fa0,-4(s2)
    80004412:	fe8917e3          	bne	s2,s0,80004400 <k2c_softmax_func+0x3e>
    80004416:	f00007d3          	fmv.w.x	fa5,zero
    8000441a:	854e                	mv	a0,s3
    8000441c:	00052707          	flw	fa4,0(a0)
    80004420:	0511                	addi	a0,a0,4
    80004422:	00e7f7d3          	fadd.s	fa5,fa5,fa4
    80004426:	fe851be3          	bne	a0,s0,8000441c <k2c_softmax_func+0x5a>
    8000442a:	0000d797          	auipc	a5,0xd
    8000442e:	a767a707          	flw	fa4,-1418(a5) # 80010ea0 <impure_data+0x768>
    80004432:	18f77753          	fdiv.s	fa4,fa4,fa5
    80004436:	0004a787          	flw	fa5,0(s1)
    8000443a:	0491                	addi	s1,s1,4
    8000443c:	10e7f7d3          	fmul.s	fa5,fa5,fa4
    80004440:	fef4ae27          	fsw	fa5,-4(s1)
    80004444:	fe8499e3          	bne	s1,s0,80004436 <k2c_softmax_func+0x74>
    80004448:	70e2                	ld	ra,56(sp)
    8000444a:	7442                	ld	s0,48(sp)
    8000444c:	74a2                	ld	s1,40(sp)
    8000444e:	7902                	ld	s2,32(sp)
    80004450:	69e2                	ld	s3,24(sp)
    80004452:	2422                	fld	fs0,8(sp)
    80004454:	6121                	addi	sp,sp,64
    80004456:	8082                	ret
    80004458:	8082                	ret

000000008000445a <k2c_tanh_func>:
    8000445a:	c59d                	beqz	a1,80004488 <k2c_tanh_func+0x2e>
    8000445c:	1101                	addi	sp,sp,-32
    8000445e:	058a                	slli	a1,a1,0x2
    80004460:	e822                	sd	s0,16(sp)
    80004462:	e426                	sd	s1,8(sp)
    80004464:	ec06                	sd	ra,24(sp)
    80004466:	842a                	mv	s0,a0
    80004468:	00b504b3          	add	s1,a0,a1
    8000446c:	00042507          	flw	fa0,0(s0)
    80004470:	0411                	addi	s0,s0,4
    80004472:	39a030ef          	jal	ra,8000780c <tanhf>
    80004476:	fea42e27          	fsw	fa0,-4(s0)
    8000447a:	fe9419e3          	bne	s0,s1,8000446c <k2c_tanh_func+0x12>
    8000447e:	60e2                	ld	ra,24(sp)
    80004480:	6442                	ld	s0,16(sp)
    80004482:	64a2                	ld	s1,8(sp)
    80004484:	6105                	addi	sp,sp,32
    80004486:	8082                	ret
    80004488:	8082                	ret

000000008000448a <k2c_softplus_func>:
    8000448a:	c98d                	beqz	a1,800044bc <k2c_softplus_func+0x32>
    8000448c:	1101                	addi	sp,sp,-32
    8000448e:	058a                	slli	a1,a1,0x2
    80004490:	e822                	sd	s0,16(sp)
    80004492:	e426                	sd	s1,8(sp)
    80004494:	ec06                	sd	ra,24(sp)
    80004496:	842a                	mv	s0,a0
    80004498:	00b504b3          	add	s1,a0,a1
    8000449c:	00042507          	flw	fa0,0(s0)
    800044a0:	0411                	addi	s0,s0,4
    800044a2:	47a030ef          	jal	ra,8000791c <expf>
    800044a6:	056030ef          	jal	ra,800074fc <log1pf>
    800044aa:	fea42e27          	fsw	fa0,-4(s0)
    800044ae:	fe9417e3          	bne	s0,s1,8000449c <k2c_softplus_func+0x12>
    800044b2:	60e2                	ld	ra,24(sp)
    800044b4:	6442                	ld	s0,16(sp)
    800044b6:	64a2                	ld	s1,8(sp)
    800044b8:	6105                	addi	sp,sp,32
    800044ba:	8082                	ret
    800044bc:	8082                	ret

00000000800044be <k2c_LeakyReLU>:
    800044be:	c195                	beqz	a1,800044e2 <k2c_LeakyReLU+0x24>
    800044c0:	f00006d3          	fmv.w.x	fa3,zero
    800044c4:	058a                	slli	a1,a1,0x2
    800044c6:	00b50733          	add	a4,a0,a1
    800044ca:	00052787          	flw	fa5,0(a0)
    800044ce:	a0d797d3          	flt.s	a5,fa5,fa3
    800044d2:	10a7f753          	fmul.s	fa4,fa5,fa0
    800044d6:	c399                	beqz	a5,800044dc <k2c_LeakyReLU+0x1e>
    800044d8:	00e52027          	fsw	fa4,0(a0)
    800044dc:	0511                	addi	a0,a0,4
    800044de:	fee516e3          	bne	a0,a4,800044ca <k2c_LeakyReLU+0xc>
    800044e2:	8082                	ret

00000000800044e4 <k2c_PReLU>:
    800044e4:	c58d                	beqz	a1,8000450e <k2c_PReLU+0x2a>
    800044e6:	f00006d3          	fmv.w.x	fa3,zero
    800044ea:	058a                	slli	a1,a1,0x2
    800044ec:	00b50733          	add	a4,a0,a1
    800044f0:	00052787          	flw	fa5,0(a0)
    800044f4:	a0d797d3          	flt.s	a5,fa5,fa3
    800044f8:	c799                	beqz	a5,80004506 <k2c_PReLU+0x22>
    800044fa:	00062707          	flw	fa4,0(a2)
    800044fe:	10f777d3          	fmul.s	fa5,fa4,fa5
    80004502:	00f52027          	fsw	fa5,0(a0)
    80004506:	0511                	addi	a0,a0,4
    80004508:	0611                	addi	a2,a2,4
    8000450a:	fee513e3          	bne	a0,a4,800044f0 <k2c_PReLU+0xc>
    8000450e:	8082                	ret

0000000080004510 <k2c_ELU>:
    80004510:	c5a1                	beqz	a1,80004558 <k2c_ELU+0x48>
    80004512:	7179                	addi	sp,sp,-48
    80004514:	a422                	fsd	fs0,8(sp)
    80004516:	a026                	fsd	fs1,0(sp)
    80004518:	f0000453          	fmv.w.x	fs0,zero
    8000451c:	20a504d3          	fmv.s	fs1,fa0
    80004520:	058a                	slli	a1,a1,0x2
    80004522:	f022                	sd	s0,32(sp)
    80004524:	ec26                	sd	s1,24(sp)
    80004526:	f406                	sd	ra,40(sp)
    80004528:	842a                	mv	s0,a0
    8000452a:	00b504b3          	add	s1,a0,a1
    8000452e:	00042507          	flw	fa0,0(s0)
    80004532:	a08507d3          	fle.s	a5,fa0,fs0
    80004536:	c799                	beqz	a5,80004544 <k2c_ELU+0x34>
    80004538:	495020ef          	jal	ra,800071cc <expm1f>
    8000453c:	10957553          	fmul.s	fa0,fa0,fs1
    80004540:	00a42027          	fsw	fa0,0(s0)
    80004544:	0411                	addi	s0,s0,4
    80004546:	fe9414e3          	bne	s0,s1,8000452e <k2c_ELU+0x1e>
    8000454a:	70a2                	ld	ra,40(sp)
    8000454c:	7402                	ld	s0,32(sp)
    8000454e:	64e2                	ld	s1,24(sp)
    80004550:	2422                	fld	fs0,8(sp)
    80004552:	2482                	fld	fs1,0(sp)
    80004554:	6145                	addi	sp,sp,48
    80004556:	8082                	ret
    80004558:	8082                	ret

000000008000455a <k2c_ThresholdedReLU>:
    8000455a:	cd91                	beqz	a1,80004576 <k2c_ThresholdedReLU+0x1c>
    8000455c:	058a                	slli	a1,a1,0x2
    8000455e:	00b50733          	add	a4,a0,a1
    80004562:	00052787          	flw	fa5,0(a0)
    80004566:	a0a787d3          	fle.s	a5,fa5,fa0
    8000456a:	c399                	beqz	a5,80004570 <k2c_ThresholdedReLU+0x16>
    8000456c:	00052023          	sw	zero,0(a0)
    80004570:	0511                	addi	a0,a0,4
    80004572:	fee518e3          	bne	a0,a4,80004562 <k2c_ThresholdedReLU+0x8>
    80004576:	8082                	ret

0000000080004578 <k2c_ReLU>:
    80004578:	c99d                	beqz	a1,800045ae <k2c_ReLU+0x36>
    8000457a:	058a                	slli	a1,a1,0x2
    8000457c:	00b50733          	add	a4,a0,a1
    80004580:	a031                	j	8000458c <k2c_ReLU+0x14>
    80004582:	00a52027          	fsw	fa0,0(a0)
    80004586:	0511                	addi	a0,a0,4
    80004588:	02e50363          	beq	a0,a4,800045ae <k2c_ReLU+0x36>
    8000458c:	00052787          	flw	fa5,0(a0)
    80004590:	a0f507d3          	fle.s	a5,fa0,fa5
    80004594:	a0c796d3          	flt.s	a3,fa5,fa2
    80004598:	f7ed                	bnez	a5,80004582 <k2c_ReLU+0xa>
    8000459a:	08c7f7d3          	fsub.s	fa5,fa5,fa2
    8000459e:	d6e5                	beqz	a3,80004586 <k2c_ReLU+0xe>
    800045a0:	10b7f7d3          	fmul.s	fa5,fa5,fa1
    800045a4:	0511                	addi	a0,a0,4
    800045a6:	fef52e27          	fsw	fa5,-4(a0)
    800045aa:	fee511e3          	bne	a0,a4,8000458c <k2c_ReLU+0x14>
    800045ae:	8082                	ret

00000000800045b0 <k2c_pad1d>:
    800045b0:	20a527d3          	fabs.s	fa5,fa0
    800045b4:	0000d797          	auipc	a5,0xd
    800045b8:	8dc7b707          	fld	fa4,-1828(a5) # 80010e90 <impure_data+0x758>
    800045bc:	7179                	addi	sp,sp,-48
    800045be:	420787d3          	fcvt.d.s	fa5,fa5
    800045c2:	f022                	sd	s0,32(sp)
    800045c4:	ec26                	sd	s1,24(sp)
    800045c6:	a2e797d3          	flt.d	a5,fa5,fa4
    800045ca:	e84a                	sd	s2,16(sp)
    800045cc:	e44e                	sd	s3,8(sp)
    800045ce:	892a                	mv	s2,a0
    800045d0:	f406                	sd	ra,40(sp)
    800045d2:	00063983          	ld	s3,0(a2)
    800045d6:	7180                	ld	s0,32(a1)
    800045d8:	6108                	ld	a0,0(a0)
    800045da:	01093603          	ld	a2,16(s2)
    800045de:	84ae                	mv	s1,a1
    800045e0:	eb95                	bnez	a5,80004614 <k2c_pad1d+0x64>
    800045e2:	00261713          	slli	a4,a2,0x2
    800045e6:	87aa                	mv	a5,a0
    800045e8:	972a                	add	a4,a4,a0
    800045ea:	c611                	beqz	a2,800045f6 <k2c_pad1d+0x46>
    800045ec:	00a7a027          	fsw	fa0,0(a5)
    800045f0:	0791                	addi	a5,a5,4
    800045f2:	fee79de3          	bne	a5,a4,800045ec <k2c_pad1d+0x3c>
    800045f6:	03340433          	mul	s0,s0,s3
    800045fa:	6890                	ld	a2,16(s1)
    800045fc:	608c                	ld	a1,0(s1)
    800045fe:	70a2                	ld	ra,40(sp)
    80004600:	64e2                	ld	s1,24(sp)
    80004602:	6942                	ld	s2,16(sp)
    80004604:	69a2                	ld	s3,8(sp)
    80004606:	060a                	slli	a2,a2,0x2
    80004608:	040a                	slli	s0,s0,0x2
    8000460a:	9522                	add	a0,a0,s0
    8000460c:	7402                	ld	s0,32(sp)
    8000460e:	6145                	addi	sp,sp,48
    80004610:	1af0206f          	j	80006fbe <memcpy>
    80004614:	060a                	slli	a2,a2,0x2
    80004616:	4581                	li	a1,0
    80004618:	1e7020ef          	jal	ra,80006ffe <memset>
    8000461c:	00093503          	ld	a0,0(s2)
    80004620:	bfd9                	j	800045f6 <k2c_pad1d+0x46>

0000000080004622 <k2c_pad2d>:
    80004622:	20a527d3          	fabs.s	fa5,fa0
    80004626:	0000d797          	auipc	a5,0xd
    8000462a:	86a7b707          	fld	fa4,-1942(a5) # 80010e90 <impure_data+0x758>
    8000462e:	715d                	addi	sp,sp,-80
    80004630:	420787d3          	fcvt.d.s	fa5,fa5
    80004634:	e0a2                	sd	s0,64(sp)
    80004636:	fc26                	sd	s1,56(sp)
    80004638:	a2e797d3          	flt.d	a5,fa5,fa4
    8000463c:	f84a                	sd	s2,48(sp)
    8000463e:	f44e                	sd	s3,40(sp)
    80004640:	f052                	sd	s4,32(sp)
    80004642:	ec56                	sd	s5,24(sp)
    80004644:	e85a                	sd	s6,16(sp)
    80004646:	e45e                	sd	s7,8(sp)
    80004648:	e486                	sd	ra,72(sp)
    8000464a:	6200                	ld	s0,0(a2)
    8000464c:	6a04                	ld	s1,16(a2)
    8000464e:	01863a03          	ld	s4,24(a2)
    80004652:	0185ba83          	ld	s5,24(a1)
    80004656:	0205b983          	ld	s3,32(a1)
    8000465a:	0285b903          	ld	s2,40(a1)
    8000465e:	6910                	ld	a2,16(a0)
    80004660:	8b2e                	mv	s6,a1
    80004662:	8baa                	mv	s7,a0
    80004664:	e7ad                	bnez	a5,800046ce <k2c_pad2d+0xac>
    80004666:	ca09                	beqz	a2,80004678 <k2c_pad2d+0x56>
    80004668:	611c                	ld	a5,0(a0)
    8000466a:	060a                	slli	a2,a2,0x2
    8000466c:	963e                	add	a2,a2,a5
    8000466e:	00a7a027          	fsw	fa0,0(a5)
    80004672:	0791                	addi	a5,a5,4
    80004674:	fec79de3          	bne	a5,a2,8000466e <k2c_pad2d+0x4c>
    80004678:	9a26                	add	s4,s4,s1
    8000467a:	9a4e                	add	s4,s4,s3
    8000467c:	032a0a33          	mul	s4,s4,s2
    80004680:	029904b3          	mul	s1,s2,s1
    80004684:	028a0433          	mul	s0,s4,s0
    80004688:	032989b3          	mul	s3,s3,s2
    8000468c:	9426                	add	s0,s0,s1
    8000468e:	020a8563          	beqz	s5,800046b8 <k2c_pad2d+0x96>
    80004692:	098a                	slli	s3,s3,0x2
    80004694:	0a0a                	slli	s4,s4,0x2
    80004696:	040a                	slli	s0,s0,0x2
    80004698:	4901                	li	s2,0
    8000469a:	4481                	li	s1,0
    8000469c:	000bb503          	ld	a0,0(s7)
    800046a0:	000b3583          	ld	a1,0(s6)
    800046a4:	864e                	mv	a2,s3
    800046a6:	9522                	add	a0,a0,s0
    800046a8:	95ca                	add	a1,a1,s2
    800046aa:	0485                	addi	s1,s1,1
    800046ac:	113020ef          	jal	ra,80006fbe <memcpy>
    800046b0:	9452                	add	s0,s0,s4
    800046b2:	994e                	add	s2,s2,s3
    800046b4:	fe9a94e3          	bne	s5,s1,8000469c <k2c_pad2d+0x7a>
    800046b8:	60a6                	ld	ra,72(sp)
    800046ba:	6406                	ld	s0,64(sp)
    800046bc:	74e2                	ld	s1,56(sp)
    800046be:	7942                	ld	s2,48(sp)
    800046c0:	79a2                	ld	s3,40(sp)
    800046c2:	7a02                	ld	s4,32(sp)
    800046c4:	6ae2                	ld	s5,24(sp)
    800046c6:	6b42                	ld	s6,16(sp)
    800046c8:	6ba2                	ld	s7,8(sp)
    800046ca:	6161                	addi	sp,sp,80
    800046cc:	8082                	ret
    800046ce:	6108                	ld	a0,0(a0)
    800046d0:	060a                	slli	a2,a2,0x2
    800046d2:	4581                	li	a1,0
    800046d4:	12b020ef          	jal	ra,80006ffe <memset>
    800046d8:	b745                	j	80004678 <k2c_pad2d+0x56>

00000000800046da <k2c_pad3d>:
    800046da:	20a527d3          	fabs.s	fa5,fa0
    800046de:	7119                	addi	sp,sp,-128
    800046e0:	6e14                	ld	a3,24(a2)
    800046e2:	420787d3          	fcvt.d.s	fa5,fa5
    800046e6:	02063803          	ld	a6,32(a2)
    800046ea:	e0da                	sd	s6,64(sp)
    800046ec:	f862                	sd	s8,48(sp)
    800046ee:	01063b03          	ld	s6,16(a2)
    800046f2:	8c2e                	mv	s8,a1
    800046f4:	0000c797          	auipc	a5,0xc
    800046f8:	79c7b707          	fld	fa4,1948(a5) # 80010e90 <impure_data+0x758>
    800046fc:	760c                	ld	a1,40(a2)
    800046fe:	f4a6                	sd	s1,104(sp)
    80004700:	e8d2                	sd	s4,80(sp)
    80004702:	e4d6                	sd	s5,72(sp)
    80004704:	020c3a03          	ld	s4,32(s8)
    80004708:	028c3a83          	ld	s5,40(s8)
    8000470c:	84b2                	mv	s1,a2
    8000470e:	a2e79653          	flt.d	a2,fa5,fa4
    80004712:	f8a2                	sd	s0,112(sp)
    80004714:	f0ca                	sd	s2,96(sp)
    80004716:	fc5e                	sd	s7,56(sp)
    80004718:	f466                	sd	s9,40(sp)
    8000471a:	f06a                	sd	s10,32(sp)
    8000471c:	8caa                	mv	s9,a0
    8000471e:	96da                	add	a3,a3,s6
    80004720:	00b80533          	add	a0,a6,a1
    80004724:	fc86                	sd	ra,120(sp)
    80004726:	ecce                	sd	s3,88(sp)
    80004728:	ec6e                	sd	s11,24(sp)
    8000472a:	018c3d03          	ld	s10,24(s8)
    8000472e:	030c3b83          	ld	s7,48(s8)
    80004732:	010cb583          	ld	a1,16(s9)
    80004736:	01468933          	add	s2,a3,s4
    8000473a:	01550433          	add	s0,a0,s5
    8000473e:	e64d                	bnez	a2,800047e8 <k2c_pad3d+0x10e>
    80004740:	c991                	beqz	a1,80004754 <k2c_pad3d+0x7a>
    80004742:	000cb683          	ld	a3,0(s9)
    80004746:	058a                	slli	a1,a1,0x2
    80004748:	95b6                	add	a1,a1,a3
    8000474a:	00a6a027          	fsw	fa0,0(a3)
    8000474e:	0691                	addi	a3,a3,4
    80004750:	fed59de3          	bne	a1,a3,8000474a <k2c_pad3d+0x70>
    80004754:	02890933          	mul	s2,s2,s0
    80004758:	6094                	ld	a3,0(s1)
    8000475a:	037907b3          	mul	a5,s2,s7
    8000475e:	037a89b3          	mul	s3,s5,s7
    80004762:	e03e                	sd	a5,0(sp)
    80004764:	03640b33          	mul	s6,s0,s6
    80004768:	035a0ab3          	mul	s5,s4,s5
    8000476c:	9b42                	add	s6,s6,a6
    8000476e:	02d786b3          	mul	a3,a5,a3
    80004772:	037a87b3          	mul	a5,s5,s7
    80004776:	037b0b33          	mul	s6,s6,s7
    8000477a:	e43e                	sd	a5,8(sp)
    8000477c:	02ab8533          	mul	a0,s7,a0
    80004780:	9b36                	add	s6,s6,a3
    80004782:	954e                	add	a0,a0,s3
    80004784:	040d0363          	beqz	s10,800047ca <k2c_pad3d+0xf0>
    80004788:	098a                	slli	s3,s3,0x2
    8000478a:	00251a93          	slli	s5,a0,0x2
    8000478e:	4d81                	li	s11,0
    80004790:	4b81                	li	s7,0
    80004792:	002b1913          	slli	s2,s6,0x2
    80004796:	002d9493          	slli	s1,s11,0x2
    8000479a:	4401                	li	s0,0
    8000479c:	020a0063          	beqz	s4,800047bc <k2c_pad3d+0xe2>
    800047a0:	000cb503          	ld	a0,0(s9)
    800047a4:	000c3583          	ld	a1,0(s8)
    800047a8:	864e                	mv	a2,s3
    800047aa:	954a                	add	a0,a0,s2
    800047ac:	95a6                	add	a1,a1,s1
    800047ae:	0405                	addi	s0,s0,1
    800047b0:	00f020ef          	jal	ra,80006fbe <memcpy>
    800047b4:	9956                	add	s2,s2,s5
    800047b6:	94ce                	add	s1,s1,s3
    800047b8:	fe8a14e3          	bne	s4,s0,800047a0 <k2c_pad3d+0xc6>
    800047bc:	6782                	ld	a5,0(sp)
    800047be:	0b85                	addi	s7,s7,1
    800047c0:	9b3e                	add	s6,s6,a5
    800047c2:	67a2                	ld	a5,8(sp)
    800047c4:	9dbe                	add	s11,s11,a5
    800047c6:	fd7d16e3          	bne	s10,s7,80004792 <k2c_pad3d+0xb8>
    800047ca:	70e6                	ld	ra,120(sp)
    800047cc:	7446                	ld	s0,112(sp)
    800047ce:	74a6                	ld	s1,104(sp)
    800047d0:	7906                	ld	s2,96(sp)
    800047d2:	69e6                	ld	s3,88(sp)
    800047d4:	6a46                	ld	s4,80(sp)
    800047d6:	6aa6                	ld	s5,72(sp)
    800047d8:	6b06                	ld	s6,64(sp)
    800047da:	7be2                	ld	s7,56(sp)
    800047dc:	7c42                	ld	s8,48(sp)
    800047de:	7ca2                	ld	s9,40(sp)
    800047e0:	7d02                	ld	s10,32(sp)
    800047e2:	6de2                	ld	s11,24(sp)
    800047e4:	6109                	addi	sp,sp,128
    800047e6:	8082                	ret
    800047e8:	000cb503          	ld	a0,0(s9)
    800047ec:	00259613          	slli	a2,a1,0x2
    800047f0:	4581                	li	a1,0
    800047f2:	00d020ef          	jal	ra,80006ffe <memset>
    800047f6:	0204b803          	ld	a6,32(s1)
    800047fa:	7488                	ld	a0,40(s1)
    800047fc:	0104bb03          	ld	s6,16(s1)
    80004800:	9542                	add	a0,a0,a6
    80004802:	bf89                	j	80004754 <k2c_pad3d+0x7a>

0000000080004804 <k2c_conv1d>:
    80004804:	711d                	addi	sp,sp,-96
    80004806:	01053883          	ld	a7,16(a0)
    8000480a:	e4a6                	sd	s1,72(sp)
    8000480c:	84aa                	mv	s1,a0
    8000480e:	6108                	ld	a0,0(a0)
    80004810:	e8a2                	sd	s0,80(sp)
    80004812:	e0ca                	sd	s2,64(sp)
    80004814:	8432                	mv	s0,a2
    80004816:	892e                	mv	s2,a1
    80004818:	00289613          	slli	a2,a7,0x2
    8000481c:	4581                	li	a1,0
    8000481e:	fc4e                	sd	s3,56(sp)
    80004820:	f852                	sd	s4,48(sp)
    80004822:	f05a                	sd	s6,32(sp)
    80004824:	ec5e                	sd	s7,24(sp)
    80004826:	e862                	sd	s8,16(sp)
    80004828:	ec86                	sd	ra,88(sp)
    8000482a:	f456                	sd	s5,40(sp)
    8000482c:	e466                	sd	s9,8(sp)
    8000482e:	89b6                	mv	s3,a3
    80004830:	8a3a                	mv	s4,a4
    80004832:	8bbe                	mv	s7,a5
    80004834:	8c42                	mv	s8,a6
    80004836:	7c8020ef          	jal	ra,80006ffe <memset>
    8000483a:	0184bb03          	ld	s6,24(s1)
    8000483e:	0204b303          	ld	t1,32(s1)
    80004842:	02093883          	ld	a7,32(s2)
    80004846:	080b0863          	beqz	s6,800048d6 <k2c_conv1d+0xd2>
    8000484a:	03788fb3          	mul	t6,a7,s7
    8000484e:	01843283          	ld	t0,24(s0)
    80004852:	00231a93          	slli	s5,t1,0x2
    80004856:	8ed6                	mv	t4,s5
    80004858:	4e01                	li	t3,0
    8000485a:	4081                	li	ra,0
    8000485c:	034883b3          	mul	t2,a7,s4
    80004860:	4a01                	li	s4,0
    80004862:	8f52                	mv	t5,s4
    80004864:	4801                	li	a6,0
    80004866:	06028263          	beqz	t0,800048ca <k2c_conv1d+0xc6>
    8000486a:	04088c63          	beqz	a7,800048c2 <k2c_conv1d+0xbe>
    8000486e:	002f1513          	slli	a0,t5,0x2
    80004872:	4581                	li	a1,0
    80004874:	04030363          	beqz	t1,800048ba <k2c_conv1d+0xb6>
    80004878:	02043b83          	ld	s7,32(s0)
    8000487c:	02843c83          	ld	s9,40(s0)
    80004880:	6094                	ld	a3,0(s1)
    80004882:	03780bb3          	mul	s7,a6,s7
    80004886:	00093603          	ld	a2,0(s2)
    8000488a:	6018                	ld	a4,0(s0)
    8000488c:	01c687b3          	add	a5,a3,t3
    80004890:	962a                	add	a2,a2,a0
    80004892:	96f6                	add	a3,a3,t4
    80004894:	9bae                	add	s7,s7,a1
    80004896:	039b8bb3          	mul	s7,s7,s9
    8000489a:	0b8a                	slli	s7,s7,0x2
    8000489c:	975e                	add	a4,a4,s7
    8000489e:	00072787          	flw	fa5,0(a4)
    800048a2:	0007a707          	flw	fa4,0(a5)
    800048a6:	00062687          	flw	fa3,0(a2)
    800048aa:	0791                	addi	a5,a5,4
    800048ac:	0711                	addi	a4,a4,4
    800048ae:	70d7f7c3          	fmadd.s	fa5,fa5,fa3,fa4
    800048b2:	fef7ae27          	fsw	fa5,-4(a5)
    800048b6:	fef694e3          	bne	a3,a5,8000489e <k2c_conv1d+0x9a>
    800048ba:	0585                	addi	a1,a1,1
    800048bc:	0511                	addi	a0,a0,4
    800048be:	fab89be3          	bne	a7,a1,80004874 <k2c_conv1d+0x70>
    800048c2:	0805                	addi	a6,a6,1
    800048c4:	9f7e                	add	t5,t5,t6
    800048c6:	fa5812e3          	bne	a6,t0,8000486a <k2c_conv1d+0x66>
    800048ca:	0085                	addi	ra,ra,1
    800048cc:	9a1e                	add	s4,s4,t2
    800048ce:	9e56                	add	t3,t3,s5
    800048d0:	9ed6                	add	t4,t4,s5
    800048d2:	f81b18e3          	bne	s6,ra,80004862 <k2c_conv1d+0x5e>
    800048d6:	85ce                	mv	a1,s3
    800048d8:	8526                	mv	a0,s1
    800048da:	6e5000ef          	jal	ra,800057be <k2c_bias_add>
    800048de:	6446                	ld	s0,80(sp)
    800048e0:	688c                	ld	a1,16(s1)
    800048e2:	6088                	ld	a0,0(s1)
    800048e4:	60e6                	ld	ra,88(sp)
    800048e6:	64a6                	ld	s1,72(sp)
    800048e8:	6906                	ld	s2,64(sp)
    800048ea:	79e2                	ld	s3,56(sp)
    800048ec:	7a42                	ld	s4,48(sp)
    800048ee:	7aa2                	ld	s5,40(sp)
    800048f0:	7b02                	ld	s6,32(sp)
    800048f2:	6be2                	ld	s7,24(sp)
    800048f4:	6ca2                	ld	s9,8(sp)
    800048f6:	8362                	mv	t1,s8
    800048f8:	6c42                	ld	s8,16(sp)
    800048fa:	6125                	addi	sp,sp,96
    800048fc:	8302                	jr	t1

00000000800048fe <k2c_conv2d>:
    800048fe:	7175                	addi	sp,sp,-144
    80004900:	01053883          	ld	a7,16(a0)
    80004904:	f0d2                	sd	s4,96(sp)
    80004906:	8a2a                	mv	s4,a0
    80004908:	6108                	ld	a0,0(a0)
    8000490a:	e122                	sd	s0,128(sp)
    8000490c:	fca6                	sd	s1,120(sp)
    8000490e:	8432                	mv	s0,a2
    80004910:	84ae                	mv	s1,a1
    80004912:	00289613          	slli	a2,a7,0x2
    80004916:	4581                	li	a1,0
    80004918:	f8ca                	sd	s2,112(sp)
    8000491a:	f4ce                	sd	s3,104(sp)
    8000491c:	f86a                	sd	s10,48(sp)
    8000491e:	89be                	mv	s3,a5
    80004920:	e506                	sd	ra,136(sp)
    80004922:	ecd6                	sd	s5,88(sp)
    80004924:	e8da                	sd	s6,80(sp)
    80004926:	e4de                	sd	s7,72(sp)
    80004928:	e0e2                	sd	s8,64(sp)
    8000492a:	fc66                	sd	s9,56(sp)
    8000492c:	f46e                	sd	s11,40(sp)
    8000492e:	e836                	sd	a3,16(sp)
    80004930:	893a                	mv	s2,a4
    80004932:	ec42                	sd	a6,24(sp)
    80004934:	6ca020ef          	jal	ra,80006ffe <memset>
    80004938:	018a3783          	ld	a5,24(s4)
    8000493c:	020a3d03          	ld	s10,32(s4)
    80004940:	028a3303          	ld	t1,40(s4)
    80004944:	e03e                	sd	a5,0(sp)
    80004946:	7488                	ld	a0,40(s1)
    80004948:	c7e5                	beqz	a5,80004a30 <k2c_conv2d+0x132>
    8000494a:	026d0b33          	mul	s6,s10,t1
    8000494e:	00231c93          	slli	s9,t1,0x2
    80004952:	8c66                	mv	s8,s9
    80004954:	4b81                	li	s7,0
    80004956:	4e81                	li	t4,0
    80004958:	002b1793          	slli	a5,s6,0x2
    8000495c:	e43e                	sd	a5,8(sp)
    8000495e:	0c0d0263          	beqz	s10,80004a22 <k2c_conv2d+0x124>
    80004962:	01843d83          	ld	s11,24(s0)
    80004966:	002b9393          	slli	t2,s7,0x2
    8000496a:	82e2                	mv	t0,s8
    8000496c:	4f01                	li	t5,0
    8000496e:	0a0d8563          	beqz	s11,80004a18 <k2c_conv2d+0x11a>
    80004972:	02043083          	ld	ra,32(s0)
    80004976:	4a81                	li	s5,0
    80004978:	4f81                	li	t6,0
    8000497a:	4881                	li	a7,0
    8000497c:	08008a63          	beqz	ra,80004a10 <k2c_conv2d+0x112>
    80004980:	c549                	beqz	a0,80004a0a <k2c_conv2d+0x10c>
    80004982:	011a8e33          	add	t3,s5,a7
    80004986:	4581                	li	a1,0
    80004988:	06030e63          	beqz	t1,80004a04 <k2c_conv2d+0x106>
    8000498c:	00093683          	ld	a3,0(s2)
    80004990:	0009b703          	ld	a4,0(s3)
    80004994:	0089b803          	ld	a6,8(s3)
    80004998:	02de86b3          	mul	a3,t4,a3
    8000499c:	000a3603          	ld	a2,0(s4)
    800049a0:	007607b3          	add	a5,a2,t2
    800049a4:	9616                	add	a2,a2,t0
    800049a6:	02ef8733          	mul	a4,t6,a4
    800049aa:	96ba                	add	a3,a3,a4
    800049ac:	7098                	ld	a4,32(s1)
    800049ae:	03088833          	mul	a6,a7,a6
    800049b2:	02e68733          	mul	a4,a3,a4
    800049b6:	00893683          	ld	a3,8(s2)
    800049ba:	02df06b3          	mul	a3,t5,a3
    800049be:	96ba                	add	a3,a3,a4
    800049c0:	7418                	ld	a4,40(s0)
    800049c2:	96c2                	add	a3,a3,a6
    800049c4:	02a686b3          	mul	a3,a3,a0
    800049c8:	03043803          	ld	a6,48(s0)
    800049cc:	02ee0733          	mul	a4,t3,a4
    800049d0:	96ae                	add	a3,a3,a1
    800049d2:	068a                	slli	a3,a3,0x2
    800049d4:	972e                	add	a4,a4,a1
    800049d6:	03070733          	mul	a4,a4,a6
    800049da:	0004b803          	ld	a6,0(s1)
    800049de:	96c2                	add	a3,a3,a6
    800049e0:	00043803          	ld	a6,0(s0)
    800049e4:	070a                	slli	a4,a4,0x2
    800049e6:	9742                	add	a4,a4,a6
    800049e8:	00072787          	flw	fa5,0(a4)
    800049ec:	0007a707          	flw	fa4,0(a5)
    800049f0:	0006a687          	flw	fa3,0(a3)
    800049f4:	0791                	addi	a5,a5,4
    800049f6:	0711                	addi	a4,a4,4
    800049f8:	70d7f7c3          	fmadd.s	fa5,fa5,fa3,fa4
    800049fc:	fef7ae27          	fsw	fa5,-4(a5)
    80004a00:	fef614e3          	bne	a2,a5,800049e8 <k2c_conv2d+0xea>
    80004a04:	0585                	addi	a1,a1,1
    80004a06:	f8b511e3          	bne	a0,a1,80004988 <k2c_conv2d+0x8a>
    80004a0a:	0885                	addi	a7,a7,1
    80004a0c:	f6189ae3          	bne	a7,ra,80004980 <k2c_conv2d+0x82>
    80004a10:	0f85                	addi	t6,t6,1
    80004a12:	9a86                	add	s5,s5,ra
    80004a14:	f7bf93e3          	bne	t6,s11,8000497a <k2c_conv2d+0x7c>
    80004a18:	0f05                	addi	t5,t5,1
    80004a1a:	93e6                	add	t2,t2,s9
    80004a1c:	92e6                	add	t0,t0,s9
    80004a1e:	f5ed18e3          	bne	s10,t5,8000496e <k2c_conv2d+0x70>
    80004a22:	67a2                	ld	a5,8(sp)
    80004a24:	0e85                	addi	t4,t4,1
    80004a26:	9bda                	add	s7,s7,s6
    80004a28:	9c3e                	add	s8,s8,a5
    80004a2a:	6782                	ld	a5,0(sp)
    80004a2c:	f3d799e3          	bne	a5,t4,8000495e <k2c_conv2d+0x60>
    80004a30:	65c2                	ld	a1,16(sp)
    80004a32:	8552                	mv	a0,s4
    80004a34:	58b000ef          	jal	ra,800057be <k2c_bias_add>
    80004a38:	640a                	ld	s0,128(sp)
    80004a3a:	010a3583          	ld	a1,16(s4)
    80004a3e:	000a3503          	ld	a0,0(s4)
    80004a42:	6362                	ld	t1,24(sp)
    80004a44:	60aa                	ld	ra,136(sp)
    80004a46:	74e6                	ld	s1,120(sp)
    80004a48:	7946                	ld	s2,112(sp)
    80004a4a:	79a6                	ld	s3,104(sp)
    80004a4c:	7a06                	ld	s4,96(sp)
    80004a4e:	6ae6                	ld	s5,88(sp)
    80004a50:	6b46                	ld	s6,80(sp)
    80004a52:	6ba6                	ld	s7,72(sp)
    80004a54:	6c06                	ld	s8,64(sp)
    80004a56:	7ce2                	ld	s9,56(sp)
    80004a58:	7d42                	ld	s10,48(sp)
    80004a5a:	7da2                	ld	s11,40(sp)
    80004a5c:	6149                	addi	sp,sp,144
    80004a5e:	8302                	jr	t1

0000000080004a60 <k2c_conv3d>:
    80004a60:	7155                	addi	sp,sp,-208
    80004a62:	01053883          	ld	a7,16(a0)
    80004a66:	f152                	sd	s4,160(sp)
    80004a68:	8a2a                	mv	s4,a0
    80004a6a:	6108                	ld	a0,0(a0)
    80004a6c:	e1a2                	sd	s0,192(sp)
    80004a6e:	fd26                	sd	s1,184(sp)
    80004a70:	8432                	mv	s0,a2
    80004a72:	84ae                	mv	s1,a1
    80004a74:	00289613          	slli	a2,a7,0x2
    80004a78:	4581                	li	a1,0
    80004a7a:	f94a                	sd	s2,176(sp)
    80004a7c:	f54e                	sd	s3,168(sp)
    80004a7e:	e8b6                	sd	a3,80(sp)
    80004a80:	893a                	mv	s2,a4
    80004a82:	89be                	mv	s3,a5
    80004a84:	ecc2                	sd	a6,88(sp)
    80004a86:	e586                	sd	ra,200(sp)
    80004a88:	ed56                	sd	s5,152(sp)
    80004a8a:	e95a                	sd	s6,144(sp)
    80004a8c:	e55e                	sd	s7,136(sp)
    80004a8e:	e162                	sd	s8,128(sp)
    80004a90:	fce6                	sd	s9,120(sp)
    80004a92:	f8ea                	sd	s10,112(sp)
    80004a94:	f4ee                	sd	s11,104(sp)
    80004a96:	568020ef          	jal	ra,80006ffe <memset>
    80004a9a:	018a3783          	ld	a5,24(s4)
    80004a9e:	020a3703          	ld	a4,32(s4)
    80004aa2:	028a3683          	ld	a3,40(s4)
    80004aa6:	e4be                	sd	a5,72(sp)
    80004aa8:	f03a                	sd	a4,32(sp)
    80004aaa:	f436                	sd	a3,40(sp)
    80004aac:	030a3e03          	ld	t3,48(s4)
    80004ab0:	0304b803          	ld	a6,48(s1)
    80004ab4:	14078763          	beqz	a5,80004c02 <k2c_conv3d+0x1a2>
    80004ab8:	03c687b3          	mul	a5,a3,t3
    80004abc:	002e1693          	slli	a3,t3,0x2
    80004ac0:	ec36                	sd	a3,24(sp)
    80004ac2:	e802                	sd	zero,16(sp)
    80004ac4:	4281                	li	t0,0
    80004ac6:	fc3e                	sd	a5,56(sp)
    80004ac8:	02e787b3          	mul	a5,a5,a4
    80004acc:	e0be                	sd	a5,64(sp)
    80004ace:	7782                	ld	a5,32(sp)
    80004ad0:	6cc2                	ld	s9,16(sp)
    80004ad2:	4381                	li	t2,0
    80004ad4:	10078f63          	beqz	a5,80004bf2 <k2c_conv3d+0x192>
    80004ad8:	77a2                	ld	a5,40(sp)
    80004ada:	10078663          	beqz	a5,80004be6 <k2c_conv3d+0x186>
    80004ade:	6c1c                	ld	a5,24(s0)
    80004ae0:	002c9f13          	slli	t5,s9,0x2
    80004ae4:	e466                	sd	s9,8(sp)
    80004ae6:	f83e                	sd	a5,48(sp)
    80004ae8:	67e2                	ld	a5,24(sp)
    80004aea:	4081                	li	ra,0
    80004aec:	9f3e                	add	t5,t5,a5
    80004aee:	77c2                	ld	a5,48(sp)
    80004af0:	c3f5                	beqz	a5,80004bd4 <k2c_conv3d+0x174>
    80004af2:	67a2                	ld	a5,8(sp)
    80004af4:	02043d83          	ld	s11,32(s0)
    80004af8:	4d01                	li	s10,0
    80004afa:	00279b13          	slli	s6,a5,0x2
    80004afe:	4a81                	li	s5,0
    80004b00:	0c0d8563          	beqz	s11,80004bca <k2c_conv3d+0x16a>
    80004b04:	02843b83          	ld	s7,40(s0)
    80004b08:	4f81                	li	t6,0
    80004b0a:	0a0b8d63          	beqz	s7,80004bc4 <k2c_conv3d+0x164>
    80004b0e:	01fd0c33          	add	s8,s10,t6
    80004b12:	037c0c33          	mul	s8,s8,s7
    80004b16:	4301                	li	t1,0
    80004b18:	4581                	li	a1,0
    80004b1a:	006c0eb3          	add	t4,s8,t1
    80004b1e:	0a080063          	beqz	a6,80004bbe <k2c_conv3d+0x15e>
    80004b22:	080e0b63          	beqz	t3,80004bb8 <k2c_conv3d+0x158>
    80004b26:	00093703          	ld	a4,0(s2)
    80004b2a:	0009b683          	ld	a3,0(s3)
    80004b2e:	00893883          	ld	a7,8(s2)
    80004b32:	7c08                	ld	a0,56(s0)
    80004b34:	02da86b3          	mul	a3,s5,a3
    80004b38:	000a3603          	ld	a2,0(s4)
    80004b3c:	016607b3          	add	a5,a2,s6
    80004b40:	967a                	add	a2,a2,t5
    80004b42:	02e28733          	mul	a4,t0,a4
    80004b46:	9736                	add	a4,a4,a3
    80004b48:	7094                	ld	a3,32(s1)
    80004b4a:	031388b3          	mul	a7,t2,a7
    80004b4e:	02d70733          	mul	a4,a4,a3
    80004b52:	0089b683          	ld	a3,8(s3)
    80004b56:	02df86b3          	mul	a3,t6,a3
    80004b5a:	9746                	add	a4,a4,a7
    80004b5c:	0109b883          	ld	a7,16(s3)
    80004b60:	9736                	add	a4,a4,a3
    80004b62:	7494                	ld	a3,40(s1)
    80004b64:	031308b3          	mul	a7,t1,a7
    80004b68:	02d70733          	mul	a4,a4,a3
    80004b6c:	01093683          	ld	a3,16(s2)
    80004b70:	02d086b3          	mul	a3,ra,a3
    80004b74:	96ba                	add	a3,a3,a4
    80004b76:	7818                	ld	a4,48(s0)
    80004b78:	96c6                	add	a3,a3,a7
    80004b7a:	030686b3          	mul	a3,a3,a6
    80004b7e:	0004b883          	ld	a7,0(s1)
    80004b82:	02e50733          	mul	a4,a0,a4
    80004b86:	96ae                	add	a3,a3,a1
    80004b88:	068a                	slli	a3,a3,0x2
    80004b8a:	96c6                	add	a3,a3,a7
    80004b8c:	02b50533          	mul	a0,a0,a1
    80004b90:	03d70733          	mul	a4,a4,t4
    80004b94:	972a                	add	a4,a4,a0
    80004b96:	6008                	ld	a0,0(s0)
    80004b98:	070a                	slli	a4,a4,0x2
    80004b9a:	972a                	add	a4,a4,a0
    80004b9c:	00072787          	flw	fa5,0(a4)
    80004ba0:	0007a707          	flw	fa4,0(a5)
    80004ba4:	0006a687          	flw	fa3,0(a3)
    80004ba8:	0791                	addi	a5,a5,4
    80004baa:	0711                	addi	a4,a4,4
    80004bac:	70d7f7c3          	fmadd.s	fa5,fa5,fa3,fa4
    80004bb0:	fef7ae27          	fsw	fa5,-4(a5)
    80004bb4:	fef614e3          	bne	a2,a5,80004b9c <k2c_conv3d+0x13c>
    80004bb8:	0585                	addi	a1,a1,1
    80004bba:	f6b814e3          	bne	a6,a1,80004b22 <k2c_conv3d+0xc2>
    80004bbe:	0305                	addi	t1,t1,1
    80004bc0:	f5731ce3          	bne	t1,s7,80004b18 <k2c_conv3d+0xb8>
    80004bc4:	0f85                	addi	t6,t6,1
    80004bc6:	f5bf92e3          	bne	t6,s11,80004b0a <k2c_conv3d+0xaa>
    80004bca:	77c2                	ld	a5,48(sp)
    80004bcc:	0a85                	addi	s5,s5,1
    80004bce:	9d6e                	add	s10,s10,s11
    80004bd0:	f2fa98e3          	bne	s5,a5,80004b00 <k2c_conv3d+0xa0>
    80004bd4:	67a2                	ld	a5,8(sp)
    80004bd6:	0085                	addi	ra,ra,1
    80004bd8:	97f2                	add	a5,a5,t3
    80004bda:	e43e                	sd	a5,8(sp)
    80004bdc:	67e2                	ld	a5,24(sp)
    80004bde:	9f3e                	add	t5,t5,a5
    80004be0:	77a2                	ld	a5,40(sp)
    80004be2:	f01796e3          	bne	a5,ra,80004aee <k2c_conv3d+0x8e>
    80004be6:	77e2                	ld	a5,56(sp)
    80004be8:	0385                	addi	t2,t2,1
    80004bea:	9cbe                	add	s9,s9,a5
    80004bec:	7782                	ld	a5,32(sp)
    80004bee:	ee7795e3          	bne	a5,t2,80004ad8 <k2c_conv3d+0x78>
    80004bf2:	67c2                	ld	a5,16(sp)
    80004bf4:	6706                	ld	a4,64(sp)
    80004bf6:	0285                	addi	t0,t0,1
    80004bf8:	97ba                	add	a5,a5,a4
    80004bfa:	e83e                	sd	a5,16(sp)
    80004bfc:	67a6                	ld	a5,72(sp)
    80004bfe:	ec5798e3          	bne	a5,t0,80004ace <k2c_conv3d+0x6e>
    80004c02:	65c6                	ld	a1,80(sp)
    80004c04:	8552                	mv	a0,s4
    80004c06:	3b9000ef          	jal	ra,800057be <k2c_bias_add>
    80004c0a:	640e                	ld	s0,192(sp)
    80004c0c:	010a3583          	ld	a1,16(s4)
    80004c10:	000a3503          	ld	a0,0(s4)
    80004c14:	6366                	ld	t1,88(sp)
    80004c16:	60ae                	ld	ra,200(sp)
    80004c18:	74ea                	ld	s1,184(sp)
    80004c1a:	794a                	ld	s2,176(sp)
    80004c1c:	79aa                	ld	s3,168(sp)
    80004c1e:	7a0a                	ld	s4,160(sp)
    80004c20:	6aea                	ld	s5,152(sp)
    80004c22:	6b4a                	ld	s6,144(sp)
    80004c24:	6baa                	ld	s7,136(sp)
    80004c26:	6c0a                	ld	s8,128(sp)
    80004c28:	7ce6                	ld	s9,120(sp)
    80004c2a:	7d46                	ld	s10,112(sp)
    80004c2c:	7da6                	ld	s11,104(sp)
    80004c2e:	6169                	addi	sp,sp,208
    80004c30:	8302                	jr	t1

0000000080004c32 <k2c_crop1d>:
    80004c32:	621c                	ld	a5,0(a2)
    80004c34:	7198                	ld	a4,32(a1)
    80004c36:	6910                	ld	a2,16(a0)
    80004c38:	618c                	ld	a1,0(a1)
    80004c3a:	02e787b3          	mul	a5,a5,a4
    80004c3e:	6108                	ld	a0,0(a0)
    80004c40:	060a                	slli	a2,a2,0x2
    80004c42:	078a                	slli	a5,a5,0x2
    80004c44:	95be                	add	a1,a1,a5
    80004c46:	3780206f          	j	80006fbe <memcpy>

0000000080004c4a <k2c_crop2d>:
    80004c4a:	715d                	addi	sp,sp,-80
    80004c4c:	7198                	ld	a4,32(a1)
    80004c4e:	fc26                	sd	s1,56(sp)
    80004c50:	7584                	ld	s1,40(a1)
    80004c52:	e45e                	sd	s7,8(sp)
    80004c54:	621c                	ld	a5,0(a2)
    80004c56:	02970bb3          	mul	s7,a4,s1
    80004c5a:	e0a2                	sd	s0,64(sp)
    80004c5c:	6a00                	ld	s0,16(a2)
    80004c5e:	6e10                	ld	a2,24(a2)
    80004c60:	f052                	sd	s4,32(sp)
    80004c62:	8f01                	sub	a4,a4,s0
    80004c64:	01853a03          	ld	s4,24(a0)
    80004c68:	8f11                	sub	a4,a4,a2
    80004c6a:	e486                	sd	ra,72(sp)
    80004c6c:	f84a                	sd	s2,48(sp)
    80004c6e:	02fb87b3          	mul	a5,s7,a5
    80004c72:	f44e                	sd	s3,40(sp)
    80004c74:	ec56                	sd	s5,24(sp)
    80004c76:	e85a                	sd	s6,16(sp)
    80004c78:	02848433          	mul	s0,s1,s0
    80004c7c:	02970733          	mul	a4,a4,s1
    80004c80:	97a2                	add	a5,a5,s0
    80004c82:	020a0963          	beqz	s4,80004cb4 <k2c_crop2d+0x6a>
    80004c86:	8aae                	mv	s5,a1
    80004c88:	8b2a                	mv	s6,a0
    80004c8a:	00271493          	slli	s1,a4,0x2
    80004c8e:	0b8a                	slli	s7,s7,0x2
    80004c90:	00279413          	slli	s0,a5,0x2
    80004c94:	4981                	li	s3,0
    80004c96:	4901                	li	s2,0
    80004c98:	000b3503          	ld	a0,0(s6)
    80004c9c:	000ab583          	ld	a1,0(s5)
    80004ca0:	8626                	mv	a2,s1
    80004ca2:	954e                	add	a0,a0,s3
    80004ca4:	95a2                	add	a1,a1,s0
    80004ca6:	0905                	addi	s2,s2,1
    80004ca8:	316020ef          	jal	ra,80006fbe <memcpy>
    80004cac:	99a6                	add	s3,s3,s1
    80004cae:	945e                	add	s0,s0,s7
    80004cb0:	ff2a14e3          	bne	s4,s2,80004c98 <k2c_crop2d+0x4e>
    80004cb4:	60a6                	ld	ra,72(sp)
    80004cb6:	6406                	ld	s0,64(sp)
    80004cb8:	74e2                	ld	s1,56(sp)
    80004cba:	7942                	ld	s2,48(sp)
    80004cbc:	79a2                	ld	s3,40(sp)
    80004cbe:	7a02                	ld	s4,32(sp)
    80004cc0:	6ae2                	ld	s5,24(sp)
    80004cc2:	6b42                	ld	s6,16(sp)
    80004cc4:	6ba2                	ld	s7,8(sp)
    80004cc6:	6161                	addi	sp,sp,80
    80004cc8:	8082                	ret

0000000080004cca <k2c_crop3d>:
    80004cca:	7594                	ld	a3,40(a1)
    80004ccc:	719c                	ld	a5,32(a1)
    80004cce:	7119                	addi	sp,sp,-128
    80004cd0:	0305be03          	ld	t3,48(a1)
    80004cd4:	f862                	sd	s8,48(sp)
    80004cd6:	f06a                	sd	s10,32(sp)
    80004cd8:	02d78c33          	mul	s8,a5,a3
    80004cdc:	8d2e                	mv	s10,a1
    80004cde:	6a0c                	ld	a1,16(a2)
    80004ce0:	02063303          	ld	t1,32(a2)
    80004ce4:	01863803          	ld	a6,24(a2)
    80004ce8:	02863e83          	ld	t4,40(a2)
    80004cec:	e8d2                	sd	s4,80(sp)
    80004cee:	40b78a33          	sub	s4,a5,a1
    80004cf2:	00063883          	ld	a7,0(a2)
    80004cf6:	406687b3          	sub	a5,a3,t1
    80004cfa:	410a0a33          	sub	s4,s4,a6
    80004cfe:	018d3803          	ld	a6,24(s10)
    80004d02:	41d787b3          	sub	a5,a5,t4
    80004d06:	00863e83          	ld	t4,8(a2)
    80004d0a:	41180633          	sub	a2,a6,a7
    80004d0e:	e4d6                	sd	s5,72(sp)
    80004d10:	41d60733          	sub	a4,a2,t4
    80004d14:	03c68ab3          	mul	s5,a3,t3
    80004d18:	e03a                	sd	a4,0(sp)
    80004d1a:	e0da                	sd	s6,64(sp)
    80004d1c:	fc86                	sd	ra,120(sp)
    80004d1e:	f8a2                	sd	s0,112(sp)
    80004d20:	f4a6                	sd	s1,104(sp)
    80004d22:	f0ca                	sd	s2,96(sp)
    80004d24:	ecce                	sd	s3,88(sp)
    80004d26:	fc5e                	sd	s7,56(sp)
    80004d28:	f466                	sd	s9,40(sp)
    80004d2a:	02fa0733          	mul	a4,s4,a5
    80004d2e:	ec6e                	sd	s11,24(sp)
    80004d30:	03cc0c33          	mul	s8,s8,t3
    80004d34:	03558b33          	mul	s6,a1,s5
    80004d38:	03c30333          	mul	t1,t1,t3
    80004d3c:	03c70733          	mul	a4,a4,t3
    80004d40:	9b1a                	add	s6,s6,t1
    80004d42:	038888b3          	mul	a7,a7,s8
    80004d46:	e43a                	sd	a4,8(sp)
    80004d48:	03c787b3          	mul	a5,a5,t3
    80004d4c:	9b46                	add	s6,s6,a7
    80004d4e:	05d60463          	beq	a2,t4,80004d96 <k2c_crop3d+0xcc>
    80004d52:	8caa                	mv	s9,a0
    80004d54:	00279993          	slli	s3,a5,0x2
    80004d58:	0a8a                	slli	s5,s5,0x2
    80004d5a:	4d81                	li	s11,0
    80004d5c:	4b81                	li	s7,0
    80004d5e:	002d9913          	slli	s2,s11,0x2
    80004d62:	002b1493          	slli	s1,s6,0x2
    80004d66:	4401                	li	s0,0
    80004d68:	020a0063          	beqz	s4,80004d88 <k2c_crop3d+0xbe>
    80004d6c:	000cb503          	ld	a0,0(s9)
    80004d70:	000d3583          	ld	a1,0(s10)
    80004d74:	864e                	mv	a2,s3
    80004d76:	954a                	add	a0,a0,s2
    80004d78:	95a6                	add	a1,a1,s1
    80004d7a:	0405                	addi	s0,s0,1
    80004d7c:	242020ef          	jal	ra,80006fbe <memcpy>
    80004d80:	994e                	add	s2,s2,s3
    80004d82:	94d6                	add	s1,s1,s5
    80004d84:	fe8a14e3          	bne	s4,s0,80004d6c <k2c_crop3d+0xa2>
    80004d88:	67a2                	ld	a5,8(sp)
    80004d8a:	0b85                	addi	s7,s7,1
    80004d8c:	9b62                	add	s6,s6,s8
    80004d8e:	9dbe                	add	s11,s11,a5
    80004d90:	6782                	ld	a5,0(sp)
    80004d92:	fd7796e3          	bne	a5,s7,80004d5e <k2c_crop3d+0x94>
    80004d96:	70e6                	ld	ra,120(sp)
    80004d98:	7446                	ld	s0,112(sp)
    80004d9a:	74a6                	ld	s1,104(sp)
    80004d9c:	7906                	ld	s2,96(sp)
    80004d9e:	69e6                	ld	s3,88(sp)
    80004da0:	6a46                	ld	s4,80(sp)
    80004da2:	6aa6                	ld	s5,72(sp)
    80004da4:	6b06                	ld	s6,64(sp)
    80004da6:	7be2                	ld	s7,56(sp)
    80004da8:	7c42                	ld	s8,48(sp)
    80004daa:	7ca2                	ld	s9,40(sp)
    80004dac:	7d02                	ld	s10,32(sp)
    80004dae:	6de2                	ld	s11,24(sp)
    80004db0:	6109                	addi	sp,sp,128
    80004db2:	8082                	ret

0000000080004db4 <k2c_upsampling1d>:
    80004db4:	1141                	addi	sp,sp,-16
    80004db6:	e422                	sd	s0,8(sp)
    80004db8:	6d80                	ld	s0,24(a1)
    80004dba:	e026                	sd	s1,0(sp)
    80004dbc:	0205b803          	ld	a6,32(a1)
    80004dc0:	cc39                	beqz	s0,80004e1e <k2c_upsampling1d+0x6a>
    80004dc2:	02c804b3          	mul	s1,a6,a2
    80004dc6:	00281393          	slli	t2,a6,0x2
    80004dca:	8eae                	mv	t4,a1
    80004dcc:	8f2a                	mv	t5,a0
    80004dce:	88b2                	mv	a7,a2
    80004dd0:	8e1e                	mv	t3,t2
    80004dd2:	4301                	li	t1,0
    80004dd4:	4281                	li	t0,0
    80004dd6:	4f81                	li	t6,0
    80004dd8:	8516                	mv	a0,t0
    80004dda:	4581                	li	a1,0
    80004ddc:	02088b63          	beqz	a7,80004e12 <k2c_upsampling1d+0x5e>
    80004de0:	02080563          	beqz	a6,80004e0a <k2c_upsampling1d+0x56>
    80004de4:	000eb603          	ld	a2,0(t4)
    80004de8:	000f3683          	ld	a3,0(t5)
    80004dec:	00251713          	slli	a4,a0,0x2
    80004df0:	006607b3          	add	a5,a2,t1
    80004df4:	9736                	add	a4,a4,a3
    80004df6:	01c606b3          	add	a3,a2,t3
    80004dfa:	0007a787          	flw	fa5,0(a5)
    80004dfe:	0791                	addi	a5,a5,4
    80004e00:	0711                	addi	a4,a4,4
    80004e02:	fef72e27          	fsw	fa5,-4(a4)
    80004e06:	fef69ae3          	bne	a3,a5,80004dfa <k2c_upsampling1d+0x46>
    80004e0a:	0585                	addi	a1,a1,1
    80004e0c:	9542                	add	a0,a0,a6
    80004e0e:	fcb899e3          	bne	a7,a1,80004de0 <k2c_upsampling1d+0x2c>
    80004e12:	0f85                	addi	t6,t6,1
    80004e14:	92a6                	add	t0,t0,s1
    80004e16:	931e                	add	t1,t1,t2
    80004e18:	9e1e                	add	t3,t3,t2
    80004e1a:	fbf41fe3          	bne	s0,t6,80004dd8 <k2c_upsampling1d+0x24>
    80004e1e:	6422                	ld	s0,8(sp)
    80004e20:	6482                	ld	s1,0(sp)
    80004e22:	0141                	addi	sp,sp,16
    80004e24:	8082                	ret

0000000080004e26 <k2c_upsampling2d>:
    80004e26:	7131                	addi	sp,sp,-192
    80004e28:	fcde                	sd	s7,120(sp)
    80004e2a:	01853b83          	ld	s7,24(a0)
    80004e2e:	ed4e                	sd	s3,152(sp)
    80004e30:	e952                	sd	s4,144(sp)
    80004e32:	fd06                	sd	ra,184(sp)
    80004e34:	f922                	sd	s0,176(sp)
    80004e36:	f526                	sd	s1,168(sp)
    80004e38:	f14a                	sd	s2,160(sp)
    80004e3a:	e556                	sd	s5,136(sp)
    80004e3c:	e15a                	sd	s6,128(sp)
    80004e3e:	f8e2                	sd	s8,112(sp)
    80004e40:	f4e6                	sd	s9,104(sp)
    80004e42:	f0ea                	sd	s10,96(sp)
    80004e44:	ecee                	sd	s11,88(sp)
    80004e46:	02053983          	ld	s3,32(a0)
    80004e4a:	0285ba03          	ld	s4,40(a1)
    80004e4e:	080b8063          	beqz	s7,80004ece <k2c_upsampling2d+0xa8>
    80004e52:	8caa                	mv	s9,a0
    80004e54:	892e                	mv	s2,a1
    80004e56:	8d32                	mv	s10,a2
    80004e58:	0a0a                	slli	s4,s4,0x2
    80004e5a:	4c01                	li	s8,0
    80004e5c:	01850b13          	addi	s6,a0,24
    80004e60:	01858a93          	addi	s5,a1,24
    80004e64:	4401                	li	s0,0
    80004e66:	06098163          	beqz	s3,80004ec8 <k2c_upsampling2d+0xa2>
    80004e6a:	000d3703          	ld	a4,0(s10)
    80004e6e:	008d3783          	ld	a5,8(s10)
    80004e72:	008cb603          	ld	a2,8(s9)
    80004e76:	02ec5733          	divu	a4,s8,a4
    80004e7a:	85da                	mv	a1,s6
    80004e7c:	1028                	addi	a0,sp,40
    80004e7e:	000cb483          	ld	s1,0(s9)
    80004e82:	f822                	sd	s0,48(sp)
    80004e84:	e802                	sd	zero,16(sp)
    80004e86:	ec02                	sd	zero,24(sp)
    80004e88:	f002                	sd	zero,32(sp)
    80004e8a:	fc02                	sd	zero,56(sp)
    80004e8c:	e082                	sd	zero,64(sp)
    80004e8e:	e482                	sd	zero,72(sp)
    80004e90:	f462                	sd	s8,40(sp)
    80004e92:	02f457b3          	divu	a5,s0,a5
    80004e96:	e03a                	sd	a4,0(sp)
    80004e98:	0405                	addi	s0,s0,1
    80004e9a:	e43e                	sd	a5,8(sp)
    80004e9c:	492000ef          	jal	ra,8000532e <k2c_sub2idx>
    80004ea0:	00893603          	ld	a2,8(s2)
    80004ea4:	00251793          	slli	a5,a0,0x2
    80004ea8:	00093d83          	ld	s11,0(s2)
    80004eac:	85d6                	mv	a1,s5
    80004eae:	850a                	mv	a0,sp
    80004eb0:	94be                	add	s1,s1,a5
    80004eb2:	47c000ef          	jal	ra,8000532e <k2c_sub2idx>
    80004eb6:	00251593          	slli	a1,a0,0x2
    80004eba:	8652                	mv	a2,s4
    80004ebc:	95ee                	add	a1,a1,s11
    80004ebe:	8526                	mv	a0,s1
    80004ec0:	0fe020ef          	jal	ra,80006fbe <memcpy>
    80004ec4:	fa8993e3          	bne	s3,s0,80004e6a <k2c_upsampling2d+0x44>
    80004ec8:	0c05                	addi	s8,s8,1
    80004eca:	f98b9de3          	bne	s7,s8,80004e64 <k2c_upsampling2d+0x3e>
    80004ece:	70ea                	ld	ra,184(sp)
    80004ed0:	744a                	ld	s0,176(sp)
    80004ed2:	74aa                	ld	s1,168(sp)
    80004ed4:	790a                	ld	s2,160(sp)
    80004ed6:	69ea                	ld	s3,152(sp)
    80004ed8:	6a4a                	ld	s4,144(sp)
    80004eda:	6aaa                	ld	s5,136(sp)
    80004edc:	6b0a                	ld	s6,128(sp)
    80004ede:	7be6                	ld	s7,120(sp)
    80004ee0:	7c46                	ld	s8,112(sp)
    80004ee2:	7ca6                	ld	s9,104(sp)
    80004ee4:	7d06                	ld	s10,96(sp)
    80004ee6:	6de6                	ld	s11,88(sp)
    80004ee8:	6129                	addi	sp,sp,192
    80004eea:	8082                	ret

0000000080004eec <k2c_upsampling3d>:
    80004eec:	6d1c                	ld	a5,24(a0)
    80004eee:	7118                	ld	a4,32(a0)
    80004ef0:	7155                	addi	sp,sp,-208
    80004ef2:	f54e                	sd	s3,168(sp)
    80004ef4:	f152                	sd	s4,160(sp)
    80004ef6:	e586                	sd	ra,200(sp)
    80004ef8:	e1a2                	sd	s0,192(sp)
    80004efa:	fd26                	sd	s1,184(sp)
    80004efc:	f94a                	sd	s2,176(sp)
    80004efe:	ed56                	sd	s5,152(sp)
    80004f00:	e95a                	sd	s6,144(sp)
    80004f02:	e55e                	sd	s7,136(sp)
    80004f04:	e162                	sd	s8,128(sp)
    80004f06:	fce6                	sd	s9,120(sp)
    80004f08:	f8ea                	sd	s10,112(sp)
    80004f0a:	f4ee                	sd	s11,104(sp)
    80004f0c:	e43e                	sd	a5,8(sp)
    80004f0e:	e03a                	sd	a4,0(sp)
    80004f10:	02853983          	ld	s3,40(a0)
    80004f14:	0305ba03          	ld	s4,48(a1)
    80004f18:	cbd9                	beqz	a5,80004fae <k2c_upsampling3d+0xc2>
    80004f1a:	8c2a                	mv	s8,a0
    80004f1c:	892e                	mv	s2,a1
    80004f1e:	8cb2                	mv	s9,a2
    80004f20:	0a0a                	slli	s4,s4,0x2
    80004f22:	4d81                	li	s11,0
    80004f24:	01850b13          	addi	s6,a0,24
    80004f28:	01858a93          	addi	s5,a1,24
    80004f2c:	6782                	ld	a5,0(sp)
    80004f2e:	4d01                	li	s10,0
    80004f30:	cbbd                	beqz	a5,80004fa6 <k2c_upsampling3d+0xba>
    80004f32:	4401                	li	s0,0
    80004f34:	06098563          	beqz	s3,80004f9e <k2c_upsampling3d+0xb2>
    80004f38:	000cb683          	ld	a3,0(s9)
    80004f3c:	008cb783          	ld	a5,8(s9)
    80004f40:	010cb703          	ld	a4,16(s9)
    80004f44:	02ddd6b3          	divu	a3,s11,a3
    80004f48:	008c3603          	ld	a2,8(s8)
    80004f4c:	85da                	mv	a1,s6
    80004f4e:	1828                	addi	a0,sp,56
    80004f50:	000c3483          	ld	s1,0(s8)
    80004f54:	e4a2                	sd	s0,72(sp)
    80004f56:	f402                	sd	zero,40(sp)
    80004f58:	f802                	sd	zero,48(sp)
    80004f5a:	e882                	sd	zero,80(sp)
    80004f5c:	ec82                	sd	zero,88(sp)
    80004f5e:	fc6e                	sd	s11,56(sp)
    80004f60:	e0ea                	sd	s10,64(sp)
    80004f62:	02e45733          	divu	a4,s0,a4
    80004f66:	e836                	sd	a3,16(sp)
    80004f68:	0405                	addi	s0,s0,1
    80004f6a:	02fd57b3          	divu	a5,s10,a5
    80004f6e:	f03a                	sd	a4,32(sp)
    80004f70:	ec3e                	sd	a5,24(sp)
    80004f72:	3bc000ef          	jal	ra,8000532e <k2c_sub2idx>
    80004f76:	00893603          	ld	a2,8(s2)
    80004f7a:	00251793          	slli	a5,a0,0x2
    80004f7e:	00093b83          	ld	s7,0(s2)
    80004f82:	85d6                	mv	a1,s5
    80004f84:	0808                	addi	a0,sp,16
    80004f86:	94be                	add	s1,s1,a5
    80004f88:	3a6000ef          	jal	ra,8000532e <k2c_sub2idx>
    80004f8c:	00251593          	slli	a1,a0,0x2
    80004f90:	8652                	mv	a2,s4
    80004f92:	95de                	add	a1,a1,s7
    80004f94:	8526                	mv	a0,s1
    80004f96:	028020ef          	jal	ra,80006fbe <memcpy>
    80004f9a:	f8899fe3          	bne	s3,s0,80004f38 <k2c_upsampling3d+0x4c>
    80004f9e:	6782                	ld	a5,0(sp)
    80004fa0:	0d05                	addi	s10,s10,1
    80004fa2:	f9a798e3          	bne	a5,s10,80004f32 <k2c_upsampling3d+0x46>
    80004fa6:	67a2                	ld	a5,8(sp)
    80004fa8:	0d85                	addi	s11,s11,1
    80004faa:	f9b791e3          	bne	a5,s11,80004f2c <k2c_upsampling3d+0x40>
    80004fae:	60ae                	ld	ra,200(sp)
    80004fb0:	640e                	ld	s0,192(sp)
    80004fb2:	74ea                	ld	s1,184(sp)
    80004fb4:	794a                	ld	s2,176(sp)
    80004fb6:	79aa                	ld	s3,168(sp)
    80004fb8:	7a0a                	ld	s4,160(sp)
    80004fba:	6aea                	ld	s5,152(sp)
    80004fbc:	6b4a                	ld	s6,144(sp)
    80004fbe:	6baa                	ld	s7,136(sp)
    80004fc0:	6c0a                	ld	s8,128(sp)
    80004fc2:	7ce6                	ld	s9,120(sp)
    80004fc4:	7d46                	ld	s10,112(sp)
    80004fc6:	7da6                	ld	s11,104(sp)
    80004fc8:	6169                	addi	sp,sp,208
    80004fca:	8082                	ret

0000000080004fcc <k2c_dense>:
    80004fcc:	0085b803          	ld	a6,8(a1)
    80004fd0:	7139                	addi	sp,sp,-64
    80004fd2:	f822                	sd	s0,48(sp)
    80004fd4:	f426                	sd	s1,40(sp)
    80004fd6:	f04a                	sd	s2,32(sp)
    80004fd8:	fc06                	sd	ra,56(sp)
    80004fda:	ec4e                	sd	s3,24(sp)
    80004fdc:	4889                	li	a7,2
    80004fde:	842a                	mv	s0,a0
    80004fe0:	8936                	mv	s2,a3
    80004fe2:	84ba                	mv	s1,a4
    80004fe4:	0508e263          	bltu	a7,a6,80005028 <k2c_dense+0x5c>
    80004fe8:	8e2e                	mv	t3,a1
    80004fea:	8332                	mv	t1,a2
    80004fec:	4705                	li	a4,1
    80004fee:	03180b63          	beq	a6,a7,80005024 <k2c_dense+0x58>
    80004ff2:	02033783          	ld	a5,32(t1)
    80004ff6:	6008                	ld	a0,0(s0)
    80004ff8:	00093683          	ld	a3,0(s2)
    80004ffc:	02f709b3          	mul	s3,a4,a5
    80005000:	000e3583          	ld	a1,0(t3)
    80005004:	01833803          	ld	a6,24(t1)
    80005008:	00033603          	ld	a2,0(t1)
    8000500c:	296000ef          	jal	ra,800052a2 <k2c_affine_matmul>
    80005010:	6008                	ld	a0,0(s0)
    80005012:	85ce                	mv	a1,s3
    80005014:	9482                	jalr	s1
    80005016:	70e2                	ld	ra,56(sp)
    80005018:	7442                	ld	s0,48(sp)
    8000501a:	74a2                	ld	s1,40(sp)
    8000501c:	7902                	ld	s2,32(sp)
    8000501e:	69e2                	ld	s3,24(sp)
    80005020:	6121                	addi	sp,sp,64
    80005022:	8082                	ret
    80005024:	6d98                	ld	a4,24(a1)
    80005026:	b7f1                	j	80004ff2 <k2c_dense+0x26>
    80005028:	fff80313          	addi	t1,a6,-1
    8000502c:	88be                	mv	a7,a5
    8000502e:	0038                	addi	a4,sp,8
    80005030:	868a                	mv	a3,sp
    80005032:	4801                	li	a6,0
    80005034:	4785                	li	a5,1
    80005036:	e01a                	sd	t1,0(sp)
    80005038:	e402                	sd	zero,8(sp)
    8000503a:	358000ef          	jal	ra,80005392 <k2c_dot>
    8000503e:	85ca                	mv	a1,s2
    80005040:	8522                	mv	a0,s0
    80005042:	77c000ef          	jal	ra,800057be <k2c_bias_add>
    80005046:	680c                	ld	a1,16(s0)
    80005048:	6008                	ld	a0,0(s0)
    8000504a:	9482                	jalr	s1
    8000504c:	70e2                	ld	ra,56(sp)
    8000504e:	7442                	ld	s0,48(sp)
    80005050:	74a2                	ld	s1,40(sp)
    80005052:	7902                	ld	s2,32(sp)
    80005054:	69e2                	ld	s3,24(sp)
    80005056:	6121                	addi	sp,sp,64
    80005058:	8082                	ret

000000008000505a <k2c_flatten>:
    8000505a:	1101                	addi	sp,sp,-32
    8000505c:	6990                	ld	a2,16(a1)
    8000505e:	e822                	sd	s0,16(sp)
    80005060:	e426                	sd	s1,8(sp)
    80005062:	842a                	mv	s0,a0
    80005064:	84ae                	mv	s1,a1
    80005066:	6108                	ld	a0,0(a0)
    80005068:	618c                	ld	a1,0(a1)
    8000506a:	060a                	slli	a2,a2,0x2
    8000506c:	ec06                	sd	ra,24(sp)
    8000506e:	751010ef          	jal	ra,80006fbe <memcpy>
    80005072:	6494                	ld	a3,8(s1)
    80005074:	ca91                	beqz	a3,80005088 <k2c_flatten+0x2e>
    80005076:	01840713          	addi	a4,s0,24
    8000507a:	4781                	li	a5,0
    8000507c:	4605                	li	a2,1
    8000507e:	e310                	sd	a2,0(a4)
    80005080:	0785                	addi	a5,a5,1
    80005082:	0721                	addi	a4,a4,8
    80005084:	fed79de3          	bne	a5,a3,8000507e <k2c_flatten+0x24>
    80005088:	689c                	ld	a5,16(s1)
    8000508a:	4705                	li	a4,1
    8000508c:	60e2                	ld	ra,24(sp)
    8000508e:	e418                	sd	a4,8(s0)
    80005090:	ec1c                	sd	a5,24(s0)
    80005092:	e81c                	sd	a5,16(s0)
    80005094:	6442                	ld	s0,16(sp)
    80005096:	64a2                	ld	s1,8(sp)
    80005098:	6105                	addi	sp,sp,32
    8000509a:	8082                	ret

000000008000509c <k2c_reshape>:
    8000509c:	7179                	addi	sp,sp,-48
    8000509e:	6998                	ld	a4,16(a1)
    800050a0:	ec26                	sd	s1,24(sp)
    800050a2:	e84a                	sd	s2,16(sp)
    800050a4:	84aa                	mv	s1,a0
    800050a6:	892e                	mv	s2,a1
    800050a8:	6108                	ld	a0,0(a0)
    800050aa:	618c                	ld	a1,0(a1)
    800050ac:	f022                	sd	s0,32(sp)
    800050ae:	e44e                	sd	s3,8(sp)
    800050b0:	8432                	mv	s0,a2
    800050b2:	89b6                	mv	s3,a3
    800050b4:	00271613          	slli	a2,a4,0x2
    800050b8:	f406                	sd	ra,40(sp)
    800050ba:	705010ef          	jal	ra,80006fbe <memcpy>
    800050be:	00098f63          	beqz	s3,800050dc <k2c_reshape+0x40>
    800050c2:	00399813          	slli	a6,s3,0x3
    800050c6:	8622                	mv	a2,s0
    800050c8:	01848793          	addi	a5,s1,24
    800050cc:	9822                	add	a6,a6,s0
    800050ce:	6218                	ld	a4,0(a2)
    800050d0:	0621                	addi	a2,a2,8
    800050d2:	07a1                	addi	a5,a5,8
    800050d4:	fee7bc23          	sd	a4,-8(a5)
    800050d8:	ff061be3          	bne	a2,a6,800050ce <k2c_reshape+0x32>
    800050dc:	01093783          	ld	a5,16(s2)
    800050e0:	70a2                	ld	ra,40(sp)
    800050e2:	7402                	ld	s0,32(sp)
    800050e4:	0134b423          	sd	s3,8(s1)
    800050e8:	e89c                	sd	a5,16(s1)
    800050ea:	6942                	ld	s2,16(sp)
    800050ec:	64e2                	ld	s1,24(sp)
    800050ee:	69a2                	ld	s3,8(sp)
    800050f0:	6145                	addi	sp,sp,48
    800050f2:	8082                	ret

00000000800050f4 <k2c_permute_dims>:
    800050f4:	7115                	addi	sp,sp,-224
    800050f6:	f556                	sd	s5,168(sp)
    800050f8:	0085ba83          	ld	s5,8(a1)
    800050fc:	e1ca                	sd	s2,192(sp)
    800050fe:	fd4e                	sd	s3,184(sp)
    80005100:	f952                	sd	s4,176(sp)
    80005102:	ed86                	sd	ra,216(sp)
    80005104:	e9a2                	sd	s0,208(sp)
    80005106:	e5a6                	sd	s1,200(sp)
    80005108:	892e                	mv	s2,a1
    8000510a:	8a2a                	mv	s4,a0
    8000510c:	89b2                	mv	s3,a2
    8000510e:	020a8d63          	beqz	s5,80005148 <k2c_permute_dims+0x54>
    80005112:	003a9613          	slli	a2,s5,0x3
    80005116:	87ae                	mv	a5,a1
    80005118:	18b8                	addi	a4,sp,120
    8000511a:	95b2                	add	a1,a1,a2
    8000511c:	6f94                	ld	a3,24(a5)
    8000511e:	07a1                	addi	a5,a5,8
    80005120:	0721                	addi	a4,a4,8
    80005122:	fed73c23          	sd	a3,-8(a4)
    80005126:	feb79be3          	bne	a5,a1,8000511c <k2c_permute_dims+0x28>
    8000512a:	874e                	mv	a4,s3
    8000512c:	0894                	addi	a3,sp,80
    8000512e:	964e                	add	a2,a2,s3
    80005130:	631c                	ld	a5,0(a4)
    80005132:	110c                	addi	a1,sp,160
    80005134:	06a1                	addi	a3,a3,8
    80005136:	078e                	slli	a5,a5,0x3
    80005138:	97ae                	add	a5,a5,a1
    8000513a:	fd87b783          	ld	a5,-40(a5)
    8000513e:	0721                	addi	a4,a4,8
    80005140:	fef6bc23          	sd	a5,-8(a3)
    80005144:	fec716e3          	bne	a4,a2,80005130 <k2c_permute_dims+0x3c>
    80005148:	01093783          	ld	a5,16(s2)
    8000514c:	c3bd                	beqz	a5,800051b2 <k2c_permute_dims+0xbe>
    8000514e:	003a9413          	slli	s0,s5,0x3
    80005152:	944e                	add	s0,s0,s3
    80005154:	4481                	li	s1,0
    80005156:	86d6                	mv	a3,s5
    80005158:	18b0                	addi	a2,sp,120
    8000515a:	858a                	mv	a1,sp
    8000515c:	8526                	mv	a0,s1
    8000515e:	20a000ef          	jal	ra,80005368 <k2c_idx2sub>
    80005162:	020a8163          	beqz	s5,80005184 <k2c_permute_dims+0x90>
    80005166:	02810813          	addi	a6,sp,40
    8000516a:	874e                	mv	a4,s3
    8000516c:	631c                	ld	a5,0(a4)
    8000516e:	1114                	addi	a3,sp,160
    80005170:	0821                	addi	a6,a6,8
    80005172:	078e                	slli	a5,a5,0x3
    80005174:	97b6                	add	a5,a5,a3
    80005176:	f607b783          	ld	a5,-160(a5)
    8000517a:	0721                	addi	a4,a4,8
    8000517c:	fef83c23          	sd	a5,-8(a6)
    80005180:	fee416e3          	bne	s0,a4,8000516c <k2c_permute_dims+0x78>
    80005184:	8656                	mv	a2,s5
    80005186:	088c                	addi	a1,sp,80
    80005188:	1028                	addi	a0,sp,40
    8000518a:	1a4000ef          	jal	ra,8000532e <k2c_sub2idx>
    8000518e:	00093703          	ld	a4,0(s2)
    80005192:	00249693          	slli	a3,s1,0x2
    80005196:	000a3783          	ld	a5,0(s4)
    8000519a:	9736                	add	a4,a4,a3
    8000519c:	00072787          	flw	fa5,0(a4)
    800051a0:	050a                	slli	a0,a0,0x2
    800051a2:	01093703          	ld	a4,16(s2)
    800051a6:	97aa                	add	a5,a5,a0
    800051a8:	00f7a027          	fsw	fa5,0(a5)
    800051ac:	0485                	addi	s1,s1,1
    800051ae:	fae4e4e3          	bltu	s1,a4,80005156 <k2c_permute_dims+0x62>
    800051b2:	60ee                	ld	ra,216(sp)
    800051b4:	644e                	ld	s0,208(sp)
    800051b6:	64ae                	ld	s1,200(sp)
    800051b8:	690e                	ld	s2,192(sp)
    800051ba:	79ea                	ld	s3,184(sp)
    800051bc:	7a4a                	ld	s4,176(sp)
    800051be:	7aaa                	ld	s5,168(sp)
    800051c0:	612d                	addi	sp,sp,224
    800051c2:	8082                	ret

00000000800051c4 <k2c_repeat_vector>:
    800051c4:	0185be03          	ld	t3,24(a1)
    800051c8:	ca15                	beqz	a2,800051fc <k2c_repeat_vector+0x38>
    800051ca:	002e1e93          	slli	t4,t3,0x2
    800051ce:	4301                	li	t1,0
    800051d0:	4881                	li	a7,0
    800051d2:	020e0163          	beqz	t3,800051f4 <k2c_repeat_vector+0x30>
    800051d6:	619c                	ld	a5,0(a1)
    800051d8:	6114                	ld	a3,0(a0)
    800051da:	00231713          	slli	a4,t1,0x2
    800051de:	00fe8833          	add	a6,t4,a5
    800051e2:	9736                	add	a4,a4,a3
    800051e4:	0007a787          	flw	fa5,0(a5)
    800051e8:	0791                	addi	a5,a5,4
    800051ea:	0711                	addi	a4,a4,4
    800051ec:	fef72e27          	fsw	fa5,-4(a4)
    800051f0:	ff079ae3          	bne	a5,a6,800051e4 <k2c_repeat_vector+0x20>
    800051f4:	0885                	addi	a7,a7,1
    800051f6:	9372                	add	t1,t1,t3
    800051f8:	fd161de3          	bne	a2,a7,800051d2 <k2c_repeat_vector+0xe>
    800051fc:	8082                	ret

00000000800051fe <k2c_embedding>:
    800051fe:	0105bf03          	ld	t5,16(a1)
    80005202:	02063803          	ld	a6,32(a2)
    80005206:	4e81                	li	t4,0
    80005208:	4e01                	li	t3,0
    8000520a:	040f0663          	beqz	t5,80005256 <k2c_embedding+0x58>
    8000520e:	02080f63          	beqz	a6,8000524c <k2c_embedding+0x4e>
    80005212:	6198                	ld	a4,0(a1)
    80005214:	611c                	ld	a5,0(a0)
    80005216:	00063303          	ld	t1,0(a2)
    8000521a:	002e1893          	slli	a7,t3,0x2
    8000521e:	002e9693          	slli	a3,t4,0x2
    80005222:	98ba                	add	a7,a7,a4
    80005224:	96be                	add	a3,a3,a5
    80005226:	4701                	li	a4,0
    80005228:	0008a787          	flw	fa5,0(a7)
    8000522c:	0691                	addi	a3,a3,4
    8000522e:	c00797d3          	fcvt.w.s	a5,fa5,rtz
    80005232:	2781                	sext.w	a5,a5
    80005234:	030787b3          	mul	a5,a5,a6
    80005238:	97ba                	add	a5,a5,a4
    8000523a:	078a                	slli	a5,a5,0x2
    8000523c:	979a                	add	a5,a5,t1
    8000523e:	0007a787          	flw	fa5,0(a5)
    80005242:	0705                	addi	a4,a4,1
    80005244:	fef6ae27          	fsw	fa5,-4(a3)
    80005248:	fee810e3          	bne	a6,a4,80005228 <k2c_embedding+0x2a>
    8000524c:	0e05                	addi	t3,t3,1
    8000524e:	9ec2                	add	t4,t4,a6
    80005250:	fbee1fe3          	bne	t3,t5,8000520e <k2c_embedding+0x10>
    80005254:	8082                	ret
    80005256:	8082                	ret

0000000080005258 <k2c_matmul>:
    80005258:	7139                	addi	sp,sp,-64
    8000525a:	f426                	sd	s1,40(sp)
    8000525c:	84ba                	mv	s1,a4
    8000525e:	02e68733          	mul	a4,a3,a4
    80005262:	ec4e                	sd	s3,24(sp)
    80005264:	e852                	sd	s4,16(sp)
    80005266:	89ae                	mv	s3,a1
    80005268:	8a32                	mv	s4,a2
    8000526a:	4581                	li	a1,0
    8000526c:	f822                	sd	s0,48(sp)
    8000526e:	f04a                	sd	s2,32(sp)
    80005270:	e456                	sd	s5,8(sp)
    80005272:	fc06                	sd	ra,56(sp)
    80005274:	00271613          	slli	a2,a4,0x2
    80005278:	8436                	mv	s0,a3
    8000527a:	892a                	mv	s2,a0
    8000527c:	8abe                	mv	s5,a5
    8000527e:	581010ef          	jal	ra,80006ffe <memset>
    80005282:	86a2                	mv	a3,s0
    80005284:	7442                	ld	s0,48(sp)
    80005286:	70e2                	ld	ra,56(sp)
    80005288:	87d6                	mv	a5,s5
    8000528a:	8726                	mv	a4,s1
    8000528c:	6aa2                	ld	s5,8(sp)
    8000528e:	74a2                	ld	s1,40(sp)
    80005290:	8652                	mv	a2,s4
    80005292:	85ce                	mv	a1,s3
    80005294:	6a42                	ld	s4,16(sp)
    80005296:	69e2                	ld	s3,24(sp)
    80005298:	854a                	mv	a0,s2
    8000529a:	7902                	ld	s2,32(sp)
    8000529c:	6121                	addi	sp,sp,64
    8000529e:	bcbfe06f          	j	80003e68 <fmatmul>

00000000800052a2 <k2c_affine_matmul>:
    800052a2:	715d                	addi	sp,sp,-80
    800052a4:	e0a2                	sd	s0,64(sp)
    800052a6:	00279413          	slli	s0,a5,0x2
    800052aa:	e85a                	sd	s6,16(sp)
    800052ac:	8b32                	mv	s6,a2
    800052ae:	02870633          	mul	a2,a4,s0
    800052b2:	ec56                	sd	s5,24(sp)
    800052b4:	8aae                	mv	s5,a1
    800052b6:	4581                	li	a1,0
    800052b8:	fc26                	sd	s1,56(sp)
    800052ba:	f84a                	sd	s2,48(sp)
    800052bc:	f44e                	sd	s3,40(sp)
    800052be:	893a                	mv	s2,a4
    800052c0:	f052                	sd	s4,32(sp)
    800052c2:	e45e                	sd	s7,8(sp)
    800052c4:	84be                	mv	s1,a5
    800052c6:	e486                	sd	ra,72(sp)
    800052c8:	89aa                	mv	s3,a0
    800052ca:	8bc2                	mv	s7,a6
    800052cc:	8a36                	mv	s4,a3
    800052ce:	531010ef          	jal	ra,80006ffe <memset>
    800052d2:	87de                	mv	a5,s7
    800052d4:	8726                	mv	a4,s1
    800052d6:	86ca                	mv	a3,s2
    800052d8:	865a                	mv	a2,s6
    800052da:	85d6                	mv	a1,s5
    800052dc:	854e                	mv	a0,s3
    800052de:	b8bfe0ef          	jal	ra,80003e68 <fmatmul>
    800052e2:	02090b63          	beqz	s2,80005318 <k2c_affine_matmul+0x76>
    800052e6:	008a0833          	add	a6,s4,s0
    800052ea:	4301                	li	t1,0
    800052ec:	4881                	li	a7,0
    800052ee:	c08d                	beqz	s1,80005310 <k2c_affine_matmul+0x6e>
    800052f0:	00231613          	slli	a2,t1,0x2
    800052f4:	964e                	add	a2,a2,s3
    800052f6:	85d2                	mv	a1,s4
    800052f8:	00062787          	flw	fa5,0(a2)
    800052fc:	0005a707          	flw	fa4,0(a1)
    80005300:	0611                	addi	a2,a2,4
    80005302:	0591                	addi	a1,a1,4
    80005304:	00e7f7d3          	fadd.s	fa5,fa5,fa4
    80005308:	fef62e27          	fsw	fa5,-4(a2)
    8000530c:	feb816e3          	bne	a6,a1,800052f8 <k2c_affine_matmul+0x56>
    80005310:	0885                	addi	a7,a7,1
    80005312:	9326                	add	t1,t1,s1
    80005314:	fd289de3          	bne	a7,s2,800052ee <k2c_affine_matmul+0x4c>
    80005318:	60a6                	ld	ra,72(sp)
    8000531a:	6406                	ld	s0,64(sp)
    8000531c:	74e2                	ld	s1,56(sp)
    8000531e:	7942                	ld	s2,48(sp)
    80005320:	79a2                	ld	s3,40(sp)
    80005322:	7a02                	ld	s4,32(sp)
    80005324:	6ae2                	ld	s5,24(sp)
    80005326:	6b42                	ld	s6,16(sp)
    80005328:	6ba2                	ld	s7,8(sp)
    8000532a:	6161                	addi	sp,sp,80
    8000532c:	8082                	ret

000000008000532e <k2c_sub2idx>:
    8000532e:	ca1d                	beqz	a2,80005364 <k2c_sub2idx+0x36>
    80005330:	fff60313          	addi	t1,a2,-1
    80005334:	00331e13          	slli	t3,t1,0x3
    80005338:	88aa                	mv	a7,a0
    8000533a:	9e2e                	add	t3,t3,a1
    8000533c:	4801                	li	a6,0
    8000533e:	4501                	li	a0,0
    80005340:	0008b703          	ld	a4,0(a7)
    80005344:	00687963          	bgeu	a6,t1,80005356 <k2c_sub2idx+0x28>
    80005348:	87f2                	mv	a5,t3
    8000534a:	6394                	ld	a3,0(a5)
    8000534c:	17e1                	addi	a5,a5,-8
    8000534e:	02d70733          	mul	a4,a4,a3
    80005352:	feb79ce3          	bne	a5,a1,8000534a <k2c_sub2idx+0x1c>
    80005356:	0805                	addi	a6,a6,1
    80005358:	953a                	add	a0,a0,a4
    8000535a:	08a1                	addi	a7,a7,8
    8000535c:	05a1                	addi	a1,a1,8
    8000535e:	ff0611e3          	bne	a2,a6,80005340 <k2c_sub2idx+0x12>
    80005362:	8082                	ret
    80005364:	4501                	li	a0,0
    80005366:	8082                	ret

0000000080005368 <k2c_idx2sub>:
    80005368:	36fd                	addiw	a3,a3,-1
    8000536a:	0206c363          	bltz	a3,80005390 <k2c_idx2sub+0x28>
    8000536e:	00369793          	slli	a5,a3,0x3
    80005372:	963e                	add	a2,a2,a5
    80005374:	95be                	add	a1,a1,a5
    80005376:	577d                	li	a4,-1
    80005378:	621c                	ld	a5,0(a2)
    8000537a:	15e1                	addi	a1,a1,-8
    8000537c:	1661                	addi	a2,a2,-8
    8000537e:	02f577b3          	remu	a5,a0,a5
    80005382:	36fd                	addiw	a3,a3,-1
    80005384:	e59c                	sd	a5,8(a1)
    80005386:	661c                	ld	a5,8(a2)
    80005388:	02f55533          	divu	a0,a0,a5
    8000538c:	fee696e3          	bne	a3,a4,80005378 <k2c_idx2sub+0x10>
    80005390:	8082                	ret

0000000080005392 <k2c_dot>:
    80005392:	7161                	addi	sp,sp,-432
    80005394:	e752                	sd	s4,392(sp)
    80005396:	0105ba03          	ld	s4,16(a1)
    8000539a:	0085bf83          	ld	t6,8(a1)
    8000539e:	f722                	sd	s0,424(sp)
    800053a0:	eb4e                	sd	s3,400(sp)
    800053a2:	feda                	sd	s6,376(sp)
    800053a4:	fade                	sd	s7,368(sp)
    800053a6:	8b46                	mv	s6,a7
    800053a8:	002a1b93          	slli	s7,s4,0x2
    800053ac:	e02a                	sd	a0,0(sp)
    800053ae:	f326                	sd	s1,416(sp)
    800053b0:	ef4a                	sd	s2,408(sp)
    800053b2:	e356                	sd	s5,384(sp)
    800053b4:	f6e2                	sd	s8,360(sp)
    800053b6:	f2e6                	sd	s9,352(sp)
    800053b8:	eeea                	sd	s10,344(sp)
    800053ba:	eaee                	sd	s11,336(sp)
    800053bc:	e442                	sd	a6,8(sp)
    800053be:	842e                	mv	s0,a1
    800053c0:	00863383          	ld	t2,8(a2)
    800053c4:	89b2                	mv	s3,a2
    800053c6:	88b6                	mv	a7,a3
    800053c8:	853a                	mv	a0,a4
    800053ca:	85be                	mv	a1,a5
    800053cc:	9bda                	add	s7,s7,s6
    800053ce:	020f8663          	beqz	t6,800053fa <k2c_dot+0x68>
    800053d2:	00379613          	slli	a2,a5,0x3
    800053d6:	9636                	add	a2,a2,a3
    800053d8:	4301                	li	t1,0
    800053da:	4681                	li	a3,0
    800053dc:	87c6                	mv	a5,a7
    800053de:	4801                	li	a6,0
    800053e0:	3a058b63          	beqz	a1,80005796 <k2c_dot+0x404>
    800053e4:	6398                	ld	a4,0(a5)
    800053e6:	07a1                	addi	a5,a5,8
    800053e8:	38d70f63          	beq	a4,a3,80005786 <k2c_dot+0x3f4>
    800053ec:	fec79ce3          	bne	a5,a2,800053e4 <k2c_dot+0x52>
    800053f0:	3a080363          	beqz	a6,80005796 <k2c_dot+0x404>
    800053f4:	0685                	addi	a3,a3,1
    800053f6:	fedf93e3          	bne	t6,a3,800053dc <k2c_dot+0x4a>
    800053fa:	02038663          	beqz	t2,80005426 <k2c_dot+0x94>
    800053fe:	00359613          	slli	a2,a1,0x3
    80005402:	962a                	add	a2,a2,a0
    80005404:	4681                	li	a3,0
    80005406:	4301                	li	t1,0
    80005408:	87aa                	mv	a5,a0
    8000540a:	4801                	li	a6,0
    8000540c:	38058d63          	beqz	a1,800057a6 <k2c_dot+0x414>
    80005410:	6398                	ld	a4,0(a5)
    80005412:	07a1                	addi	a5,a5,8
    80005414:	36d70d63          	beq	a4,a3,8000578e <k2c_dot+0x3fc>
    80005418:	fec79ce3          	bne	a5,a2,80005410 <k2c_dot+0x7e>
    8000541c:	38080563          	beqz	a6,800057a6 <k2c_dot+0x414>
    80005420:	0685                	addi	a3,a3,1
    80005422:	fed393e3          	bne	t2,a3,80005408 <k2c_dot+0x76>
    80005426:	38058863          	beqz	a1,800057b6 <k2c_dot+0x424>
    8000542a:	00359693          	slli	a3,a1,0x3
    8000542e:	8746                	mv	a4,a7
    80005430:	00d88633          	add	a2,a7,a3
    80005434:	4905                	li	s2,1
    80005436:	631c                	ld	a5,0(a4)
    80005438:	0721                	addi	a4,a4,8
    8000543a:	0789                	addi	a5,a5,2
    8000543c:	078e                	slli	a5,a5,0x3
    8000543e:	97a2                	add	a5,a5,s0
    80005440:	679c                	ld	a5,8(a5)
    80005442:	02f90933          	mul	s2,s2,a5
    80005446:	fec718e3          	bne	a4,a2,80005436 <k2c_dot+0xa4>
    8000544a:	872a                	mv	a4,a0
    8000544c:	96aa                	add	a3,a3,a0
    8000544e:	4285                	li	t0,1
    80005450:	631c                	ld	a5,0(a4)
    80005452:	0721                	addi	a4,a4,8
    80005454:	0789                	addi	a5,a5,2
    80005456:	078e                	slli	a5,a5,0x3
    80005458:	97ce                	add	a5,a5,s3
    8000545a:	679c                	ld	a5,8(a5)
    8000545c:	02f282b3          	mul	t0,t0,a5
    80005460:	fed718e3          	bne	a4,a3,80005450 <k2c_dot+0xbe>
    80005464:	032a5c33          	divu	s8,s4,s2
    80005468:	0109bd03          	ld	s10,16(s3)
    8000546c:	40bf87b3          	sub	a5,t6,a1
    80005470:	025d5cb3          	divu	s9,s10,t0
    80005474:	00bf8e63          	beq	t6,a1,80005490 <k2c_dot+0xfe>
    80005478:	1098                	addi	a4,sp,96
    8000547a:	00379813          	slli	a6,a5,0x3
    8000547e:	0814                	addi	a3,sp,16
    80005480:	983a                	add	a6,a6,a4
    80005482:	6310                	ld	a2,0(a4)
    80005484:	0721                	addi	a4,a4,8
    80005486:	06a1                	addi	a3,a3,8
    80005488:	fec6bc23          	sd	a2,-8(a3)
    8000548c:	ff071be3          	bne	a4,a6,80005482 <k2c_dot+0xf0>
    80005490:	03f7f063          	bgeu	a5,t6,800054b0 <k2c_dot+0x11e>
    80005494:	0818                	addi	a4,sp,16
    80005496:	078e                	slli	a5,a5,0x3
    80005498:	003f9693          	slli	a3,t6,0x3
    8000549c:	97ba                	add	a5,a5,a4
    8000549e:	96ba                	add	a3,a3,a4
    800054a0:	0008b703          	ld	a4,0(a7)
    800054a4:	07a1                	addi	a5,a5,8
    800054a6:	08a1                	addi	a7,a7,8
    800054a8:	fee7bc23          	sd	a4,-8(a5)
    800054ac:	fed79ae3          	bne	a5,a3,800054a0 <k2c_dot+0x10e>
    800054b0:	cd81                	beqz	a1,800054c8 <k2c_dot+0x136>
    800054b2:	00359693          	slli	a3,a1,0x3
    800054b6:	183c                	addi	a5,sp,56
    800054b8:	96aa                	add	a3,a3,a0
    800054ba:	6118                	ld	a4,0(a0)
    800054bc:	0521                	addi	a0,a0,8
    800054be:	07a1                	addi	a5,a5,8
    800054c0:	fee7bc23          	sd	a4,-8(a5)
    800054c4:	fed51be3          	bne	a0,a3,800054ba <k2c_dot+0x128>
    800054c8:	0275f163          	bgeu	a1,t2,800054ea <k2c_dot+0x158>
    800054cc:	1834                	addi	a3,sp,56
    800054ce:	00359793          	slli	a5,a1,0x3
    800054d2:	00339613          	slli	a2,t2,0x3
    800054d6:	0138                	addi	a4,sp,136
    800054d8:	97b6                	add	a5,a5,a3
    800054da:	9636                	add	a2,a2,a3
    800054dc:	6314                	ld	a3,0(a4)
    800054de:	07a1                	addi	a5,a5,8
    800054e0:	0721                	addi	a4,a4,8
    800054e2:	fed7bc23          	sd	a3,-8(a5)
    800054e6:	fef61be3          	bne	a2,a5,800054dc <k2c_dot+0x14a>
    800054ea:	020f8263          	beqz	t6,8000550e <k2c_dot+0x17c>
    800054ee:	0818                	addi	a4,sp,16
